   1              		.cpu cortex-m7
   2              		.arch armv7e-m
   3              		.fpu fpv5-d16
   4              		.eabi_attribute 28, 1
   5              		.eabi_attribute 20, 1
   6              		.eabi_attribute 21, 1
   7              		.eabi_attribute 23, 3
   8              		.eabi_attribute 24, 1
   9              		.eabi_attribute 25, 1
  10              		.eabi_attribute 26, 1
  11              		.eabi_attribute 30, 6
  12              		.eabi_attribute 34, 1
  13              		.eabi_attribute 18, 4
  14              		.file	"test_env.c"
  15              		.text
  16              	.Ltext0:
  17              		.cfi_sections	.debug_frame
  18              		.section	.text.gpio_set_pin_moder,"ax",%progbits
  19              		.align	1
  20              		.p2align 4,,15
  21              		.syntax unified
  22              		.thumb
  23              		.thumb_func
  25              	gpio_set_pin_moder:
  26              	.LFB436:
  27              		.file 1 "C:/StellarStudio-7.1/SDKS/StellarESDK-1.8.0/Modules/Drivers/System/GPIO/include/gpio.h"
   1:C:/StellarStudio-7.1/SDKS/StellarESDK-1.8.0/Modules/Drivers/System/GPIO/include\gpio.h **** /****************************************************************************
   2:C:/StellarStudio-7.1/SDKS/StellarESDK-1.8.0/Modules/Drivers/System/GPIO/include\gpio.h ****  *
   3:C:/StellarStudio-7.1/SDKS/StellarESDK-1.8.0/Modules/Drivers/System/GPIO/include\gpio.h ****  * Copyright (c) 2022 STMicroelectronics - All Rights Reserved
   4:C:/StellarStudio-7.1/SDKS/StellarESDK-1.8.0/Modules/Drivers/System/GPIO/include\gpio.h ****  *
   5:C:/StellarStudio-7.1/SDKS/StellarESDK-1.8.0/Modules/Drivers/System/GPIO/include\gpio.h ****  * License terms: STMicroelectronics Proprietary in accordance with licensing
   6:C:/StellarStudio-7.1/SDKS/StellarESDK-1.8.0/Modules/Drivers/System/GPIO/include\gpio.h ****  * terms SLA0098 at www.st.com.
   7:C:/StellarStudio-7.1/SDKS/StellarESDK-1.8.0/Modules/Drivers/System/GPIO/include\gpio.h ****  *
   8:C:/StellarStudio-7.1/SDKS/StellarESDK-1.8.0/Modules/Drivers/System/GPIO/include\gpio.h ****  * THIS SOFTWARE IS DISTRIBUTED "AS IS," AND ALL WARRANTIES ARE DISCLAIMED,
   9:C:/StellarStudio-7.1/SDKS/StellarESDK-1.8.0/Modules/Drivers/System/GPIO/include\gpio.h ****  * INCLUDING MERCHANTABILITY AND FITNESS FOR A PARTICULAR PURPOSE.
  10:C:/StellarStudio-7.1/SDKS/StellarESDK-1.8.0/Modules/Drivers/System/GPIO/include\gpio.h ****  *
  11:C:/StellarStudio-7.1/SDKS/StellarESDK-1.8.0/Modules/Drivers/System/GPIO/include\gpio.h ****  *****************************************************************************/
  12:C:/StellarStudio-7.1/SDKS/StellarESDK-1.8.0/Modules/Drivers/System/GPIO/include\gpio.h **** /**
  13:C:/StellarStudio-7.1/SDKS/StellarESDK-1.8.0/Modules/Drivers/System/GPIO/include\gpio.h ****  * @file    gpio.h
  14:C:/StellarStudio-7.1/SDKS/StellarESDK-1.8.0/Modules/Drivers/System/GPIO/include\gpio.h ****  * @brief   GPIO driver header file.
  15:C:/StellarStudio-7.1/SDKS/StellarESDK-1.8.0/Modules/Drivers/System/GPIO/include\gpio.h ****  *
  16:C:/StellarStudio-7.1/SDKS/StellarESDK-1.8.0/Modules/Drivers/System/GPIO/include\gpio.h ****  * @addtogroup DRIVERS
  17:C:/StellarStudio-7.1/SDKS/StellarESDK-1.8.0/Modules/Drivers/System/GPIO/include\gpio.h ****  * @addtogroup SYSTEM
  18:C:/StellarStudio-7.1/SDKS/StellarESDK-1.8.0/Modules/Drivers/System/GPIO/include\gpio.h ****  * @ingroup DRIVERS
  19:C:/StellarStudio-7.1/SDKS/StellarESDK-1.8.0/Modules/Drivers/System/GPIO/include\gpio.h ****  * @addtogroup GPIO
  20:C:/StellarStudio-7.1/SDKS/StellarESDK-1.8.0/Modules/Drivers/System/GPIO/include\gpio.h ****  * @ingroup SYSTEM
  21:C:/StellarStudio-7.1/SDKS/StellarESDK-1.8.0/Modules/Drivers/System/GPIO/include\gpio.h ****  * @{
  22:C:/StellarStudio-7.1/SDKS/StellarESDK-1.8.0/Modules/Drivers/System/GPIO/include\gpio.h ****  */
  23:C:/StellarStudio-7.1/SDKS/StellarESDK-1.8.0/Modules/Drivers/System/GPIO/include\gpio.h **** 
  24:C:/StellarStudio-7.1/SDKS/StellarESDK-1.8.0/Modules/Drivers/System/GPIO/include\gpio.h **** #ifndef _GPIO_H_
  25:C:/StellarStudio-7.1/SDKS/StellarESDK-1.8.0/Modules/Drivers/System/GPIO/include\gpio.h **** #define _GPIO_H_
  26:C:/StellarStudio-7.1/SDKS/StellarESDK-1.8.0/Modules/Drivers/System/GPIO/include\gpio.h **** 
  27:C:/StellarStudio-7.1/SDKS/StellarESDK-1.8.0/Modules/Drivers/System/GPIO/include\gpio.h **** #include <platform.h>
  28:C:/StellarStudio-7.1/SDKS/StellarESDK-1.8.0/Modules/Drivers/System/GPIO/include\gpio.h **** #include <typedefs.h>
  29:C:/StellarStudio-7.1/SDKS/StellarESDK-1.8.0/Modules/Drivers/System/GPIO/include\gpio.h **** 
  30:C:/StellarStudio-7.1/SDKS/StellarESDK-1.8.0/Modules/Drivers/System/GPIO/include\gpio.h **** /*===========================================================================*/
  31:C:/StellarStudio-7.1/SDKS/StellarESDK-1.8.0/Modules/Drivers/System/GPIO/include\gpio.h **** /* Module constants.                                                         */
  32:C:/StellarStudio-7.1/SDKS/StellarESDK-1.8.0/Modules/Drivers/System/GPIO/include\gpio.h **** /*===========================================================================*/
  33:C:/StellarStudio-7.1/SDKS/StellarESDK-1.8.0/Modules/Drivers/System/GPIO/include\gpio.h **** 
  34:C:/StellarStudio-7.1/SDKS/StellarESDK-1.8.0/Modules/Drivers/System/GPIO/include\gpio.h **** /**
  35:C:/StellarStudio-7.1/SDKS/StellarESDK-1.8.0/Modules/Drivers/System/GPIO/include\gpio.h ****  * @name    GPIO Port identifiers
  36:C:/StellarStudio-7.1/SDKS/StellarESDK-1.8.0/Modules/Drivers/System/GPIO/include\gpio.h ****  * @{
  37:C:/StellarStudio-7.1/SDKS/StellarESDK-1.8.0/Modules/Drivers/System/GPIO/include\gpio.h ****  */
  38:C:/StellarStudio-7.1/SDKS/StellarESDK-1.8.0/Modules/Drivers/System/GPIO/include\gpio.h **** #define GPIO_PORT_A                    0U   /**< GPIO Port A */
  39:C:/StellarStudio-7.1/SDKS/StellarESDK-1.8.0/Modules/Drivers/System/GPIO/include\gpio.h **** #define GPIO_PORT_B                    1U   /**< GPIO Port B */
  40:C:/StellarStudio-7.1/SDKS/StellarESDK-1.8.0/Modules/Drivers/System/GPIO/include\gpio.h **** #define GPIO_PORT_C                    2U   /**< GPIO Port C */
  41:C:/StellarStudio-7.1/SDKS/StellarESDK-1.8.0/Modules/Drivers/System/GPIO/include\gpio.h **** #define GPIO_PORT_D                    3U   /**< GPIO Port D */
  42:C:/StellarStudio-7.1/SDKS/StellarESDK-1.8.0/Modules/Drivers/System/GPIO/include\gpio.h **** #define GPIO_PORT_E                    4U   /**< GPIO Port E */
  43:C:/StellarStudio-7.1/SDKS/StellarESDK-1.8.0/Modules/Drivers/System/GPIO/include\gpio.h **** #define GPIO_PORT_F                    5U   /**< GPIO Port F */
  44:C:/StellarStudio-7.1/SDKS/StellarESDK-1.8.0/Modules/Drivers/System/GPIO/include\gpio.h **** #define GPIO_PORT_G                    6U   /**< GPIO Port G */
  45:C:/StellarStudio-7.1/SDKS/StellarESDK-1.8.0/Modules/Drivers/System/GPIO/include\gpio.h **** #define GPIO_PORT_H                    7U   /**< GPIO Port G */
  46:C:/StellarStudio-7.1/SDKS/StellarESDK-1.8.0/Modules/Drivers/System/GPIO/include\gpio.h **** #define GPIO_PORT_I                    8U   /**< GPIO Port I */
  47:C:/StellarStudio-7.1/SDKS/StellarESDK-1.8.0/Modules/Drivers/System/GPIO/include\gpio.h **** #define GPIO_PORT_J                    9U   /**< GPIO Port J */
  48:C:/StellarStudio-7.1/SDKS/StellarESDK-1.8.0/Modules/Drivers/System/GPIO/include\gpio.h **** #define GPIO_PORT_K                    10U  /**< GPIO Port K */
  49:C:/StellarStudio-7.1/SDKS/StellarESDK-1.8.0/Modules/Drivers/System/GPIO/include\gpio.h **** #define GPIO_PORT_L                    11U  /**< GPIO Port L */
  50:C:/StellarStudio-7.1/SDKS/StellarESDK-1.8.0/Modules/Drivers/System/GPIO/include\gpio.h **** #define GPIO_PORT_M                    12U  /**< GPIO Port M */
  51:C:/StellarStudio-7.1/SDKS/StellarESDK-1.8.0/Modules/Drivers/System/GPIO/include\gpio.h **** #define GPIO_PORT_N                    13U  /**< GPIO Port N */
  52:C:/StellarStudio-7.1/SDKS/StellarESDK-1.8.0/Modules/Drivers/System/GPIO/include\gpio.h **** #define GPIO_PORT_Q                    14U  /**< GPIO Port Q */
  53:C:/StellarStudio-7.1/SDKS/StellarESDK-1.8.0/Modules/Drivers/System/GPIO/include\gpio.h **** #define GPIO_PORT_R                    15U  /**< GPIO Port R */
  54:C:/StellarStudio-7.1/SDKS/StellarESDK-1.8.0/Modules/Drivers/System/GPIO/include\gpio.h **** #define GPIO_PORT_S                    16U  /**< GPIO Port S */
  55:C:/StellarStudio-7.1/SDKS/StellarESDK-1.8.0/Modules/Drivers/System/GPIO/include\gpio.h **** #define GPIO_PORT_T                    17U  /**< GPIO Port T */
  56:C:/StellarStudio-7.1/SDKS/StellarESDK-1.8.0/Modules/Drivers/System/GPIO/include\gpio.h **** #define GPIO_PORT_V                    18U  /**< GPIO Port V */
  57:C:/StellarStudio-7.1/SDKS/StellarESDK-1.8.0/Modules/Drivers/System/GPIO/include\gpio.h **** #define GPIO_PORT_W                    19U  /**< GPIO Port W */
  58:C:/StellarStudio-7.1/SDKS/StellarESDK-1.8.0/Modules/Drivers/System/GPIO/include\gpio.h **** #define GPIO_PORT_X                    20U  /**< GPIO Port X */
  59:C:/StellarStudio-7.1/SDKS/StellarESDK-1.8.0/Modules/Drivers/System/GPIO/include\gpio.h **** #define GPIO_PORT_Y                    21U  /**< GPIO Port Y */
  60:C:/StellarStudio-7.1/SDKS/StellarESDK-1.8.0/Modules/Drivers/System/GPIO/include\gpio.h **** /** @} */
  61:C:/StellarStudio-7.1/SDKS/StellarESDK-1.8.0/Modules/Drivers/System/GPIO/include\gpio.h **** 
  62:C:/StellarStudio-7.1/SDKS/StellarESDK-1.8.0/Modules/Drivers/System/GPIO/include\gpio.h **** /**
  63:C:/StellarStudio-7.1/SDKS/StellarESDK-1.8.0/Modules/Drivers/System/GPIO/include\gpio.h ****  * @name    GPIO Pin identifiers
  64:C:/StellarStudio-7.1/SDKS/StellarESDK-1.8.0/Modules/Drivers/System/GPIO/include\gpio.h ****  * @{
  65:C:/StellarStudio-7.1/SDKS/StellarESDK-1.8.0/Modules/Drivers/System/GPIO/include\gpio.h ****  */
  66:C:/StellarStudio-7.1/SDKS/StellarESDK-1.8.0/Modules/Drivers/System/GPIO/include\gpio.h **** #define GPIO_PIN_0                     0U   /**< GPIO Pin 0  */
  67:C:/StellarStudio-7.1/SDKS/StellarESDK-1.8.0/Modules/Drivers/System/GPIO/include\gpio.h **** #define GPIO_PIN_1                     1U   /**< GPIO Pin 1  */
  68:C:/StellarStudio-7.1/SDKS/StellarESDK-1.8.0/Modules/Drivers/System/GPIO/include\gpio.h **** #define GPIO_PIN_2                     2U   /**< GPIO Pin 2  */
  69:C:/StellarStudio-7.1/SDKS/StellarESDK-1.8.0/Modules/Drivers/System/GPIO/include\gpio.h **** #define GPIO_PIN_3                     3U   /**< GPIO Pin 3  */
  70:C:/StellarStudio-7.1/SDKS/StellarESDK-1.8.0/Modules/Drivers/System/GPIO/include\gpio.h **** #define GPIO_PIN_4                     4U   /**< GPIO Pin 4  */
  71:C:/StellarStudio-7.1/SDKS/StellarESDK-1.8.0/Modules/Drivers/System/GPIO/include\gpio.h **** #define GPIO_PIN_5                     5U   /**< GPIO Pin 5  */
  72:C:/StellarStudio-7.1/SDKS/StellarESDK-1.8.0/Modules/Drivers/System/GPIO/include\gpio.h **** #define GPIO_PIN_6                     6U   /**< GPIO Pin 6  */
  73:C:/StellarStudio-7.1/SDKS/StellarESDK-1.8.0/Modules/Drivers/System/GPIO/include\gpio.h **** #define GPIO_PIN_7                     7U   /**< GPIO Pin 7  */
  74:C:/StellarStudio-7.1/SDKS/StellarESDK-1.8.0/Modules/Drivers/System/GPIO/include\gpio.h **** #define GPIO_PIN_8                     8U   /**< GPIO Pin 8  */
  75:C:/StellarStudio-7.1/SDKS/StellarESDK-1.8.0/Modules/Drivers/System/GPIO/include\gpio.h **** #define GPIO_PIN_9                     9U   /**< GPIO Pin 9  */
  76:C:/StellarStudio-7.1/SDKS/StellarESDK-1.8.0/Modules/Drivers/System/GPIO/include\gpio.h **** #define GPIO_PIN_10                    10U  /**< GPIO Pin 10 */
  77:C:/StellarStudio-7.1/SDKS/StellarESDK-1.8.0/Modules/Drivers/System/GPIO/include\gpio.h **** #define GPIO_PIN_11                    11U  /**< GPIO Pin 11 */
  78:C:/StellarStudio-7.1/SDKS/StellarESDK-1.8.0/Modules/Drivers/System/GPIO/include\gpio.h **** #define GPIO_PIN_12                    12U  /**< GPIO Pin 12 */
  79:C:/StellarStudio-7.1/SDKS/StellarESDK-1.8.0/Modules/Drivers/System/GPIO/include\gpio.h **** #define GPIO_PIN_13                    13U  /**< GPIO Pin 13 */
  80:C:/StellarStudio-7.1/SDKS/StellarESDK-1.8.0/Modules/Drivers/System/GPIO/include\gpio.h **** #define GPIO_PIN_14                    14U  /**< GPIO Pin 14 */
  81:C:/StellarStudio-7.1/SDKS/StellarESDK-1.8.0/Modules/Drivers/System/GPIO/include\gpio.h **** #define GPIO_PIN_15                    15U  /**< GPIO Pin 15 */
  82:C:/StellarStudio-7.1/SDKS/StellarESDK-1.8.0/Modules/Drivers/System/GPIO/include\gpio.h **** /** @} */
  83:C:/StellarStudio-7.1/SDKS/StellarESDK-1.8.0/Modules/Drivers/System/GPIO/include\gpio.h **** 
  84:C:/StellarStudio-7.1/SDKS/StellarESDK-1.8.0/Modules/Drivers/System/GPIO/include\gpio.h **** /**
  85:C:/StellarStudio-7.1/SDKS/StellarESDK-1.8.0/Modules/Drivers/System/GPIO/include\gpio.h ****  * @name    GPIO mode flags
  86:C:/StellarStudio-7.1/SDKS/StellarESDK-1.8.0/Modules/Drivers/System/GPIO/include\gpio.h ****  * @{
  87:C:/StellarStudio-7.1/SDKS/StellarESDK-1.8.0/Modules/Drivers/System/GPIO/include\gpio.h ****  */
  88:C:/StellarStudio-7.1/SDKS/StellarESDK-1.8.0/Modules/Drivers/System/GPIO/include\gpio.h **** #define GPIO_MODE_MODER_POS            (0U)
  89:C:/StellarStudio-7.1/SDKS/StellarESDK-1.8.0/Modules/Drivers/System/GPIO/include\gpio.h **** #define GPIO_MODE_MODER_MASK           (3UL << GPIO_MODE_MODER_POS)
  90:C:/StellarStudio-7.1/SDKS/StellarESDK-1.8.0/Modules/Drivers/System/GPIO/include\gpio.h **** #define GPIO_MODE_MODER_INPUT          (0UL << GPIO_MODE_MODER_POS)
  91:C:/StellarStudio-7.1/SDKS/StellarESDK-1.8.0/Modules/Drivers/System/GPIO/include\gpio.h **** #define GPIO_MODE_MODER_OUTPUT         (1UL << GPIO_MODE_MODER_POS)
  92:C:/StellarStudio-7.1/SDKS/StellarESDK-1.8.0/Modules/Drivers/System/GPIO/include\gpio.h **** #define GPIO_MODE_MODER_ALTERNATE      (2UL << GPIO_MODE_MODER_POS)
  93:C:/StellarStudio-7.1/SDKS/StellarESDK-1.8.0/Modules/Drivers/System/GPIO/include\gpio.h **** #define GPIO_MODE_MODER_ANALOG         (3UL << GPIO_MODE_MODER_POS)
  94:C:/StellarStudio-7.1/SDKS/StellarESDK-1.8.0/Modules/Drivers/System/GPIO/include\gpio.h **** 
  95:C:/StellarStudio-7.1/SDKS/StellarESDK-1.8.0/Modules/Drivers/System/GPIO/include\gpio.h **** #define GPIO_MODE_OTYPER_POS           (2U)
  96:C:/StellarStudio-7.1/SDKS/StellarESDK-1.8.0/Modules/Drivers/System/GPIO/include\gpio.h **** #define GPIO_MODE_OTYPER_MASK          (1UL << GPIO_MODE_OTYPER_POS)
  97:C:/StellarStudio-7.1/SDKS/StellarESDK-1.8.0/Modules/Drivers/System/GPIO/include\gpio.h **** #define GPIO_MODE_OTYPER_PUSHPULL      (0UL << GPIO_MODE_OTYPER_POS)
  98:C:/StellarStudio-7.1/SDKS/StellarESDK-1.8.0/Modules/Drivers/System/GPIO/include\gpio.h **** #define GPIO_MODE_OTYPER_OPENDRAIN     (1UL << GPIO_MODE_OTYPER_POS)
  99:C:/StellarStudio-7.1/SDKS/StellarESDK-1.8.0/Modules/Drivers/System/GPIO/include\gpio.h **** 
 100:C:/StellarStudio-7.1/SDKS/StellarESDK-1.8.0/Modules/Drivers/System/GPIO/include\gpio.h **** #define GPIO_MODE_OSPEEDR_POS          (3U)
 101:C:/StellarStudio-7.1/SDKS/StellarESDK-1.8.0/Modules/Drivers/System/GPIO/include\gpio.h **** #define GPIO_MODE_OSPEEDR_MASK         (3UL << GPIO_MODE_OSPEEDR_POS)
 102:C:/StellarStudio-7.1/SDKS/StellarESDK-1.8.0/Modules/Drivers/System/GPIO/include\gpio.h **** #define GPIO_MODE_OSPEEDR_LOW          (0UL << GPIO_MODE_OSPEEDR_POS)
 103:C:/StellarStudio-7.1/SDKS/StellarESDK-1.8.0/Modules/Drivers/System/GPIO/include\gpio.h **** #define GPIO_MODE_OSPEEDR_MEDIUM       (1UL << GPIO_MODE_OSPEEDR_POS)
 104:C:/StellarStudio-7.1/SDKS/StellarESDK-1.8.0/Modules/Drivers/System/GPIO/include\gpio.h **** #define GPIO_MODE_OSPEEDR_HIGH         (2UL << GPIO_MODE_OSPEEDR_POS)
 105:C:/StellarStudio-7.1/SDKS/StellarESDK-1.8.0/Modules/Drivers/System/GPIO/include\gpio.h **** #define GPIO_MODE_OSPEEDR_VERYHIGH     (3UL << GPIO_MODE_OSPEEDR_POS)
 106:C:/StellarStudio-7.1/SDKS/StellarESDK-1.8.0/Modules/Drivers/System/GPIO/include\gpio.h **** 
 107:C:/StellarStudio-7.1/SDKS/StellarESDK-1.8.0/Modules/Drivers/System/GPIO/include\gpio.h **** #define GPIO_MODE_PUPDR_POS            (5U)
 108:C:/StellarStudio-7.1/SDKS/StellarESDK-1.8.0/Modules/Drivers/System/GPIO/include\gpio.h **** #define GPIO_MODE_PUPDR_MASK           (3UL << GPIO_MODE_PUPDR_POS)
 109:C:/StellarStudio-7.1/SDKS/StellarESDK-1.8.0/Modules/Drivers/System/GPIO/include\gpio.h **** #define GPIO_MODE_PUPDR_FLOATING       (0UL << GPIO_MODE_PUPDR_POS)
 110:C:/StellarStudio-7.1/SDKS/StellarESDK-1.8.0/Modules/Drivers/System/GPIO/include\gpio.h **** #define GPIO_MODE_PUPDR_PULLUP         (1UL << GPIO_MODE_PUPDR_POS)
 111:C:/StellarStudio-7.1/SDKS/StellarESDK-1.8.0/Modules/Drivers/System/GPIO/include\gpio.h **** #define GPIO_MODE_PUPDR_PULLDOWN       (2UL << GPIO_MODE_PUPDR_POS)
 112:C:/StellarStudio-7.1/SDKS/StellarESDK-1.8.0/Modules/Drivers/System/GPIO/include\gpio.h **** 
 113:C:/StellarStudio-7.1/SDKS/StellarESDK-1.8.0/Modules/Drivers/System/GPIO/include\gpio.h **** #define GPIO_MODE_AFR_POS              (7U)
 114:C:/StellarStudio-7.1/SDKS/StellarESDK-1.8.0/Modules/Drivers/System/GPIO/include\gpio.h **** #define GPIO_MODE_AFR_MASK             (15UL << GPIO_MODE_AFR_POS)
 115:C:/StellarStudio-7.1/SDKS/StellarESDK-1.8.0/Modules/Drivers/System/GPIO/include\gpio.h **** #define GPIO_MODE_AFR(n)               ((uint32_t)(n) << GPIO_MODE_AFR_POS)
 116:C:/StellarStudio-7.1/SDKS/StellarESDK-1.8.0/Modules/Drivers/System/GPIO/include\gpio.h **** 
 117:C:/StellarStudio-7.1/SDKS/StellarESDK-1.8.0/Modules/Drivers/System/GPIO/include\gpio.h **** #define GPIO_MODE_IHYSTR_POS           (11U)
 118:C:/StellarStudio-7.1/SDKS/StellarESDK-1.8.0/Modules/Drivers/System/GPIO/include\gpio.h **** #define GPIO_MODE_IHYSTR_MASK          (3UL << GPIO_MODE_IHYSTR_POS)
 119:C:/StellarStudio-7.1/SDKS/StellarESDK-1.8.0/Modules/Drivers/System/GPIO/include\gpio.h **** #define GPIO_MODE_IHYSTR_CMOS          (0UL << GPIO_MODE_IHYSTR_POS)
 120:C:/StellarStudio-7.1/SDKS/StellarESDK-1.8.0/Modules/Drivers/System/GPIO/include\gpio.h **** #define GPIO_MODE_IHYSTR_AUTO          (1UL << GPIO_MODE_IHYSTR_POS)
 121:C:/StellarStudio-7.1/SDKS/StellarESDK-1.8.0/Modules/Drivers/System/GPIO/include\gpio.h **** #define GPIO_MODE_IHYSTR_TTL           (2UL << GPIO_MODE_IHYSTR_POS)
 122:C:/StellarStudio-7.1/SDKS/StellarESDK-1.8.0/Modules/Drivers/System/GPIO/include\gpio.h **** 
 123:C:/StellarStudio-7.1/SDKS/StellarESDK-1.8.0/Modules/Drivers/System/GPIO/include\gpio.h **** #define GPIO_MODE_TRIGENR_POS          (13U)
 124:C:/StellarStudio-7.1/SDKS/StellarESDK-1.8.0/Modules/Drivers/System/GPIO/include\gpio.h **** #define GPIO_MODE_TRIGENR_MASK         (1UL << GPIO_MODE_TRIGENR_POS)
 125:C:/StellarStudio-7.1/SDKS/StellarESDK-1.8.0/Modules/Drivers/System/GPIO/include\gpio.h **** #define GPIO_MODE_TRIGENR_IN_DISABLED  (0UL << GPIO_MODE_TRIGENR_POS)
 126:C:/StellarStudio-7.1/SDKS/StellarESDK-1.8.0/Modules/Drivers/System/GPIO/include\gpio.h **** #define GPIO_MODE_TRIGENR_IN_ENABLED   (1UL << GPIO_MODE_TRIGENR_POS)
 127:C:/StellarStudio-7.1/SDKS/StellarESDK-1.8.0/Modules/Drivers/System/GPIO/include\gpio.h **** 
 128:C:/StellarStudio-7.1/SDKS/StellarESDK-1.8.0/Modules/Drivers/System/GPIO/include\gpio.h **** #define GPIO_MODE_SAFESELR_POS         (14U)
 129:C:/StellarStudio-7.1/SDKS/StellarESDK-1.8.0/Modules/Drivers/System/GPIO/include\gpio.h **** #define GPIO_MODE_SAFESELR_MASK        (1UL << GPIO_MODE_SAFESELR_POS)
 130:C:/StellarStudio-7.1/SDKS/StellarESDK-1.8.0/Modules/Drivers/System/GPIO/include\gpio.h **** #define GPIO_MODE_SAFESELR_DISABLED    (0UL << GPIO_MODE_SAFESELR_POS)
 131:C:/StellarStudio-7.1/SDKS/StellarESDK-1.8.0/Modules/Drivers/System/GPIO/include\gpio.h **** #define GPIO_MODE_SAFESELR_ENABLED     (1UL << GPIO_MODE_SAFESELR_POS)
 132:C:/StellarStudio-7.1/SDKS/StellarESDK-1.8.0/Modules/Drivers/System/GPIO/include\gpio.h **** 
 133:C:/StellarStudio-7.1/SDKS/StellarESDK-1.8.0/Modules/Drivers/System/GPIO/include\gpio.h **** #define GPIO_MODE_SAFEVALR_POS         (15U)
 134:C:/StellarStudio-7.1/SDKS/StellarESDK-1.8.0/Modules/Drivers/System/GPIO/include\gpio.h **** #define GPIO_MODE_SAFEVALR_MASK        (1UL << GPIO_MODE_SAFEVALR_POS)
 135:C:/StellarStudio-7.1/SDKS/StellarESDK-1.8.0/Modules/Drivers/System/GPIO/include\gpio.h **** #define GPIO_MODE_SAFEVALR_LOW         (0UL << GPIO_MODE_SAFEVALR_POS)
 136:C:/StellarStudio-7.1/SDKS/StellarESDK-1.8.0/Modules/Drivers/System/GPIO/include\gpio.h **** #define GPIO_MODE_SAFEVALR_HIGH        (1UL << GPIO_MODE_SAFEVALR_POS)
 137:C:/StellarStudio-7.1/SDKS/StellarESDK-1.8.0/Modules/Drivers/System/GPIO/include\gpio.h **** /** @} */
 138:C:/StellarStudio-7.1/SDKS/StellarESDK-1.8.0/Modules/Drivers/System/GPIO/include\gpio.h **** 
 139:C:/StellarStudio-7.1/SDKS/StellarESDK-1.8.0/Modules/Drivers/System/GPIO/include\gpio.h **** /*===========================================================================*/
 140:C:/StellarStudio-7.1/SDKS/StellarESDK-1.8.0/Modules/Drivers/System/GPIO/include\gpio.h **** /* Module pre-compile time settings.                                         */
 141:C:/StellarStudio-7.1/SDKS/StellarESDK-1.8.0/Modules/Drivers/System/GPIO/include\gpio.h **** /*===========================================================================*/
 142:C:/StellarStudio-7.1/SDKS/StellarESDK-1.8.0/Modules/Drivers/System/GPIO/include\gpio.h **** 
 143:C:/StellarStudio-7.1/SDKS/StellarESDK-1.8.0/Modules/Drivers/System/GPIO/include\gpio.h **** /*===========================================================================*/
 144:C:/StellarStudio-7.1/SDKS/StellarESDK-1.8.0/Modules/Drivers/System/GPIO/include\gpio.h **** /* Derived constants and error checks.                                       */
 145:C:/StellarStudio-7.1/SDKS/StellarESDK-1.8.0/Modules/Drivers/System/GPIO/include\gpio.h **** /*===========================================================================*/
 146:C:/StellarStudio-7.1/SDKS/StellarESDK-1.8.0/Modules/Drivers/System/GPIO/include\gpio.h **** 
 147:C:/StellarStudio-7.1/SDKS/StellarESDK-1.8.0/Modules/Drivers/System/GPIO/include\gpio.h **** /*===========================================================================*/
 148:C:/StellarStudio-7.1/SDKS/StellarESDK-1.8.0/Modules/Drivers/System/GPIO/include\gpio.h **** /* Module data structures and types.                                         */
 149:C:/StellarStudio-7.1/SDKS/StellarESDK-1.8.0/Modules/Drivers/System/GPIO/include\gpio.h **** /*===========================================================================*/
 150:C:/StellarStudio-7.1/SDKS/StellarESDK-1.8.0/Modules/Drivers/System/GPIO/include\gpio.h **** 
 151:C:/StellarStudio-7.1/SDKS/StellarESDK-1.8.0/Modules/Drivers/System/GPIO/include\gpio.h **** /**
 152:C:/StellarStudio-7.1/SDKS/StellarESDK-1.8.0/Modules/Drivers/System/GPIO/include\gpio.h ****  * @brief   GPIO Port type.
 153:C:/StellarStudio-7.1/SDKS/StellarESDK-1.8.0/Modules/Drivers/System/GPIO/include\gpio.h ****  */
 154:C:/StellarStudio-7.1/SDKS/StellarESDK-1.8.0/Modules/Drivers/System/GPIO/include\gpio.h **** typedef uint8_t gpio_port_t;
 155:C:/StellarStudio-7.1/SDKS/StellarESDK-1.8.0/Modules/Drivers/System/GPIO/include\gpio.h **** 
 156:C:/StellarStudio-7.1/SDKS/StellarESDK-1.8.0/Modules/Drivers/System/GPIO/include\gpio.h **** /**
 157:C:/StellarStudio-7.1/SDKS/StellarESDK-1.8.0/Modules/Drivers/System/GPIO/include\gpio.h ****  * @brief   GPIO Pin type.
 158:C:/StellarStudio-7.1/SDKS/StellarESDK-1.8.0/Modules/Drivers/System/GPIO/include\gpio.h ****  */
 159:C:/StellarStudio-7.1/SDKS/StellarESDK-1.8.0/Modules/Drivers/System/GPIO/include\gpio.h **** typedef uint8_t gpio_pin_t;
 160:C:/StellarStudio-7.1/SDKS/StellarESDK-1.8.0/Modules/Drivers/System/GPIO/include\gpio.h **** 
 161:C:/StellarStudio-7.1/SDKS/StellarESDK-1.8.0/Modules/Drivers/System/GPIO/include\gpio.h **** /**
 162:C:/StellarStudio-7.1/SDKS/StellarESDK-1.8.0/Modules/Drivers/System/GPIO/include\gpio.h ****  * @brief   GPIO I/O type.
 163:C:/StellarStudio-7.1/SDKS/StellarESDK-1.8.0/Modules/Drivers/System/GPIO/include\gpio.h ****  */
 164:C:/StellarStudio-7.1/SDKS/StellarESDK-1.8.0/Modules/Drivers/System/GPIO/include\gpio.h **** typedef uint16_t gpio_io_t;
 165:C:/StellarStudio-7.1/SDKS/StellarESDK-1.8.0/Modules/Drivers/System/GPIO/include\gpio.h **** 
 166:C:/StellarStudio-7.1/SDKS/StellarESDK-1.8.0/Modules/Drivers/System/GPIO/include\gpio.h **** /**
 167:C:/StellarStudio-7.1/SDKS/StellarESDK-1.8.0/Modules/Drivers/System/GPIO/include\gpio.h ****  * @enum gpio_mode_t
 168:C:/StellarStudio-7.1/SDKS/StellarESDK-1.8.0/Modules/Drivers/System/GPIO/include\gpio.h ****  * GPIO Mode type.
 169:C:/StellarStudio-7.1/SDKS/StellarESDK-1.8.0/Modules/Drivers/System/GPIO/include\gpio.h ****  */
 170:C:/StellarStudio-7.1/SDKS/StellarESDK-1.8.0/Modules/Drivers/System/GPIO/include\gpio.h **** typedef enum {
 171:C:/StellarStudio-7.1/SDKS/StellarESDK-1.8.0/Modules/Drivers/System/GPIO/include\gpio.h ****     GPIO_MODER_INPUT,        /**< GPIO Mode Input              */
 172:C:/StellarStudio-7.1/SDKS/StellarESDK-1.8.0/Modules/Drivers/System/GPIO/include\gpio.h ****     GPIO_MODER_OUTPUT,       /**< GPIO Mode Output             */
 173:C:/StellarStudio-7.1/SDKS/StellarESDK-1.8.0/Modules/Drivers/System/GPIO/include\gpio.h ****     GPIO_MODER_ALTERNATE,    /**< GPIO Mode Alternate Function */
 174:C:/StellarStudio-7.1/SDKS/StellarESDK-1.8.0/Modules/Drivers/System/GPIO/include\gpio.h ****     GPIO_MODER_ANALOG        /**< GPIO Mode Analog             */
 175:C:/StellarStudio-7.1/SDKS/StellarESDK-1.8.0/Modules/Drivers/System/GPIO/include\gpio.h **** } gpio_mode_t;
 176:C:/StellarStudio-7.1/SDKS/StellarESDK-1.8.0/Modules/Drivers/System/GPIO/include\gpio.h **** 
 177:C:/StellarStudio-7.1/SDKS/StellarESDK-1.8.0/Modules/Drivers/System/GPIO/include\gpio.h **** /**
 178:C:/StellarStudio-7.1/SDKS/StellarESDK-1.8.0/Modules/Drivers/System/GPIO/include\gpio.h ****  * @enum gpio_otype_t
 179:C:/StellarStudio-7.1/SDKS/StellarESDK-1.8.0/Modules/Drivers/System/GPIO/include\gpio.h ****  * GPIO Output Type type.
 180:C:/StellarStudio-7.1/SDKS/StellarESDK-1.8.0/Modules/Drivers/System/GPIO/include\gpio.h ****  */
 181:C:/StellarStudio-7.1/SDKS/StellarESDK-1.8.0/Modules/Drivers/System/GPIO/include\gpio.h **** typedef enum {
 182:C:/StellarStudio-7.1/SDKS/StellarESDK-1.8.0/Modules/Drivers/System/GPIO/include\gpio.h ****     GPIO_OTYPER_PUSHPULL,    /**< GPIO Output Push-Pull  */
 183:C:/StellarStudio-7.1/SDKS/StellarESDK-1.8.0/Modules/Drivers/System/GPIO/include\gpio.h ****     GPIO_OTYPER_OPENDRAIN,   /**< GPIO Output Open-Drain */
 184:C:/StellarStudio-7.1/SDKS/StellarESDK-1.8.0/Modules/Drivers/System/GPIO/include\gpio.h **** } gpio_otype_t;
 185:C:/StellarStudio-7.1/SDKS/StellarESDK-1.8.0/Modules/Drivers/System/GPIO/include\gpio.h **** 
 186:C:/StellarStudio-7.1/SDKS/StellarESDK-1.8.0/Modules/Drivers/System/GPIO/include\gpio.h **** /**
 187:C:/StellarStudio-7.1/SDKS/StellarESDK-1.8.0/Modules/Drivers/System/GPIO/include\gpio.h ****  * @enum gpio_ospeed_t
 188:C:/StellarStudio-7.1/SDKS/StellarESDK-1.8.0/Modules/Drivers/System/GPIO/include\gpio.h ****  * GPIO Output Speed type.
 189:C:/StellarStudio-7.1/SDKS/StellarESDK-1.8.0/Modules/Drivers/System/GPIO/include\gpio.h ****  */
 190:C:/StellarStudio-7.1/SDKS/StellarESDK-1.8.0/Modules/Drivers/System/GPIO/include\gpio.h **** typedef enum {
 191:C:/StellarStudio-7.1/SDKS/StellarESDK-1.8.0/Modules/Drivers/System/GPIO/include\gpio.h ****     GPIO_OSPEEDR_LOW,        /**< GPIO Low Speed       */
 192:C:/StellarStudio-7.1/SDKS/StellarESDK-1.8.0/Modules/Drivers/System/GPIO/include\gpio.h ****     GPIO_OSPEEDR_MEDIUM,     /**< GPIO Medium Speed    */
 193:C:/StellarStudio-7.1/SDKS/StellarESDK-1.8.0/Modules/Drivers/System/GPIO/include\gpio.h ****     GPIO_OSPEEDR_HIGH,       /**< GPIO High Speed      */
 194:C:/StellarStudio-7.1/SDKS/StellarESDK-1.8.0/Modules/Drivers/System/GPIO/include\gpio.h ****     GPIO_OSPEEDR_VERYHIGH    /**< GPIO Very High Speed */
 195:C:/StellarStudio-7.1/SDKS/StellarESDK-1.8.0/Modules/Drivers/System/GPIO/include\gpio.h **** } gpio_ospeed_t;
 196:C:/StellarStudio-7.1/SDKS/StellarESDK-1.8.0/Modules/Drivers/System/GPIO/include\gpio.h **** 
 197:C:/StellarStudio-7.1/SDKS/StellarESDK-1.8.0/Modules/Drivers/System/GPIO/include\gpio.h **** /**
 198:C:/StellarStudio-7.1/SDKS/StellarESDK-1.8.0/Modules/Drivers/System/GPIO/include\gpio.h ****  * @enum gpio_pupd_t
 199:C:/StellarStudio-7.1/SDKS/StellarESDK-1.8.0/Modules/Drivers/System/GPIO/include\gpio.h ****  * GPIO Pull-up/Pull-down type.
 200:C:/StellarStudio-7.1/SDKS/StellarESDK-1.8.0/Modules/Drivers/System/GPIO/include\gpio.h ****  */
 201:C:/StellarStudio-7.1/SDKS/StellarESDK-1.8.0/Modules/Drivers/System/GPIO/include\gpio.h **** typedef enum {
 202:C:/StellarStudio-7.1/SDKS/StellarESDK-1.8.0/Modules/Drivers/System/GPIO/include\gpio.h ****     GPIO_PUPDR_FLOATING,     /**< GPIO No Pull-Up, No Pull-Down */
 203:C:/StellarStudio-7.1/SDKS/StellarESDK-1.8.0/Modules/Drivers/System/GPIO/include\gpio.h ****     GPIO_PUPDR_PULLUP,       /**< GPIO Pull-Up                  */
 204:C:/StellarStudio-7.1/SDKS/StellarESDK-1.8.0/Modules/Drivers/System/GPIO/include\gpio.h ****     GPIO_PUPDR_PULLDOWN      /**< GPIO Pull-Down                */
 205:C:/StellarStudio-7.1/SDKS/StellarESDK-1.8.0/Modules/Drivers/System/GPIO/include\gpio.h **** } gpio_pupd_t;
 206:C:/StellarStudio-7.1/SDKS/StellarESDK-1.8.0/Modules/Drivers/System/GPIO/include\gpio.h **** 
 207:C:/StellarStudio-7.1/SDKS/StellarESDK-1.8.0/Modules/Drivers/System/GPIO/include\gpio.h **** /**
 208:C:/StellarStudio-7.1/SDKS/StellarESDK-1.8.0/Modules/Drivers/System/GPIO/include\gpio.h ****  * @enum gpio_od_t
 209:C:/StellarStudio-7.1/SDKS/StellarESDK-1.8.0/Modules/Drivers/System/GPIO/include\gpio.h ****  * GPIO Output Data type.
 210:C:/StellarStudio-7.1/SDKS/StellarESDK-1.8.0/Modules/Drivers/System/GPIO/include\gpio.h ****  */
 211:C:/StellarStudio-7.1/SDKS/StellarESDK-1.8.0/Modules/Drivers/System/GPIO/include\gpio.h **** typedef enum {
 212:C:/StellarStudio-7.1/SDKS/StellarESDK-1.8.0/Modules/Drivers/System/GPIO/include\gpio.h ****     GPIO_ODR_LOW,            /**< GPIO Output Data Low  */
 213:C:/StellarStudio-7.1/SDKS/StellarESDK-1.8.0/Modules/Drivers/System/GPIO/include\gpio.h ****     GPIO_ODR_HIGH            /**< GPIO Output Data High */
 214:C:/StellarStudio-7.1/SDKS/StellarESDK-1.8.0/Modules/Drivers/System/GPIO/include\gpio.h **** } gpio_od_t;
 215:C:/StellarStudio-7.1/SDKS/StellarESDK-1.8.0/Modules/Drivers/System/GPIO/include\gpio.h **** 
 216:C:/StellarStudio-7.1/SDKS/StellarESDK-1.8.0/Modules/Drivers/System/GPIO/include\gpio.h **** /**
 217:C:/StellarStudio-7.1/SDKS/StellarESDK-1.8.0/Modules/Drivers/System/GPIO/include\gpio.h ****  * @brief   GPIO Alternate Function type.
 218:C:/StellarStudio-7.1/SDKS/StellarESDK-1.8.0/Modules/Drivers/System/GPIO/include\gpio.h ****  */
 219:C:/StellarStudio-7.1/SDKS/StellarESDK-1.8.0/Modules/Drivers/System/GPIO/include\gpio.h **** typedef uint8_t gpio_af_t;
 220:C:/StellarStudio-7.1/SDKS/StellarESDK-1.8.0/Modules/Drivers/System/GPIO/include\gpio.h **** 
 221:C:/StellarStudio-7.1/SDKS/StellarESDK-1.8.0/Modules/Drivers/System/GPIO/include\gpio.h **** /**
 222:C:/StellarStudio-7.1/SDKS/StellarESDK-1.8.0/Modules/Drivers/System/GPIO/include\gpio.h ****  * @enum gpio_ihyst_t
 223:C:/StellarStudio-7.1/SDKS/StellarESDK-1.8.0/Modules/Drivers/System/GPIO/include\gpio.h ****  * GPIO Port Hysteresis type.
 224:C:/StellarStudio-7.1/SDKS/StellarESDK-1.8.0/Modules/Drivers/System/GPIO/include\gpio.h ****  */
 225:C:/StellarStudio-7.1/SDKS/StellarESDK-1.8.0/Modules/Drivers/System/GPIO/include\gpio.h **** typedef enum {
 226:C:/StellarStudio-7.1/SDKS/StellarESDK-1.8.0/Modules/Drivers/System/GPIO/include\gpio.h ****     GPIO_IHYSTR_CMOS,        /**< GPIO Port Input Buffer Disabled */
 227:C:/StellarStudio-7.1/SDKS/StellarESDK-1.8.0/Modules/Drivers/System/GPIO/include\gpio.h ****     GPIO_IHYSTR_TTL,         /**< GPIO Port Input Buffer Enabled  */
 228:C:/StellarStudio-7.1/SDKS/StellarESDK-1.8.0/Modules/Drivers/System/GPIO/include\gpio.h ****     GPIO_IHYSTR_AUTO,        /**< GPIO Port Input Buffer Enabled  */
 229:C:/StellarStudio-7.1/SDKS/StellarESDK-1.8.0/Modules/Drivers/System/GPIO/include\gpio.h **** } gpio_ihyst_t;
 230:C:/StellarStudio-7.1/SDKS/StellarESDK-1.8.0/Modules/Drivers/System/GPIO/include\gpio.h **** 
 231:C:/StellarStudio-7.1/SDKS/StellarESDK-1.8.0/Modules/Drivers/System/GPIO/include\gpio.h **** /**
 232:C:/StellarStudio-7.1/SDKS/StellarESDK-1.8.0/Modules/Drivers/System/GPIO/include\gpio.h ****  * @enum gpio_trigen_t
 233:C:/StellarStudio-7.1/SDKS/StellarESDK-1.8.0/Modules/Drivers/System/GPIO/include\gpio.h ****  * GPIO Port Input Buffer Enable type.
 234:C:/StellarStudio-7.1/SDKS/StellarESDK-1.8.0/Modules/Drivers/System/GPIO/include\gpio.h ****  */
 235:C:/StellarStudio-7.1/SDKS/StellarESDK-1.8.0/Modules/Drivers/System/GPIO/include\gpio.h **** typedef enum {
 236:C:/StellarStudio-7.1/SDKS/StellarESDK-1.8.0/Modules/Drivers/System/GPIO/include\gpio.h ****     GPIO_TRIGENR_IN_DISABLED,     /**< GPIO Port Input Buffer Disabled */
 237:C:/StellarStudio-7.1/SDKS/StellarESDK-1.8.0/Modules/Drivers/System/GPIO/include\gpio.h ****     GPIO_TRIGENR_IN_ENABLED       /**< GPIO Port Input Buffer Enabled  */
 238:C:/StellarStudio-7.1/SDKS/StellarESDK-1.8.0/Modules/Drivers/System/GPIO/include\gpio.h **** } gpio_trigen_t;
 239:C:/StellarStudio-7.1/SDKS/StellarESDK-1.8.0/Modules/Drivers/System/GPIO/include\gpio.h **** 
 240:C:/StellarStudio-7.1/SDKS/StellarESDK-1.8.0/Modules/Drivers/System/GPIO/include\gpio.h **** /**
 241:C:/StellarStudio-7.1/SDKS/StellarESDK-1.8.0/Modules/Drivers/System/GPIO/include\gpio.h ****  * @enum gpio_safesel_t
 242:C:/StellarStudio-7.1/SDKS/StellarESDK-1.8.0/Modules/Drivers/System/GPIO/include\gpio.h ****  * GPIO Safe IO Selection Enable type.
 243:C:/StellarStudio-7.1/SDKS/StellarESDK-1.8.0/Modules/Drivers/System/GPIO/include\gpio.h ****  */
 244:C:/StellarStudio-7.1/SDKS/StellarESDK-1.8.0/Modules/Drivers/System/GPIO/include\gpio.h **** typedef enum {
 245:C:/StellarStudio-7.1/SDKS/StellarESDK-1.8.0/Modules/Drivers/System/GPIO/include\gpio.h ****     GPIO_SAFESEL_DISABLED,   /**< GPIO Safe IO Selection Disabled */
 246:C:/StellarStudio-7.1/SDKS/StellarESDK-1.8.0/Modules/Drivers/System/GPIO/include\gpio.h ****     GPIO_SAFESEL_ENABLED     /**< GPIO Safe IO Selection Enabled  */
 247:C:/StellarStudio-7.1/SDKS/StellarESDK-1.8.0/Modules/Drivers/System/GPIO/include\gpio.h **** } gpio_safesel_t;
 248:C:/StellarStudio-7.1/SDKS/StellarESDK-1.8.0/Modules/Drivers/System/GPIO/include\gpio.h **** 
 249:C:/StellarStudio-7.1/SDKS/StellarESDK-1.8.0/Modules/Drivers/System/GPIO/include\gpio.h **** /**
 250:C:/StellarStudio-7.1/SDKS/StellarESDK-1.8.0/Modules/Drivers/System/GPIO/include\gpio.h ****  * @enum gpio_safeval_t
 251:C:/StellarStudio-7.1/SDKS/StellarESDK-1.8.0/Modules/Drivers/System/GPIO/include\gpio.h ****  * GPIO Safe IO Selection value type.
 252:C:/StellarStudio-7.1/SDKS/StellarESDK-1.8.0/Modules/Drivers/System/GPIO/include\gpio.h ****  */
 253:C:/StellarStudio-7.1/SDKS/StellarESDK-1.8.0/Modules/Drivers/System/GPIO/include\gpio.h **** typedef enum {
 254:C:/StellarStudio-7.1/SDKS/StellarESDK-1.8.0/Modules/Drivers/System/GPIO/include\gpio.h ****     GPIO_SAFEVAL_LOW,        /**< GPIO Safe IO Selection Low  */
 255:C:/StellarStudio-7.1/SDKS/StellarESDK-1.8.0/Modules/Drivers/System/GPIO/include\gpio.h ****     GPIO_SAFEVAL_HIGH        /**< GPIO Safe IO Selection High */
 256:C:/StellarStudio-7.1/SDKS/StellarESDK-1.8.0/Modules/Drivers/System/GPIO/include\gpio.h **** } gpio_safeval_t;
 257:C:/StellarStudio-7.1/SDKS/StellarESDK-1.8.0/Modules/Drivers/System/GPIO/include\gpio.h **** 
 258:C:/StellarStudio-7.1/SDKS/StellarESDK-1.8.0/Modules/Drivers/System/GPIO/include\gpio.h **** /*===========================================================================*/
 259:C:/StellarStudio-7.1/SDKS/StellarESDK-1.8.0/Modules/Drivers/System/GPIO/include\gpio.h **** /* Module macros.                                                            */
 260:C:/StellarStudio-7.1/SDKS/StellarESDK-1.8.0/Modules/Drivers/System/GPIO/include\gpio.h **** /*===========================================================================*/
 261:C:/StellarStudio-7.1/SDKS/StellarESDK-1.8.0/Modules/Drivers/System/GPIO/include\gpio.h **** 
 262:C:/StellarStudio-7.1/SDKS/StellarESDK-1.8.0/Modules/Drivers/System/GPIO/include\gpio.h **** /**
 263:C:/StellarStudio-7.1/SDKS/StellarESDK-1.8.0/Modules/Drivers/System/GPIO/include\gpio.h ****  * @brief   Packs unique pin identifier.
 264:C:/StellarStudio-7.1/SDKS/StellarESDK-1.8.0/Modules/Drivers/System/GPIO/include\gpio.h ****  * @note    The low nibble contains the pin number, the high nibble the port
 265:C:/StellarStudio-7.1/SDKS/StellarESDK-1.8.0/Modules/Drivers/System/GPIO/include\gpio.h ****  *          number.
 266:C:/StellarStudio-7.1/SDKS/StellarESDK-1.8.0/Modules/Drivers/System/GPIO/include\gpio.h ****  *
 267:C:/StellarStudio-7.1/SDKS/StellarESDK-1.8.0/Modules/Drivers/System/GPIO/include\gpio.h ****  * @param[in] port      port number; it can be one of the following values:
 268:C:/StellarStudio-7.1/SDKS/StellarESDK-1.8.0/Modules/Drivers/System/GPIO/include\gpio.h ****  *            @arg @ref GPIO_PORT_A
 269:C:/StellarStudio-7.1/SDKS/StellarESDK-1.8.0/Modules/Drivers/System/GPIO/include\gpio.h ****  *            @arg @ref GPIO_PORT_B
 270:C:/StellarStudio-7.1/SDKS/StellarESDK-1.8.0/Modules/Drivers/System/GPIO/include\gpio.h ****  *            @arg @ref GPIO_PORT_C
 271:C:/StellarStudio-7.1/SDKS/StellarESDK-1.8.0/Modules/Drivers/System/GPIO/include\gpio.h ****  *            @arg @ref GPIO_PORT_D
 272:C:/StellarStudio-7.1/SDKS/StellarESDK-1.8.0/Modules/Drivers/System/GPIO/include\gpio.h ****  *            @arg @ref GPIO_PORT_E
 273:C:/StellarStudio-7.1/SDKS/StellarESDK-1.8.0/Modules/Drivers/System/GPIO/include\gpio.h ****  *            @arg @ref GPIO_PORT_F
 274:C:/StellarStudio-7.1/SDKS/StellarESDK-1.8.0/Modules/Drivers/System/GPIO/include\gpio.h ****  *            @arg @ref GPIO_PORT_G
 275:C:/StellarStudio-7.1/SDKS/StellarESDK-1.8.0/Modules/Drivers/System/GPIO/include\gpio.h ****  *            @arg @ref GPIO_PORT_H
 276:C:/StellarStudio-7.1/SDKS/StellarESDK-1.8.0/Modules/Drivers/System/GPIO/include\gpio.h ****  *            @arg @ref GPIO_PORT_I
 277:C:/StellarStudio-7.1/SDKS/StellarESDK-1.8.0/Modules/Drivers/System/GPIO/include\gpio.h ****  *            @arg @ref GPIO_PORT_J
 278:C:/StellarStudio-7.1/SDKS/StellarESDK-1.8.0/Modules/Drivers/System/GPIO/include\gpio.h ****  *            @arg @ref GPIO_PORT_K
 279:C:/StellarStudio-7.1/SDKS/StellarESDK-1.8.0/Modules/Drivers/System/GPIO/include\gpio.h ****  *            @arg @ref GPIO_PORT_L
 280:C:/StellarStudio-7.1/SDKS/StellarESDK-1.8.0/Modules/Drivers/System/GPIO/include\gpio.h ****  *            @arg @ref GPIO_PORT_M
 281:C:/StellarStudio-7.1/SDKS/StellarESDK-1.8.0/Modules/Drivers/System/GPIO/include\gpio.h ****  *            @arg @ref GPIO_PORT_N
 282:C:/StellarStudio-7.1/SDKS/StellarESDK-1.8.0/Modules/Drivers/System/GPIO/include\gpio.h ****  *            @arg @ref GPIO_PORT_Q
 283:C:/StellarStudio-7.1/SDKS/StellarESDK-1.8.0/Modules/Drivers/System/GPIO/include\gpio.h ****  *            @arg @ref GPIO_PORT_R
 284:C:/StellarStudio-7.1/SDKS/StellarESDK-1.8.0/Modules/Drivers/System/GPIO/include\gpio.h ****  *            @arg @ref GPIO_PORT_S
 285:C:/StellarStudio-7.1/SDKS/StellarESDK-1.8.0/Modules/Drivers/System/GPIO/include\gpio.h ****  *            @arg @ref GPIO_PORT_T
 286:C:/StellarStudio-7.1/SDKS/StellarESDK-1.8.0/Modules/Drivers/System/GPIO/include\gpio.h ****  *            @arg @ref GPIO_PORT_V
 287:C:/StellarStudio-7.1/SDKS/StellarESDK-1.8.0/Modules/Drivers/System/GPIO/include\gpio.h ****  *            @arg @ref GPIO_PORT_W
 288:C:/StellarStudio-7.1/SDKS/StellarESDK-1.8.0/Modules/Drivers/System/GPIO/include\gpio.h ****  *            @arg @ref GPIO_PORT_X
 289:C:/StellarStudio-7.1/SDKS/StellarESDK-1.8.0/Modules/Drivers/System/GPIO/include\gpio.h ****  *            @arg @ref GPIO_PORT_Y
 290:C:/StellarStudio-7.1/SDKS/StellarESDK-1.8.0/Modules/Drivers/System/GPIO/include\gpio.h ****  * @param[in] pin       pin number; it can be one of the following values:
 291:C:/StellarStudio-7.1/SDKS/StellarESDK-1.8.0/Modules/Drivers/System/GPIO/include\gpio.h ****  *            @arg @ref GPIO_PIN_0
 292:C:/StellarStudio-7.1/SDKS/StellarESDK-1.8.0/Modules/Drivers/System/GPIO/include\gpio.h ****  *            @arg @ref GPIO_PIN_1
 293:C:/StellarStudio-7.1/SDKS/StellarESDK-1.8.0/Modules/Drivers/System/GPIO/include\gpio.h ****  *            @arg @ref GPIO_PIN_2
 294:C:/StellarStudio-7.1/SDKS/StellarESDK-1.8.0/Modules/Drivers/System/GPIO/include\gpio.h ****  *            @arg @ref GPIO_PIN_3
 295:C:/StellarStudio-7.1/SDKS/StellarESDK-1.8.0/Modules/Drivers/System/GPIO/include\gpio.h ****  *            @arg @ref GPIO_PIN_4
 296:C:/StellarStudio-7.1/SDKS/StellarESDK-1.8.0/Modules/Drivers/System/GPIO/include\gpio.h ****  *            @arg @ref GPIO_PIN_5
 297:C:/StellarStudio-7.1/SDKS/StellarESDK-1.8.0/Modules/Drivers/System/GPIO/include\gpio.h ****  *            @arg @ref GPIO_PIN_6
 298:C:/StellarStudio-7.1/SDKS/StellarESDK-1.8.0/Modules/Drivers/System/GPIO/include\gpio.h ****  *            @arg @ref GPIO_PIN_7
 299:C:/StellarStudio-7.1/SDKS/StellarESDK-1.8.0/Modules/Drivers/System/GPIO/include\gpio.h ****  *            @arg @ref GPIO_PIN_8
 300:C:/StellarStudio-7.1/SDKS/StellarESDK-1.8.0/Modules/Drivers/System/GPIO/include\gpio.h ****  *            @arg @ref GPIO_PIN_9
 301:C:/StellarStudio-7.1/SDKS/StellarESDK-1.8.0/Modules/Drivers/System/GPIO/include\gpio.h ****  *            @arg @ref GPIO_PIN_10
 302:C:/StellarStudio-7.1/SDKS/StellarESDK-1.8.0/Modules/Drivers/System/GPIO/include\gpio.h ****  *            @arg @ref GPIO_PIN_11
 303:C:/StellarStudio-7.1/SDKS/StellarESDK-1.8.0/Modules/Drivers/System/GPIO/include\gpio.h ****  *            @arg @ref GPIO_PIN_12
 304:C:/StellarStudio-7.1/SDKS/StellarESDK-1.8.0/Modules/Drivers/System/GPIO/include\gpio.h ****  *            @arg @ref GPIO_PIN_13
 305:C:/StellarStudio-7.1/SDKS/StellarESDK-1.8.0/Modules/Drivers/System/GPIO/include\gpio.h ****  *            @arg @ref GPIO_PIN_14
 306:C:/StellarStudio-7.1/SDKS/StellarESDK-1.8.0/Modules/Drivers/System/GPIO/include\gpio.h ****  *            @arg @ref GPIO_PIN_15
 307:C:/StellarStudio-7.1/SDKS/StellarESDK-1.8.0/Modules/Drivers/System/GPIO/include\gpio.h ****  * @return              unique pin identifier
 308:C:/StellarStudio-7.1/SDKS/StellarESDK-1.8.0/Modules/Drivers/System/GPIO/include\gpio.h ****  *
 309:C:/StellarStudio-7.1/SDKS/StellarESDK-1.8.0/Modules/Drivers/System/GPIO/include\gpio.h ****  * @api
 310:C:/StellarStudio-7.1/SDKS/StellarESDK-1.8.0/Modules/Drivers/System/GPIO/include\gpio.h ****  */
 311:C:/StellarStudio-7.1/SDKS/StellarESDK-1.8.0/Modules/Drivers/System/GPIO/include\gpio.h **** #define gpio_iopack(_port_, _pin_)                                             \
 312:C:/StellarStudio-7.1/SDKS/StellarESDK-1.8.0/Modules/Drivers/System/GPIO/include\gpio.h ****     ((gpio_io_t)((((uint32_t)(_port_)) << 4U) | (((uint32_t)(_pin_)) & 0x0FU)))
 313:C:/StellarStudio-7.1/SDKS/StellarESDK-1.8.0/Modules/Drivers/System/GPIO/include\gpio.h **** 
 314:C:/StellarStudio-7.1/SDKS/StellarESDK-1.8.0/Modules/Drivers/System/GPIO/include\gpio.h **** /**
 315:C:/StellarStudio-7.1/SDKS/StellarESDK-1.8.0/Modules/Drivers/System/GPIO/include\gpio.h ****  * @brief   Unpacks unique pin identifier.
 316:C:/StellarStudio-7.1/SDKS/StellarESDK-1.8.0/Modules/Drivers/System/GPIO/include\gpio.h ****  * @note    Returns port number related to the unique pin identifier.
 317:C:/StellarStudio-7.1/SDKS/StellarESDK-1.8.0/Modules/Drivers/System/GPIO/include\gpio.h ****  *
 318:C:/StellarStudio-7.1/SDKS/StellarESDK-1.8.0/Modules/Drivers/System/GPIO/include\gpio.h ****  * @param[in]           unique pin identifier
 319:C:/StellarStudio-7.1/SDKS/StellarESDK-1.8.0/Modules/Drivers/System/GPIO/include\gpio.h ****  * @return              port number; it can be one of the following values:
 320:C:/StellarStudio-7.1/SDKS/StellarESDK-1.8.0/Modules/Drivers/System/GPIO/include\gpio.h ****  *            @arg @ref GPIO_PORT_A
 321:C:/StellarStudio-7.1/SDKS/StellarESDK-1.8.0/Modules/Drivers/System/GPIO/include\gpio.h ****  *            @arg @ref GPIO_PORT_B
 322:C:/StellarStudio-7.1/SDKS/StellarESDK-1.8.0/Modules/Drivers/System/GPIO/include\gpio.h ****  *            @arg @ref GPIO_PORT_C
 323:C:/StellarStudio-7.1/SDKS/StellarESDK-1.8.0/Modules/Drivers/System/GPIO/include\gpio.h ****  *            @arg @ref GPIO_PORT_D
 324:C:/StellarStudio-7.1/SDKS/StellarESDK-1.8.0/Modules/Drivers/System/GPIO/include\gpio.h ****  *            @arg @ref GPIO_PORT_E
 325:C:/StellarStudio-7.1/SDKS/StellarESDK-1.8.0/Modules/Drivers/System/GPIO/include\gpio.h ****  *            @arg @ref GPIO_PORT_F
 326:C:/StellarStudio-7.1/SDKS/StellarESDK-1.8.0/Modules/Drivers/System/GPIO/include\gpio.h ****  *            @arg @ref GPIO_PORT_G
 327:C:/StellarStudio-7.1/SDKS/StellarESDK-1.8.0/Modules/Drivers/System/GPIO/include\gpio.h ****  *            @arg @ref GPIO_PORT_H
 328:C:/StellarStudio-7.1/SDKS/StellarESDK-1.8.0/Modules/Drivers/System/GPIO/include\gpio.h ****  *            @arg @ref GPIO_PORT_I
 329:C:/StellarStudio-7.1/SDKS/StellarESDK-1.8.0/Modules/Drivers/System/GPIO/include\gpio.h ****  *            @arg @ref GPIO_PORT_J
 330:C:/StellarStudio-7.1/SDKS/StellarESDK-1.8.0/Modules/Drivers/System/GPIO/include\gpio.h ****  *            @arg @ref GPIO_PORT_K
 331:C:/StellarStudio-7.1/SDKS/StellarESDK-1.8.0/Modules/Drivers/System/GPIO/include\gpio.h ****  *            @arg @ref GPIO_PORT_L
 332:C:/StellarStudio-7.1/SDKS/StellarESDK-1.8.0/Modules/Drivers/System/GPIO/include\gpio.h ****  *            @arg @ref GPIO_PORT_M
 333:C:/StellarStudio-7.1/SDKS/StellarESDK-1.8.0/Modules/Drivers/System/GPIO/include\gpio.h ****  *            @arg @ref GPIO_PORT_N
 334:C:/StellarStudio-7.1/SDKS/StellarESDK-1.8.0/Modules/Drivers/System/GPIO/include\gpio.h ****  *            @arg @ref GPIO_PORT_Q
 335:C:/StellarStudio-7.1/SDKS/StellarESDK-1.8.0/Modules/Drivers/System/GPIO/include\gpio.h ****  *            @arg @ref GPIO_PORT_R
 336:C:/StellarStudio-7.1/SDKS/StellarESDK-1.8.0/Modules/Drivers/System/GPIO/include\gpio.h ****  *            @arg @ref GPIO_PORT_S
 337:C:/StellarStudio-7.1/SDKS/StellarESDK-1.8.0/Modules/Drivers/System/GPIO/include\gpio.h ****  *            @arg @ref GPIO_PORT_T
 338:C:/StellarStudio-7.1/SDKS/StellarESDK-1.8.0/Modules/Drivers/System/GPIO/include\gpio.h ****  *            @arg @ref GPIO_PORT_V
 339:C:/StellarStudio-7.1/SDKS/StellarESDK-1.8.0/Modules/Drivers/System/GPIO/include\gpio.h ****  *            @arg @ref GPIO_PORT_W
 340:C:/StellarStudio-7.1/SDKS/StellarESDK-1.8.0/Modules/Drivers/System/GPIO/include\gpio.h ****  *            @arg @ref GPIO_PORT_X
 341:C:/StellarStudio-7.1/SDKS/StellarESDK-1.8.0/Modules/Drivers/System/GPIO/include\gpio.h ****  *            @arg @ref GPIO_PORT_Y
 342:C:/StellarStudio-7.1/SDKS/StellarESDK-1.8.0/Modules/Drivers/System/GPIO/include\gpio.h ****  *
 343:C:/StellarStudio-7.1/SDKS/StellarESDK-1.8.0/Modules/Drivers/System/GPIO/include\gpio.h ****  * @api
 344:C:/StellarStudio-7.1/SDKS/StellarESDK-1.8.0/Modules/Drivers/System/GPIO/include\gpio.h ****  */
 345:C:/StellarStudio-7.1/SDKS/StellarESDK-1.8.0/Modules/Drivers/System/GPIO/include\gpio.h **** #define gpio_iounpack_port(_io_)                                               \
 346:C:/StellarStudio-7.1/SDKS/StellarESDK-1.8.0/Modules/Drivers/System/GPIO/include\gpio.h ****     ((gpio_port_t)(((uint32_t)(_io_)) >> 4U))
 347:C:/StellarStudio-7.1/SDKS/StellarESDK-1.8.0/Modules/Drivers/System/GPIO/include\gpio.h **** 
 348:C:/StellarStudio-7.1/SDKS/StellarESDK-1.8.0/Modules/Drivers/System/GPIO/include\gpio.h **** /**
 349:C:/StellarStudio-7.1/SDKS/StellarESDK-1.8.0/Modules/Drivers/System/GPIO/include\gpio.h ****  * @brief   Unpacks unique pin identifier.
 350:C:/StellarStudio-7.1/SDKS/StellarESDK-1.8.0/Modules/Drivers/System/GPIO/include\gpio.h ****  * @note    Returns pin number related to the unique pin identifier.
 351:C:/StellarStudio-7.1/SDKS/StellarESDK-1.8.0/Modules/Drivers/System/GPIO/include\gpio.h ****  *
 352:C:/StellarStudio-7.1/SDKS/StellarESDK-1.8.0/Modules/Drivers/System/GPIO/include\gpio.h ****  * @param[in]           unique pin identifier
 353:C:/StellarStudio-7.1/SDKS/StellarESDK-1.8.0/Modules/Drivers/System/GPIO/include\gpio.h ****  * @return              pin number; it can be one of the following values:
 354:C:/StellarStudio-7.1/SDKS/StellarESDK-1.8.0/Modules/Drivers/System/GPIO/include\gpio.h ****  *            @arg @ref GPIO_PIN_0
 355:C:/StellarStudio-7.1/SDKS/StellarESDK-1.8.0/Modules/Drivers/System/GPIO/include\gpio.h ****  *            @arg @ref GPIO_PIN_1
 356:C:/StellarStudio-7.1/SDKS/StellarESDK-1.8.0/Modules/Drivers/System/GPIO/include\gpio.h ****  *            @arg @ref GPIO_PIN_2
 357:C:/StellarStudio-7.1/SDKS/StellarESDK-1.8.0/Modules/Drivers/System/GPIO/include\gpio.h ****  *            @arg @ref GPIO_PIN_3
 358:C:/StellarStudio-7.1/SDKS/StellarESDK-1.8.0/Modules/Drivers/System/GPIO/include\gpio.h ****  *            @arg @ref GPIO_PIN_4
 359:C:/StellarStudio-7.1/SDKS/StellarESDK-1.8.0/Modules/Drivers/System/GPIO/include\gpio.h ****  *            @arg @ref GPIO_PIN_5
 360:C:/StellarStudio-7.1/SDKS/StellarESDK-1.8.0/Modules/Drivers/System/GPIO/include\gpio.h ****  *            @arg @ref GPIO_PIN_6
 361:C:/StellarStudio-7.1/SDKS/StellarESDK-1.8.0/Modules/Drivers/System/GPIO/include\gpio.h ****  *            @arg @ref GPIO_PIN_7
 362:C:/StellarStudio-7.1/SDKS/StellarESDK-1.8.0/Modules/Drivers/System/GPIO/include\gpio.h ****  *            @arg @ref GPIO_PIN_8
 363:C:/StellarStudio-7.1/SDKS/StellarESDK-1.8.0/Modules/Drivers/System/GPIO/include\gpio.h ****  *            @arg @ref GPIO_PIN_9
 364:C:/StellarStudio-7.1/SDKS/StellarESDK-1.8.0/Modules/Drivers/System/GPIO/include\gpio.h ****  *            @arg @ref GPIO_PIN_10
 365:C:/StellarStudio-7.1/SDKS/StellarESDK-1.8.0/Modules/Drivers/System/GPIO/include\gpio.h ****  *            @arg @ref GPIO_PIN_11
 366:C:/StellarStudio-7.1/SDKS/StellarESDK-1.8.0/Modules/Drivers/System/GPIO/include\gpio.h ****  *            @arg @ref GPIO_PIN_12
 367:C:/StellarStudio-7.1/SDKS/StellarESDK-1.8.0/Modules/Drivers/System/GPIO/include\gpio.h ****  *            @arg @ref GPIO_PIN_13
 368:C:/StellarStudio-7.1/SDKS/StellarESDK-1.8.0/Modules/Drivers/System/GPIO/include\gpio.h ****  *            @arg @ref GPIO_PIN_14
 369:C:/StellarStudio-7.1/SDKS/StellarESDK-1.8.0/Modules/Drivers/System/GPIO/include\gpio.h ****  *            @arg @ref GPIO_PIN_15
 370:C:/StellarStudio-7.1/SDKS/StellarESDK-1.8.0/Modules/Drivers/System/GPIO/include\gpio.h ****  *
 371:C:/StellarStudio-7.1/SDKS/StellarESDK-1.8.0/Modules/Drivers/System/GPIO/include\gpio.h ****  * @api
 372:C:/StellarStudio-7.1/SDKS/StellarESDK-1.8.0/Modules/Drivers/System/GPIO/include\gpio.h ****  */
 373:C:/StellarStudio-7.1/SDKS/StellarESDK-1.8.0/Modules/Drivers/System/GPIO/include\gpio.h **** #define gpio_iounpack_pin(_io_)                                                \
 374:C:/StellarStudio-7.1/SDKS/StellarESDK-1.8.0/Modules/Drivers/System/GPIO/include\gpio.h ****     ((gpio_pin_t)(((uint32_t)(_io_)) & 0x0FU));
 375:C:/StellarStudio-7.1/SDKS/StellarESDK-1.8.0/Modules/Drivers/System/GPIO/include\gpio.h **** 
 376:C:/StellarStudio-7.1/SDKS/StellarESDK-1.8.0/Modules/Drivers/System/GPIO/include\gpio.h **** /*===========================================================================*/
 377:C:/StellarStudio-7.1/SDKS/StellarESDK-1.8.0/Modules/Drivers/System/GPIO/include\gpio.h **** /* External declarations.                                                    */
 378:C:/StellarStudio-7.1/SDKS/StellarESDK-1.8.0/Modules/Drivers/System/GPIO/include\gpio.h **** /*===========================================================================*/
 379:C:/StellarStudio-7.1/SDKS/StellarESDK-1.8.0/Modules/Drivers/System/GPIO/include\gpio.h **** 
 380:C:/StellarStudio-7.1/SDKS/StellarESDK-1.8.0/Modules/Drivers/System/GPIO/include\gpio.h **** /* Export driver modules.*/
 381:C:/StellarStudio-7.1/SDKS/StellarESDK-1.8.0/Modules/Drivers/System/GPIO/include\gpio.h **** #include <gpio_dev.h>
 382:C:/StellarStudio-7.1/SDKS/StellarESDK-1.8.0/Modules/Drivers/System/GPIO/include\gpio.h **** 
 383:C:/StellarStudio-7.1/SDKS/StellarESDK-1.8.0/Modules/Drivers/System/GPIO/include\gpio.h **** #ifdef __cplusplus
 384:C:/StellarStudio-7.1/SDKS/StellarESDK-1.8.0/Modules/Drivers/System/GPIO/include\gpio.h **** extern "C" {
 385:C:/StellarStudio-7.1/SDKS/StellarESDK-1.8.0/Modules/Drivers/System/GPIO/include\gpio.h **** #endif
 386:C:/StellarStudio-7.1/SDKS/StellarESDK-1.8.0/Modules/Drivers/System/GPIO/include\gpio.h **** 
 387:C:/StellarStudio-7.1/SDKS/StellarESDK-1.8.0/Modules/Drivers/System/GPIO/include\gpio.h **** /**
 388:C:/StellarStudio-7.1/SDKS/StellarESDK-1.8.0/Modules/Drivers/System/GPIO/include\gpio.h ****  * @brief   Initializes GPIO instances.
 389:C:/StellarStudio-7.1/SDKS/StellarESDK-1.8.0/Modules/Drivers/System/GPIO/include\gpio.h ****  *
 390:C:/StellarStudio-7.1/SDKS/StellarESDK-1.8.0/Modules/Drivers/System/GPIO/include\gpio.h ****  * @api
 391:C:/StellarStudio-7.1/SDKS/StellarESDK-1.8.0/Modules/Drivers/System/GPIO/include\gpio.h ****  */
 392:C:/StellarStudio-7.1/SDKS/StellarESDK-1.8.0/Modules/Drivers/System/GPIO/include\gpio.h **** void gpio_init(void);
 393:C:/StellarStudio-7.1/SDKS/StellarESDK-1.8.0/Modules/Drivers/System/GPIO/include\gpio.h **** 
 394:C:/StellarStudio-7.1/SDKS/StellarESDK-1.8.0/Modules/Drivers/System/GPIO/include\gpio.h **** /*===========================================================================*/
 395:C:/StellarStudio-7.1/SDKS/StellarESDK-1.8.0/Modules/Drivers/System/GPIO/include\gpio.h **** /* Module inline functions.                                                  */
 396:C:/StellarStudio-7.1/SDKS/StellarESDK-1.8.0/Modules/Drivers/System/GPIO/include\gpio.h **** /*===========================================================================*/
 397:C:/StellarStudio-7.1/SDKS/StellarESDK-1.8.0/Modules/Drivers/System/GPIO/include\gpio.h **** 
 398:C:/StellarStudio-7.1/SDKS/StellarESDK-1.8.0/Modules/Drivers/System/GPIO/include\gpio.h **** /**
 399:C:/StellarStudio-7.1/SDKS/StellarESDK-1.8.0/Modules/Drivers/System/GPIO/include\gpio.h ****  * @brief   Sets Mode Register pin value.
 400:C:/StellarStudio-7.1/SDKS/StellarESDK-1.8.0/Modules/Drivers/System/GPIO/include\gpio.h ****  * @note    Sets Mode value of the pin related to the unique pin identifier.
 401:C:/StellarStudio-7.1/SDKS/StellarESDK-1.8.0/Modules/Drivers/System/GPIO/include\gpio.h ****  *
 402:C:/StellarStudio-7.1/SDKS/StellarESDK-1.8.0/Modules/Drivers/System/GPIO/include\gpio.h ****  * @param[in] io        unique pin identifier
 403:C:/StellarStudio-7.1/SDKS/StellarESDK-1.8.0/Modules/Drivers/System/GPIO/include\gpio.h ****  * @param[in] mode      mode value; it can be one of the following values:
 404:C:/StellarStudio-7.1/SDKS/StellarESDK-1.8.0/Modules/Drivers/System/GPIO/include\gpio.h ****  *            @arg @ref GPIO_MODER_INPUT
 405:C:/StellarStudio-7.1/SDKS/StellarESDK-1.8.0/Modules/Drivers/System/GPIO/include\gpio.h ****  *            @arg @ref GPIO_MODER_OUTPUT
 406:C:/StellarStudio-7.1/SDKS/StellarESDK-1.8.0/Modules/Drivers/System/GPIO/include\gpio.h ****  *            @arg @ref GPIO_MODER_ALTERNATE
 407:C:/StellarStudio-7.1/SDKS/StellarESDK-1.8.0/Modules/Drivers/System/GPIO/include\gpio.h ****  *            @arg @ref GPIO_MODER_ANALOG
 408:C:/StellarStudio-7.1/SDKS/StellarESDK-1.8.0/Modules/Drivers/System/GPIO/include\gpio.h ****  *
 409:C:/StellarStudio-7.1/SDKS/StellarESDK-1.8.0/Modules/Drivers/System/GPIO/include\gpio.h ****  * @api
 410:C:/StellarStudio-7.1/SDKS/StellarESDK-1.8.0/Modules/Drivers/System/GPIO/include\gpio.h ****  */
 411:C:/StellarStudio-7.1/SDKS/StellarESDK-1.8.0/Modules/Drivers/System/GPIO/include\gpio.h **** __STATIC_INLINE void gpio_set_pin_moder(gpio_io_t io,
 412:C:/StellarStudio-7.1/SDKS/StellarESDK-1.8.0/Modules/Drivers/System/GPIO/include\gpio.h ****                                         gpio_mode_t mode) {
  28              		.loc 1 412 59
  29              		.cfi_startproc
  30              		@ args = 0, pretend = 0, frame = 16
  31              		@ frame_needed = 0, uses_anonymous_args = 0
  32 0000 00B5     		push	{lr}
  33              		.cfi_def_cfa_offset 4
  34              		.cfi_offset 14, -4
  35 0002 85B0     		sub	sp, sp, #20
  36              		.cfi_def_cfa_offset 24
  37 0004 0346     		mov	r3, r0
  38 0006 0A46     		mov	r2, r1
  39 0008 ADF80630 		strh	r3, [sp, #6]	@ movhi
  40 000c 1346     		mov	r3, r2
  41 000e 8DF80530 		strb	r3, [sp, #5]
 413:C:/StellarStudio-7.1/SDKS/StellarESDK-1.8.0/Modules/Drivers/System/GPIO/include\gpio.h **** 
 414:C:/StellarStudio-7.1/SDKS/StellarESDK-1.8.0/Modules/Drivers/System/GPIO/include\gpio.h **** 
 415:C:/StellarStudio-7.1/SDKS/StellarESDK-1.8.0/Modules/Drivers/System/GPIO/include\gpio.h ****     gpio_port_t port = gpio_iounpack_port(io);
  42              		.loc 1 415 24
  43 0012 BDF80630 		ldrh	r3, [sp, #6]
  44 0016 1B09     		lsrs	r3, r3, #4
  45 0018 9BB2     		uxth	r3, r3
  46              		.loc 1 415 17
  47 001a 8DF80F30 		strb	r3, [sp, #15]
 416:C:/StellarStudio-7.1/SDKS/StellarESDK-1.8.0/Modules/Drivers/System/GPIO/include\gpio.h ****     gpio_pin_t pin   = gpio_iounpack_pin(io);
  48              		.loc 1 416 24
  49 001e BDF80630 		ldrh	r3, [sp, #6]	@ movhi
  50 0022 DBB2     		uxtb	r3, r3
  51              		.loc 1 416 16
  52 0024 03F00F03 		and	r3, r3, #15
  53 0028 8DF80E30 		strb	r3, [sp, #14]
 417:C:/StellarStudio-7.1/SDKS/StellarESDK-1.8.0/Modules/Drivers/System/GPIO/include\gpio.h ****     GPIO_TypeDef *p  = gpio_dev_get_port_reg_ptr(port);
  54              		.loc 1 417 24
  55 002c 9DF80F30 		ldrb	r3, [sp, #15]	@ zero_extendqisi2
  56 0030 1846     		mov	r0, r3
  57 0032 FFF7FEFF 		bl	gpio_dev_get_port_reg_ptr
  58 0036 0290     		str	r0, [sp, #8]
 418:C:/StellarStudio-7.1/SDKS/StellarESDK-1.8.0/Modules/Drivers/System/GPIO/include\gpio.h **** 
 419:C:/StellarStudio-7.1/SDKS/StellarESDK-1.8.0/Modules/Drivers/System/GPIO/include\gpio.h ****     if (p != NULL) {
  59              		.loc 1 419 8
  60 0038 029B     		ldr	r3, [sp, #8]
  61 003a 002B     		cmp	r3, #0
  62 003c 14D0     		beq	.L3
 420:C:/StellarStudio-7.1/SDKS/StellarESDK-1.8.0/Modules/Drivers/System/GPIO/include\gpio.h ****         REG_SET_FIELD_POS(p->MODER, 0x3U, (2 * pin), mode);
  63              		.loc 1 420 9
  64 003e 029B     		ldr	r3, [sp, #8]
  65 0040 1A68     		ldr	r2, [r3]
  66 0042 9DF80E30 		ldrb	r3, [sp, #14]	@ zero_extendqisi2
  67 0046 5B00     		lsls	r3, r3, #1
  68 0048 1946     		mov	r1, r3
  69 004a 0323     		movs	r3, #3
  70 004c 8B40     		lsls	r3, r3, r1
  71 004e DB43     		mvns	r3, r3
  72 0050 1A40     		ands	r2, r2, r3
  73 0052 9DF80530 		ldrb	r3, [sp, #5]	@ zero_extendqisi2
  74 0056 03F00303 		and	r3, r3, #3
  75 005a 9DF80E10 		ldrb	r1, [sp, #14]	@ zero_extendqisi2
  76 005e 4900     		lsls	r1, r1, #1
  77 0060 8B40     		lsls	r3, r3, r1
  78 0062 1A43     		orrs	r2, r2, r3
  79 0064 029B     		ldr	r3, [sp, #8]
  80 0066 1A60     		str	r2, [r3]
  81              	.L3:
 421:C:/StellarStudio-7.1/SDKS/StellarESDK-1.8.0/Modules/Drivers/System/GPIO/include\gpio.h ****     }
 422:C:/StellarStudio-7.1/SDKS/StellarESDK-1.8.0/Modules/Drivers/System/GPIO/include\gpio.h **** }
  82              		.loc 1 422 1
  83 0068 00BF     		nop
  84 006a 05B0     		add	sp, sp, #20
  85              		.cfi_def_cfa_offset 4
  86              		@ sp needed
  87 006c 5DF804FB 		ldr	pc, [sp], #4
  88              		.cfi_endproc
  89              	.LFE436:
  91              		.section	.text.gpio_set_pin_otyper,"ax",%progbits
  92              		.align	1
  93              		.p2align 4,,15
  94              		.syntax unified
  95              		.thumb
  96              		.thumb_func
  98              	gpio_set_pin_otyper:
  99              	.LFB437:
 423:C:/StellarStudio-7.1/SDKS/StellarESDK-1.8.0/Modules/Drivers/System/GPIO/include\gpio.h **** 
 424:C:/StellarStudio-7.1/SDKS/StellarESDK-1.8.0/Modules/Drivers/System/GPIO/include\gpio.h **** /**
 425:C:/StellarStudio-7.1/SDKS/StellarESDK-1.8.0/Modules/Drivers/System/GPIO/include\gpio.h ****  * @brief   Sets Output Type pin value.
 426:C:/StellarStudio-7.1/SDKS/StellarESDK-1.8.0/Modules/Drivers/System/GPIO/include\gpio.h ****  * @note    Sets Output Type value of the pin related to the unique pin
 427:C:/StellarStudio-7.1/SDKS/StellarESDK-1.8.0/Modules/Drivers/System/GPIO/include\gpio.h ****  *          identifier.
 428:C:/StellarStudio-7.1/SDKS/StellarESDK-1.8.0/Modules/Drivers/System/GPIO/include\gpio.h ****  *
 429:C:/StellarStudio-7.1/SDKS/StellarESDK-1.8.0/Modules/Drivers/System/GPIO/include\gpio.h ****  * @param[in] io        unique pin identifier
 430:C:/StellarStudio-7.1/SDKS/StellarESDK-1.8.0/Modules/Drivers/System/GPIO/include\gpio.h ****  * @param[in] otype     output type value; it can be one of the following
 431:C:/StellarStudio-7.1/SDKS/StellarESDK-1.8.0/Modules/Drivers/System/GPIO/include\gpio.h ****  *                      values:
 432:C:/StellarStudio-7.1/SDKS/StellarESDK-1.8.0/Modules/Drivers/System/GPIO/include\gpio.h ****  *            @arg @ref GPIO_OTYPER_PUSHPULL
 433:C:/StellarStudio-7.1/SDKS/StellarESDK-1.8.0/Modules/Drivers/System/GPIO/include\gpio.h ****  *            @arg @ref GPIO_OTYPER_OPENDRAIN
 434:C:/StellarStudio-7.1/SDKS/StellarESDK-1.8.0/Modules/Drivers/System/GPIO/include\gpio.h ****  *
 435:C:/StellarStudio-7.1/SDKS/StellarESDK-1.8.0/Modules/Drivers/System/GPIO/include\gpio.h ****  * @api
 436:C:/StellarStudio-7.1/SDKS/StellarESDK-1.8.0/Modules/Drivers/System/GPIO/include\gpio.h ****  */
 437:C:/StellarStudio-7.1/SDKS/StellarESDK-1.8.0/Modules/Drivers/System/GPIO/include\gpio.h **** __STATIC_INLINE void gpio_set_pin_otyper(gpio_io_t io,
 438:C:/StellarStudio-7.1/SDKS/StellarESDK-1.8.0/Modules/Drivers/System/GPIO/include\gpio.h ****                                          gpio_otype_t otype) {
 100              		.loc 1 438 62
 101              		.cfi_startproc
 102              		@ args = 0, pretend = 0, frame = 16
 103              		@ frame_needed = 0, uses_anonymous_args = 0
 104 0000 00B5     		push	{lr}
 105              		.cfi_def_cfa_offset 4
 106              		.cfi_offset 14, -4
 107 0002 85B0     		sub	sp, sp, #20
 108              		.cfi_def_cfa_offset 24
 109 0004 0346     		mov	r3, r0
 110 0006 0A46     		mov	r2, r1
 111 0008 ADF80630 		strh	r3, [sp, #6]	@ movhi
 112 000c 1346     		mov	r3, r2
 113 000e 8DF80530 		strb	r3, [sp, #5]
 439:C:/StellarStudio-7.1/SDKS/StellarESDK-1.8.0/Modules/Drivers/System/GPIO/include\gpio.h **** 
 440:C:/StellarStudio-7.1/SDKS/StellarESDK-1.8.0/Modules/Drivers/System/GPIO/include\gpio.h ****     gpio_port_t port = gpio_iounpack_port(io);
 114              		.loc 1 440 24
 115 0012 BDF80630 		ldrh	r3, [sp, #6]
 116 0016 1B09     		lsrs	r3, r3, #4
 117 0018 9BB2     		uxth	r3, r3
 118              		.loc 1 440 17
 119 001a 8DF80F30 		strb	r3, [sp, #15]
 441:C:/StellarStudio-7.1/SDKS/StellarESDK-1.8.0/Modules/Drivers/System/GPIO/include\gpio.h ****     gpio_pin_t pin   = gpio_iounpack_pin(io);
 120              		.loc 1 441 24
 121 001e BDF80630 		ldrh	r3, [sp, #6]	@ movhi
 122 0022 DBB2     		uxtb	r3, r3
 123              		.loc 1 441 16
 124 0024 03F00F03 		and	r3, r3, #15
 125 0028 8DF80E30 		strb	r3, [sp, #14]
 442:C:/StellarStudio-7.1/SDKS/StellarESDK-1.8.0/Modules/Drivers/System/GPIO/include\gpio.h ****     GPIO_TypeDef *p  = gpio_dev_get_port_reg_ptr(port);
 126              		.loc 1 442 24
 127 002c 9DF80F30 		ldrb	r3, [sp, #15]	@ zero_extendqisi2
 128 0030 1846     		mov	r0, r3
 129 0032 FFF7FEFF 		bl	gpio_dev_get_port_reg_ptr
 130 0036 0290     		str	r0, [sp, #8]
 443:C:/StellarStudio-7.1/SDKS/StellarESDK-1.8.0/Modules/Drivers/System/GPIO/include\gpio.h **** 
 444:C:/StellarStudio-7.1/SDKS/StellarESDK-1.8.0/Modules/Drivers/System/GPIO/include\gpio.h ****     if (p != NULL) {
 131              		.loc 1 444 8
 132 0038 029B     		ldr	r3, [sp, #8]
 133 003a 002B     		cmp	r3, #0
 134 003c 13D0     		beq	.L6
 445:C:/StellarStudio-7.1/SDKS/StellarESDK-1.8.0/Modules/Drivers/System/GPIO/include\gpio.h ****         REG_SET_FIELD_POS(p->OTYPER, 0x1U, pin, otype);
 135              		.loc 1 445 9
 136 003e 029B     		ldr	r3, [sp, #8]
 137 0040 5A68     		ldr	r2, [r3, #4]
 138 0042 9DF80E30 		ldrb	r3, [sp, #14]	@ zero_extendqisi2
 139 0046 0121     		movs	r1, #1
 140 0048 01FA03F3 		lsl	r3, r1, r3
 141 004c DB43     		mvns	r3, r3
 142 004e 1A40     		ands	r2, r2, r3
 143 0050 9DF80530 		ldrb	r3, [sp, #5]	@ zero_extendqisi2
 144 0054 03F00101 		and	r1, r3, #1
 145 0058 9DF80E30 		ldrb	r3, [sp, #14]	@ zero_extendqisi2
 146 005c 01FA03F3 		lsl	r3, r1, r3
 147 0060 1A43     		orrs	r2, r2, r3
 148 0062 029B     		ldr	r3, [sp, #8]
 149 0064 5A60     		str	r2, [r3, #4]
 150              	.L6:
 446:C:/StellarStudio-7.1/SDKS/StellarESDK-1.8.0/Modules/Drivers/System/GPIO/include\gpio.h ****     }
 447:C:/StellarStudio-7.1/SDKS/StellarESDK-1.8.0/Modules/Drivers/System/GPIO/include\gpio.h **** }
 151              		.loc 1 447 1
 152 0066 00BF     		nop
 153 0068 05B0     		add	sp, sp, #20
 154              		.cfi_def_cfa_offset 4
 155              		@ sp needed
 156 006a 5DF804FB 		ldr	pc, [sp], #4
 157              		.cfi_endproc
 158              	.LFE437:
 160 006e 00BF     		.section	.text.gpio_set_pin_ospeedr,"ax",%progbits
 161              		.align	1
 162              		.p2align 4,,15
 163              		.syntax unified
 164              		.thumb
 165              		.thumb_func
 167              	gpio_set_pin_ospeedr:
 168              	.LFB438:
 448:C:/StellarStudio-7.1/SDKS/StellarESDK-1.8.0/Modules/Drivers/System/GPIO/include\gpio.h **** 
 449:C:/StellarStudio-7.1/SDKS/StellarESDK-1.8.0/Modules/Drivers/System/GPIO/include\gpio.h **** /**
 450:C:/StellarStudio-7.1/SDKS/StellarESDK-1.8.0/Modules/Drivers/System/GPIO/include\gpio.h ****  * @brief   Sets Output Speed pin value.
 451:C:/StellarStudio-7.1/SDKS/StellarESDK-1.8.0/Modules/Drivers/System/GPIO/include\gpio.h ****  * @note    Sets Output Speed value of the pin related to the unique pin
 452:C:/StellarStudio-7.1/SDKS/StellarESDK-1.8.0/Modules/Drivers/System/GPIO/include\gpio.h ****  *          identifier.
 453:C:/StellarStudio-7.1/SDKS/StellarESDK-1.8.0/Modules/Drivers/System/GPIO/include\gpio.h ****  *
 454:C:/StellarStudio-7.1/SDKS/StellarESDK-1.8.0/Modules/Drivers/System/GPIO/include\gpio.h ****  * @param[in] io        unique pin identifier
 455:C:/StellarStudio-7.1/SDKS/StellarESDK-1.8.0/Modules/Drivers/System/GPIO/include\gpio.h ****  * @param[in] ospeed    output speed value; it can be one of the following
 456:C:/StellarStudio-7.1/SDKS/StellarESDK-1.8.0/Modules/Drivers/System/GPIO/include\gpio.h ****  *                      values:
 457:C:/StellarStudio-7.1/SDKS/StellarESDK-1.8.0/Modules/Drivers/System/GPIO/include\gpio.h ****  *            @arg @ref GPIO_OSPEEDR_LOW
 458:C:/StellarStudio-7.1/SDKS/StellarESDK-1.8.0/Modules/Drivers/System/GPIO/include\gpio.h ****  *            @arg @ref GPIO_OSPEEDR_MEDIUM
 459:C:/StellarStudio-7.1/SDKS/StellarESDK-1.8.0/Modules/Drivers/System/GPIO/include\gpio.h ****  *            @arg @ref GPIO_OSPEEDR_HIGH
 460:C:/StellarStudio-7.1/SDKS/StellarESDK-1.8.0/Modules/Drivers/System/GPIO/include\gpio.h ****  *            @arg @ref GPIO_OSPEEDR_VERYHIGH
 461:C:/StellarStudio-7.1/SDKS/StellarESDK-1.8.0/Modules/Drivers/System/GPIO/include\gpio.h ****  *
 462:C:/StellarStudio-7.1/SDKS/StellarESDK-1.8.0/Modules/Drivers/System/GPIO/include\gpio.h ****  * @api
 463:C:/StellarStudio-7.1/SDKS/StellarESDK-1.8.0/Modules/Drivers/System/GPIO/include\gpio.h ****  */
 464:C:/StellarStudio-7.1/SDKS/StellarESDK-1.8.0/Modules/Drivers/System/GPIO/include\gpio.h **** __STATIC_INLINE void gpio_set_pin_ospeedr(gpio_io_t io,
 465:C:/StellarStudio-7.1/SDKS/StellarESDK-1.8.0/Modules/Drivers/System/GPIO/include\gpio.h ****                                           gpio_ospeed_t ospeed) {
 169              		.loc 1 465 65
 170              		.cfi_startproc
 171              		@ args = 0, pretend = 0, frame = 16
 172              		@ frame_needed = 0, uses_anonymous_args = 0
 173 0000 00B5     		push	{lr}
 174              		.cfi_def_cfa_offset 4
 175              		.cfi_offset 14, -4
 176 0002 85B0     		sub	sp, sp, #20
 177              		.cfi_def_cfa_offset 24
 178 0004 0346     		mov	r3, r0
 179 0006 0A46     		mov	r2, r1
 180 0008 ADF80630 		strh	r3, [sp, #6]	@ movhi
 181 000c 1346     		mov	r3, r2
 182 000e 8DF80530 		strb	r3, [sp, #5]
 466:C:/StellarStudio-7.1/SDKS/StellarESDK-1.8.0/Modules/Drivers/System/GPIO/include\gpio.h **** 
 467:C:/StellarStudio-7.1/SDKS/StellarESDK-1.8.0/Modules/Drivers/System/GPIO/include\gpio.h ****     gpio_port_t port = gpio_iounpack_port(io);
 183              		.loc 1 467 24
 184 0012 BDF80630 		ldrh	r3, [sp, #6]
 185 0016 1B09     		lsrs	r3, r3, #4
 186 0018 9BB2     		uxth	r3, r3
 187              		.loc 1 467 17
 188 001a 8DF80F30 		strb	r3, [sp, #15]
 468:C:/StellarStudio-7.1/SDKS/StellarESDK-1.8.0/Modules/Drivers/System/GPIO/include\gpio.h ****     gpio_pin_t pin   = gpio_iounpack_pin(io);
 189              		.loc 1 468 24
 190 001e BDF80630 		ldrh	r3, [sp, #6]	@ movhi
 191 0022 DBB2     		uxtb	r3, r3
 192              		.loc 1 468 16
 193 0024 03F00F03 		and	r3, r3, #15
 194 0028 8DF80E30 		strb	r3, [sp, #14]
 469:C:/StellarStudio-7.1/SDKS/StellarESDK-1.8.0/Modules/Drivers/System/GPIO/include\gpio.h ****     GPIO_TypeDef *p  = gpio_dev_get_port_reg_ptr(port);
 195              		.loc 1 469 24
 196 002c 9DF80F30 		ldrb	r3, [sp, #15]	@ zero_extendqisi2
 197 0030 1846     		mov	r0, r3
 198 0032 FFF7FEFF 		bl	gpio_dev_get_port_reg_ptr
 199 0036 0290     		str	r0, [sp, #8]
 470:C:/StellarStudio-7.1/SDKS/StellarESDK-1.8.0/Modules/Drivers/System/GPIO/include\gpio.h **** 
 471:C:/StellarStudio-7.1/SDKS/StellarESDK-1.8.0/Modules/Drivers/System/GPIO/include\gpio.h ****     if (p != NULL) {
 200              		.loc 1 471 8
 201 0038 029B     		ldr	r3, [sp, #8]
 202 003a 002B     		cmp	r3, #0
 203 003c 14D0     		beq	.L9
 472:C:/StellarStudio-7.1/SDKS/StellarESDK-1.8.0/Modules/Drivers/System/GPIO/include\gpio.h ****         REG_SET_FIELD_POS(p->OSPEEDR, 0x3U, (2 * pin), ospeed);
 204              		.loc 1 472 9
 205 003e 029B     		ldr	r3, [sp, #8]
 206 0040 9A68     		ldr	r2, [r3, #8]
 207 0042 9DF80E30 		ldrb	r3, [sp, #14]	@ zero_extendqisi2
 208 0046 5B00     		lsls	r3, r3, #1
 209 0048 1946     		mov	r1, r3
 210 004a 0323     		movs	r3, #3
 211 004c 8B40     		lsls	r3, r3, r1
 212 004e DB43     		mvns	r3, r3
 213 0050 1A40     		ands	r2, r2, r3
 214 0052 9DF80530 		ldrb	r3, [sp, #5]	@ zero_extendqisi2
 215 0056 03F00303 		and	r3, r3, #3
 216 005a 9DF80E10 		ldrb	r1, [sp, #14]	@ zero_extendqisi2
 217 005e 4900     		lsls	r1, r1, #1
 218 0060 8B40     		lsls	r3, r3, r1
 219 0062 1A43     		orrs	r2, r2, r3
 220 0064 029B     		ldr	r3, [sp, #8]
 221 0066 9A60     		str	r2, [r3, #8]
 222              	.L9:
 473:C:/StellarStudio-7.1/SDKS/StellarESDK-1.8.0/Modules/Drivers/System/GPIO/include\gpio.h ****     }
 474:C:/StellarStudio-7.1/SDKS/StellarESDK-1.8.0/Modules/Drivers/System/GPIO/include\gpio.h **** }
 223              		.loc 1 474 1
 224 0068 00BF     		nop
 225 006a 05B0     		add	sp, sp, #20
 226              		.cfi_def_cfa_offset 4
 227              		@ sp needed
 228 006c 5DF804FB 		ldr	pc, [sp], #4
 229              		.cfi_endproc
 230              	.LFE438:
 232              		.section	.text.gpio_set_pin_pupdr,"ax",%progbits
 233              		.align	1
 234              		.p2align 4,,15
 235              		.syntax unified
 236              		.thumb
 237              		.thumb_func
 239              	gpio_set_pin_pupdr:
 240              	.LFB439:
 475:C:/StellarStudio-7.1/SDKS/StellarESDK-1.8.0/Modules/Drivers/System/GPIO/include\gpio.h **** 
 476:C:/StellarStudio-7.1/SDKS/StellarESDK-1.8.0/Modules/Drivers/System/GPIO/include\gpio.h **** /**
 477:C:/StellarStudio-7.1/SDKS/StellarESDK-1.8.0/Modules/Drivers/System/GPIO/include\gpio.h ****  * @brief   Sets Pull-up/Pull-down pin value.
 478:C:/StellarStudio-7.1/SDKS/StellarESDK-1.8.0/Modules/Drivers/System/GPIO/include\gpio.h ****  * @note    Sets Pull-up/Pull-down value of the pin related to the unique pin
 479:C:/StellarStudio-7.1/SDKS/StellarESDK-1.8.0/Modules/Drivers/System/GPIO/include\gpio.h ****  *          identifier.
 480:C:/StellarStudio-7.1/SDKS/StellarESDK-1.8.0/Modules/Drivers/System/GPIO/include\gpio.h ****  *
 481:C:/StellarStudio-7.1/SDKS/StellarESDK-1.8.0/Modules/Drivers/System/GPIO/include\gpio.h ****  * @param[in] io        unique pin identifier
 482:C:/StellarStudio-7.1/SDKS/StellarESDK-1.8.0/Modules/Drivers/System/GPIO/include\gpio.h ****  * @param[in] pupd      pull-up/pull-down value; it can be one of the following
 483:C:/StellarStudio-7.1/SDKS/StellarESDK-1.8.0/Modules/Drivers/System/GPIO/include\gpio.h ****  *                      values:
 484:C:/StellarStudio-7.1/SDKS/StellarESDK-1.8.0/Modules/Drivers/System/GPIO/include\gpio.h ****  *            @arg @ref GPIO_PUPDR_FLOATING
 485:C:/StellarStudio-7.1/SDKS/StellarESDK-1.8.0/Modules/Drivers/System/GPIO/include\gpio.h ****  *            @arg @ref GPIO_PUPDR_PULLUP
 486:C:/StellarStudio-7.1/SDKS/StellarESDK-1.8.0/Modules/Drivers/System/GPIO/include\gpio.h ****  *            @arg @ref GPIO_PUPDR_PULLDOWN
 487:C:/StellarStudio-7.1/SDKS/StellarESDK-1.8.0/Modules/Drivers/System/GPIO/include\gpio.h ****  *
 488:C:/StellarStudio-7.1/SDKS/StellarESDK-1.8.0/Modules/Drivers/System/GPIO/include\gpio.h ****  * @api
 489:C:/StellarStudio-7.1/SDKS/StellarESDK-1.8.0/Modules/Drivers/System/GPIO/include\gpio.h ****  */
 490:C:/StellarStudio-7.1/SDKS/StellarESDK-1.8.0/Modules/Drivers/System/GPIO/include\gpio.h **** __STATIC_INLINE void gpio_set_pin_pupdr(gpio_io_t io,
 491:C:/StellarStudio-7.1/SDKS/StellarESDK-1.8.0/Modules/Drivers/System/GPIO/include\gpio.h ****                                         gpio_pupd_t pupd) {
 241              		.loc 1 491 59
 242              		.cfi_startproc
 243              		@ args = 0, pretend = 0, frame = 16
 244              		@ frame_needed = 0, uses_anonymous_args = 0
 245 0000 00B5     		push	{lr}
 246              		.cfi_def_cfa_offset 4
 247              		.cfi_offset 14, -4
 248 0002 85B0     		sub	sp, sp, #20
 249              		.cfi_def_cfa_offset 24
 250 0004 0346     		mov	r3, r0
 251 0006 0A46     		mov	r2, r1
 252 0008 ADF80630 		strh	r3, [sp, #6]	@ movhi
 253 000c 1346     		mov	r3, r2
 254 000e 8DF80530 		strb	r3, [sp, #5]
 492:C:/StellarStudio-7.1/SDKS/StellarESDK-1.8.0/Modules/Drivers/System/GPIO/include\gpio.h **** 
 493:C:/StellarStudio-7.1/SDKS/StellarESDK-1.8.0/Modules/Drivers/System/GPIO/include\gpio.h ****     gpio_port_t port = gpio_iounpack_port(io);
 255              		.loc 1 493 24
 256 0012 BDF80630 		ldrh	r3, [sp, #6]
 257 0016 1B09     		lsrs	r3, r3, #4
 258 0018 9BB2     		uxth	r3, r3
 259              		.loc 1 493 17
 260 001a 8DF80F30 		strb	r3, [sp, #15]
 494:C:/StellarStudio-7.1/SDKS/StellarESDK-1.8.0/Modules/Drivers/System/GPIO/include\gpio.h ****     gpio_pin_t pin   = gpio_iounpack_pin(io);
 261              		.loc 1 494 24
 262 001e BDF80630 		ldrh	r3, [sp, #6]	@ movhi
 263 0022 DBB2     		uxtb	r3, r3
 264              		.loc 1 494 16
 265 0024 03F00F03 		and	r3, r3, #15
 266 0028 8DF80E30 		strb	r3, [sp, #14]
 495:C:/StellarStudio-7.1/SDKS/StellarESDK-1.8.0/Modules/Drivers/System/GPIO/include\gpio.h ****     GPIO_TypeDef *p  = gpio_dev_get_port_reg_ptr(port);
 267              		.loc 1 495 24
 268 002c 9DF80F30 		ldrb	r3, [sp, #15]	@ zero_extendqisi2
 269 0030 1846     		mov	r0, r3
 270 0032 FFF7FEFF 		bl	gpio_dev_get_port_reg_ptr
 271 0036 0290     		str	r0, [sp, #8]
 496:C:/StellarStudio-7.1/SDKS/StellarESDK-1.8.0/Modules/Drivers/System/GPIO/include\gpio.h **** 
 497:C:/StellarStudio-7.1/SDKS/StellarESDK-1.8.0/Modules/Drivers/System/GPIO/include\gpio.h ****     if (p != NULL) {
 272              		.loc 1 497 8
 273 0038 029B     		ldr	r3, [sp, #8]
 274 003a 002B     		cmp	r3, #0
 275 003c 14D0     		beq	.L12
 498:C:/StellarStudio-7.1/SDKS/StellarESDK-1.8.0/Modules/Drivers/System/GPIO/include\gpio.h ****         REG_SET_FIELD_POS(p->PUPDR, 0x3U, (2 * pin), pupd);
 276              		.loc 1 498 9
 277 003e 029B     		ldr	r3, [sp, #8]
 278 0040 DA68     		ldr	r2, [r3, #12]
 279 0042 9DF80E30 		ldrb	r3, [sp, #14]	@ zero_extendqisi2
 280 0046 5B00     		lsls	r3, r3, #1
 281 0048 1946     		mov	r1, r3
 282 004a 0323     		movs	r3, #3
 283 004c 8B40     		lsls	r3, r3, r1
 284 004e DB43     		mvns	r3, r3
 285 0050 1A40     		ands	r2, r2, r3
 286 0052 9DF80530 		ldrb	r3, [sp, #5]	@ zero_extendqisi2
 287 0056 03F00303 		and	r3, r3, #3
 288 005a 9DF80E10 		ldrb	r1, [sp, #14]	@ zero_extendqisi2
 289 005e 4900     		lsls	r1, r1, #1
 290 0060 8B40     		lsls	r3, r3, r1
 291 0062 1A43     		orrs	r2, r2, r3
 292 0064 029B     		ldr	r3, [sp, #8]
 293 0066 DA60     		str	r2, [r3, #12]
 294              	.L12:
 499:C:/StellarStudio-7.1/SDKS/StellarESDK-1.8.0/Modules/Drivers/System/GPIO/include\gpio.h ****     }
 500:C:/StellarStudio-7.1/SDKS/StellarESDK-1.8.0/Modules/Drivers/System/GPIO/include\gpio.h **** }
 295              		.loc 1 500 1
 296 0068 00BF     		nop
 297 006a 05B0     		add	sp, sp, #20
 298              		.cfi_def_cfa_offset 4
 299              		@ sp needed
 300 006c 5DF804FB 		ldr	pc, [sp], #4
 301              		.cfi_endproc
 302              	.LFE439:
 304              		.section	.text.gpio_set_pin_afr,"ax",%progbits
 305              		.align	1
 306              		.p2align 4,,15
 307              		.syntax unified
 308              		.thumb
 309              		.thumb_func
 311              	gpio_set_pin_afr:
 312              	.LFB441:
 501:C:/StellarStudio-7.1/SDKS/StellarESDK-1.8.0/Modules/Drivers/System/GPIO/include\gpio.h **** 
 502:C:/StellarStudio-7.1/SDKS/StellarESDK-1.8.0/Modules/Drivers/System/GPIO/include\gpio.h **** /**
 503:C:/StellarStudio-7.1/SDKS/StellarESDK-1.8.0/Modules/Drivers/System/GPIO/include\gpio.h ****  * @brief   Sets Output Data pin value.
 504:C:/StellarStudio-7.1/SDKS/StellarESDK-1.8.0/Modules/Drivers/System/GPIO/include\gpio.h ****  * @note    Sets Output Data value of the pin related to the unique pin
 505:C:/StellarStudio-7.1/SDKS/StellarESDK-1.8.0/Modules/Drivers/System/GPIO/include\gpio.h ****  *          identifier.
 506:C:/StellarStudio-7.1/SDKS/StellarESDK-1.8.0/Modules/Drivers/System/GPIO/include\gpio.h ****  *
 507:C:/StellarStudio-7.1/SDKS/StellarESDK-1.8.0/Modules/Drivers/System/GPIO/include\gpio.h ****  * @param[in] io        unique pin identifier
 508:C:/StellarStudio-7.1/SDKS/StellarESDK-1.8.0/Modules/Drivers/System/GPIO/include\gpio.h ****  * @param[in] od        output data value; it can be one of the following
 509:C:/StellarStudio-7.1/SDKS/StellarESDK-1.8.0/Modules/Drivers/System/GPIO/include\gpio.h ****  *                      values:
 510:C:/StellarStudio-7.1/SDKS/StellarESDK-1.8.0/Modules/Drivers/System/GPIO/include\gpio.h ****  *            @arg @ref GPIO_ODR_LOW
 511:C:/StellarStudio-7.1/SDKS/StellarESDK-1.8.0/Modules/Drivers/System/GPIO/include\gpio.h ****  *            @arg @ref GPIO_ODR_HIGH
 512:C:/StellarStudio-7.1/SDKS/StellarESDK-1.8.0/Modules/Drivers/System/GPIO/include\gpio.h ****  *
 513:C:/StellarStudio-7.1/SDKS/StellarESDK-1.8.0/Modules/Drivers/System/GPIO/include\gpio.h ****  * @api
 514:C:/StellarStudio-7.1/SDKS/StellarESDK-1.8.0/Modules/Drivers/System/GPIO/include\gpio.h ****  */
 515:C:/StellarStudio-7.1/SDKS/StellarESDK-1.8.0/Modules/Drivers/System/GPIO/include\gpio.h **** __STATIC_INLINE void gpio_set_pin_odr(gpio_io_t io,
 516:C:/StellarStudio-7.1/SDKS/StellarESDK-1.8.0/Modules/Drivers/System/GPIO/include\gpio.h ****                                       gpio_od_t od) {
 517:C:/StellarStudio-7.1/SDKS/StellarESDK-1.8.0/Modules/Drivers/System/GPIO/include\gpio.h **** 
 518:C:/StellarStudio-7.1/SDKS/StellarESDK-1.8.0/Modules/Drivers/System/GPIO/include\gpio.h ****     gpio_port_t port = gpio_iounpack_port(io);
 519:C:/StellarStudio-7.1/SDKS/StellarESDK-1.8.0/Modules/Drivers/System/GPIO/include\gpio.h ****     gpio_pin_t pin   = gpio_iounpack_pin(io);
 520:C:/StellarStudio-7.1/SDKS/StellarESDK-1.8.0/Modules/Drivers/System/GPIO/include\gpio.h ****     GPIO_TypeDef *p  = gpio_dev_get_port_reg_ptr(port);
 521:C:/StellarStudio-7.1/SDKS/StellarESDK-1.8.0/Modules/Drivers/System/GPIO/include\gpio.h **** 
 522:C:/StellarStudio-7.1/SDKS/StellarESDK-1.8.0/Modules/Drivers/System/GPIO/include\gpio.h ****     if (p != NULL) {
 523:C:/StellarStudio-7.1/SDKS/StellarESDK-1.8.0/Modules/Drivers/System/GPIO/include\gpio.h ****         REG_SET_FIELD_POS(p->ODR, 0x1U, pin, od);
 524:C:/StellarStudio-7.1/SDKS/StellarESDK-1.8.0/Modules/Drivers/System/GPIO/include\gpio.h ****     }
 525:C:/StellarStudio-7.1/SDKS/StellarESDK-1.8.0/Modules/Drivers/System/GPIO/include\gpio.h **** }
 526:C:/StellarStudio-7.1/SDKS/StellarESDK-1.8.0/Modules/Drivers/System/GPIO/include\gpio.h **** 
 527:C:/StellarStudio-7.1/SDKS/StellarESDK-1.8.0/Modules/Drivers/System/GPIO/include\gpio.h **** /**
 528:C:/StellarStudio-7.1/SDKS/StellarESDK-1.8.0/Modules/Drivers/System/GPIO/include\gpio.h ****  * @brief   Sets Alternate Function pin value.
 529:C:/StellarStudio-7.1/SDKS/StellarESDK-1.8.0/Modules/Drivers/System/GPIO/include\gpio.h ****  * @note    Sets Alternate Function value of the pin related to the unique pin
 530:C:/StellarStudio-7.1/SDKS/StellarESDK-1.8.0/Modules/Drivers/System/GPIO/include\gpio.h ****  *          identifier.
 531:C:/StellarStudio-7.1/SDKS/StellarESDK-1.8.0/Modules/Drivers/System/GPIO/include\gpio.h ****  *
 532:C:/StellarStudio-7.1/SDKS/StellarESDK-1.8.0/Modules/Drivers/System/GPIO/include\gpio.h ****  * @param[in] io        unique pin identifier
 533:C:/StellarStudio-7.1/SDKS/StellarESDK-1.8.0/Modules/Drivers/System/GPIO/include\gpio.h ****  * @param[in] af        alternate function value
 534:C:/StellarStudio-7.1/SDKS/StellarESDK-1.8.0/Modules/Drivers/System/GPIO/include\gpio.h ****  *
 535:C:/StellarStudio-7.1/SDKS/StellarESDK-1.8.0/Modules/Drivers/System/GPIO/include\gpio.h ****  * @api
 536:C:/StellarStudio-7.1/SDKS/StellarESDK-1.8.0/Modules/Drivers/System/GPIO/include\gpio.h ****  */
 537:C:/StellarStudio-7.1/SDKS/StellarESDK-1.8.0/Modules/Drivers/System/GPIO/include\gpio.h **** __STATIC_INLINE void gpio_set_pin_afr(gpio_io_t io,
 538:C:/StellarStudio-7.1/SDKS/StellarESDK-1.8.0/Modules/Drivers/System/GPIO/include\gpio.h ****                                       gpio_af_t af) {
 313              		.loc 1 538 53
 314              		.cfi_startproc
 315              		@ args = 0, pretend = 0, frame = 16
 316              		@ frame_needed = 0, uses_anonymous_args = 0
 317 0000 00B5     		push	{lr}
 318              		.cfi_def_cfa_offset 4
 319              		.cfi_offset 14, -4
 320 0002 85B0     		sub	sp, sp, #20
 321              		.cfi_def_cfa_offset 24
 322 0004 0346     		mov	r3, r0
 323 0006 0A46     		mov	r2, r1
 324 0008 ADF80630 		strh	r3, [sp, #6]	@ movhi
 325 000c 1346     		mov	r3, r2
 326 000e 8DF80530 		strb	r3, [sp, #5]
 539:C:/StellarStudio-7.1/SDKS/StellarESDK-1.8.0/Modules/Drivers/System/GPIO/include\gpio.h **** 
 540:C:/StellarStudio-7.1/SDKS/StellarESDK-1.8.0/Modules/Drivers/System/GPIO/include\gpio.h ****     gpio_port_t port = gpio_iounpack_port(io);
 327              		.loc 1 540 24
 328 0012 BDF80630 		ldrh	r3, [sp, #6]
 329 0016 1B09     		lsrs	r3, r3, #4
 330 0018 9BB2     		uxth	r3, r3
 331              		.loc 1 540 17
 332 001a 8DF80F30 		strb	r3, [sp, #15]
 541:C:/StellarStudio-7.1/SDKS/StellarESDK-1.8.0/Modules/Drivers/System/GPIO/include\gpio.h ****     gpio_pin_t pin   = gpio_iounpack_pin(io);
 333              		.loc 1 541 24
 334 001e BDF80630 		ldrh	r3, [sp, #6]	@ movhi
 335 0022 DBB2     		uxtb	r3, r3
 336              		.loc 1 541 16
 337 0024 03F00F03 		and	r3, r3, #15
 338 0028 8DF80E30 		strb	r3, [sp, #14]
 542:C:/StellarStudio-7.1/SDKS/StellarESDK-1.8.0/Modules/Drivers/System/GPIO/include\gpio.h ****     GPIO_TypeDef *p  = gpio_dev_get_port_reg_ptr(port);
 339              		.loc 1 542 24
 340 002c 9DF80F30 		ldrb	r3, [sp, #15]	@ zero_extendqisi2
 341 0030 1846     		mov	r0, r3
 342 0032 FFF7FEFF 		bl	gpio_dev_get_port_reg_ptr
 343 0036 0290     		str	r0, [sp, #8]
 543:C:/StellarStudio-7.1/SDKS/StellarESDK-1.8.0/Modules/Drivers/System/GPIO/include\gpio.h **** 
 544:C:/StellarStudio-7.1/SDKS/StellarESDK-1.8.0/Modules/Drivers/System/GPIO/include\gpio.h ****     if (p != NULL) {
 344              		.loc 1 544 8
 345 0038 029B     		ldr	r3, [sp, #8]
 346 003a 002B     		cmp	r3, #0
 347 003c 30D0     		beq	.L16
 545:C:/StellarStudio-7.1/SDKS/StellarESDK-1.8.0/Modules/Drivers/System/GPIO/include\gpio.h ****         if (pin < 8U) {
 348              		.loc 1 545 12
 349 003e 9DF80E30 		ldrb	r3, [sp, #14]	@ zero_extendqisi2
 350 0042 072B     		cmp	r3, #7
 351 0044 15D8     		bhi	.L15
 546:C:/StellarStudio-7.1/SDKS/StellarESDK-1.8.0/Modules/Drivers/System/GPIO/include\gpio.h ****             REG_SET_FIELD_POS(p->AFR[0], 0xFU, (4 * pin), af);
 352              		.loc 1 546 13
 353 0046 029B     		ldr	r3, [sp, #8]
 354 0048 1A6A     		ldr	r2, [r3, #32]
 355 004a 9DF80E30 		ldrb	r3, [sp, #14]	@ zero_extendqisi2
 356 004e 9B00     		lsls	r3, r3, #2
 357 0050 1946     		mov	r1, r3
 358 0052 0F23     		movs	r3, #15
 359 0054 8B40     		lsls	r3, r3, r1
 360 0056 DB43     		mvns	r3, r3
 361 0058 1A40     		ands	r2, r2, r3
 362 005a 9DF80530 		ldrb	r3, [sp, #5]	@ zero_extendqisi2
 363 005e 03F00F03 		and	r3, r3, #15
 364 0062 9DF80E10 		ldrb	r1, [sp, #14]	@ zero_extendqisi2
 365 0066 8900     		lsls	r1, r1, #2
 366 0068 8B40     		lsls	r3, r3, r1
 367 006a 1A43     		orrs	r2, r2, r3
 368 006c 029B     		ldr	r3, [sp, #8]
 369 006e 1A62     		str	r2, [r3, #32]
 547:C:/StellarStudio-7.1/SDKS/StellarESDK-1.8.0/Modules/Drivers/System/GPIO/include\gpio.h ****         } else {
 548:C:/StellarStudio-7.1/SDKS/StellarESDK-1.8.0/Modules/Drivers/System/GPIO/include\gpio.h ****             REG_SET_FIELD_POS(p->AFR[1], 0xFU, (4 * (pin - 8)), af);
 549:C:/StellarStudio-7.1/SDKS/StellarESDK-1.8.0/Modules/Drivers/System/GPIO/include\gpio.h ****         }
 550:C:/StellarStudio-7.1/SDKS/StellarESDK-1.8.0/Modules/Drivers/System/GPIO/include\gpio.h ****     }
 551:C:/StellarStudio-7.1/SDKS/StellarESDK-1.8.0/Modules/Drivers/System/GPIO/include\gpio.h **** }
 370              		.loc 1 551 1
 371 0070 16E0     		b	.L16
 372              	.L15:
 548:C:/StellarStudio-7.1/SDKS/StellarESDK-1.8.0/Modules/Drivers/System/GPIO/include\gpio.h ****         }
 373              		.loc 1 548 13
 374 0072 029B     		ldr	r3, [sp, #8]
 375 0074 5A6A     		ldr	r2, [r3, #36]
 376 0076 9DF80E30 		ldrb	r3, [sp, #14]	@ zero_extendqisi2
 377 007a 083B     		subs	r3, r3, #8
 378 007c 9B00     		lsls	r3, r3, #2
 379 007e 1946     		mov	r1, r3
 380 0080 0F23     		movs	r3, #15
 381 0082 8B40     		lsls	r3, r3, r1
 382 0084 DB43     		mvns	r3, r3
 383 0086 1A40     		ands	r2, r2, r3
 384 0088 9DF80530 		ldrb	r3, [sp, #5]	@ zero_extendqisi2
 385 008c 03F00F03 		and	r3, r3, #15
 386 0090 9DF80E10 		ldrb	r1, [sp, #14]	@ zero_extendqisi2
 387 0094 0839     		subs	r1, r1, #8
 388 0096 8900     		lsls	r1, r1, #2
 389 0098 8B40     		lsls	r3, r3, r1
 390 009a 1A43     		orrs	r2, r2, r3
 391 009c 029B     		ldr	r3, [sp, #8]
 392 009e 5A62     		str	r2, [r3, #36]
 393              	.L16:
 394              		.loc 1 551 1
 395 00a0 00BF     		nop
 396 00a2 05B0     		add	sp, sp, #20
 397              		.cfi_def_cfa_offset 4
 398              		@ sp needed
 399 00a4 5DF804FB 		ldr	pc, [sp], #4
 400              		.cfi_endproc
 401              	.LFE441:
 403              		.section	.text.gpio_set_pin_ihystr,"ax",%progbits
 404              		.align	1
 405              		.p2align 4,,15
 406              		.syntax unified
 407              		.thumb
 408              		.thumb_func
 410              	gpio_set_pin_ihystr:
 411              	.LFB442:
 552:C:/StellarStudio-7.1/SDKS/StellarESDK-1.8.0/Modules/Drivers/System/GPIO/include\gpio.h **** 
 553:C:/StellarStudio-7.1/SDKS/StellarESDK-1.8.0/Modules/Drivers/System/GPIO/include\gpio.h **** /**
 554:C:/StellarStudio-7.1/SDKS/StellarESDK-1.8.0/Modules/Drivers/System/GPIO/include\gpio.h ****  * @brief   Sets Hysteresis pin value.
 555:C:/StellarStudio-7.1/SDKS/StellarESDK-1.8.0/Modules/Drivers/System/GPIO/include\gpio.h ****  * @note    Sets Hysteresis value of the pin related to the unique pin
 556:C:/StellarStudio-7.1/SDKS/StellarESDK-1.8.0/Modules/Drivers/System/GPIO/include\gpio.h ****  *          identifier.
 557:C:/StellarStudio-7.1/SDKS/StellarESDK-1.8.0/Modules/Drivers/System/GPIO/include\gpio.h ****  *
 558:C:/StellarStudio-7.1/SDKS/StellarESDK-1.8.0/Modules/Drivers/System/GPIO/include\gpio.h ****  * @param[in] io        unique pin identifier
 559:C:/StellarStudio-7.1/SDKS/StellarESDK-1.8.0/Modules/Drivers/System/GPIO/include\gpio.h ****  * @param[in] ihyst     pin hysteresis value; it can be one of the following
 560:C:/StellarStudio-7.1/SDKS/StellarESDK-1.8.0/Modules/Drivers/System/GPIO/include\gpio.h ****  *                      values:
 561:C:/StellarStudio-7.1/SDKS/StellarESDK-1.8.0/Modules/Drivers/System/GPIO/include\gpio.h ****  *            @arg @ref GPIO_IHYSTR_CMOS
 562:C:/StellarStudio-7.1/SDKS/StellarESDK-1.8.0/Modules/Drivers/System/GPIO/include\gpio.h ****  *            @arg @ref GPIO_IHYSTR_TTL
 563:C:/StellarStudio-7.1/SDKS/StellarESDK-1.8.0/Modules/Drivers/System/GPIO/include\gpio.h ****  *            @arg @ref GPIO_IHYSTR_AUTO
 564:C:/StellarStudio-7.1/SDKS/StellarESDK-1.8.0/Modules/Drivers/System/GPIO/include\gpio.h ****  *
 565:C:/StellarStudio-7.1/SDKS/StellarESDK-1.8.0/Modules/Drivers/System/GPIO/include\gpio.h ****  * @api
 566:C:/StellarStudio-7.1/SDKS/StellarESDK-1.8.0/Modules/Drivers/System/GPIO/include\gpio.h ****  */
 567:C:/StellarStudio-7.1/SDKS/StellarESDK-1.8.0/Modules/Drivers/System/GPIO/include\gpio.h **** __STATIC_INLINE void gpio_set_pin_ihystr(gpio_io_t io,
 568:C:/StellarStudio-7.1/SDKS/StellarESDK-1.8.0/Modules/Drivers/System/GPIO/include\gpio.h ****                                          gpio_ihyst_t ihyst) {
 412              		.loc 1 568 62
 413              		.cfi_startproc
 414              		@ args = 0, pretend = 0, frame = 16
 415              		@ frame_needed = 0, uses_anonymous_args = 0
 416 0000 00B5     		push	{lr}
 417              		.cfi_def_cfa_offset 4
 418              		.cfi_offset 14, -4
 419 0002 85B0     		sub	sp, sp, #20
 420              		.cfi_def_cfa_offset 24
 421 0004 0346     		mov	r3, r0
 422 0006 0A46     		mov	r2, r1
 423 0008 ADF80630 		strh	r3, [sp, #6]	@ movhi
 424 000c 1346     		mov	r3, r2
 425 000e 8DF80530 		strb	r3, [sp, #5]
 569:C:/StellarStudio-7.1/SDKS/StellarESDK-1.8.0/Modules/Drivers/System/GPIO/include\gpio.h **** 
 570:C:/StellarStudio-7.1/SDKS/StellarESDK-1.8.0/Modules/Drivers/System/GPIO/include\gpio.h ****     gpio_port_t port = gpio_iounpack_port(io);
 426              		.loc 1 570 24
 427 0012 BDF80630 		ldrh	r3, [sp, #6]
 428 0016 1B09     		lsrs	r3, r3, #4
 429 0018 9BB2     		uxth	r3, r3
 430              		.loc 1 570 17
 431 001a 8DF80F30 		strb	r3, [sp, #15]
 571:C:/StellarStudio-7.1/SDKS/StellarESDK-1.8.0/Modules/Drivers/System/GPIO/include\gpio.h ****     gpio_pin_t pin   = gpio_iounpack_pin(io);
 432              		.loc 1 571 24
 433 001e BDF80630 		ldrh	r3, [sp, #6]	@ movhi
 434 0022 DBB2     		uxtb	r3, r3
 435              		.loc 1 571 16
 436 0024 03F00F03 		and	r3, r3, #15
 437 0028 8DF80E30 		strb	r3, [sp, #14]
 572:C:/StellarStudio-7.1/SDKS/StellarESDK-1.8.0/Modules/Drivers/System/GPIO/include\gpio.h ****     GPIO_TypeDef *p  = gpio_dev_get_port_reg_ptr(port);
 438              		.loc 1 572 24
 439 002c 9DF80F30 		ldrb	r3, [sp, #15]	@ zero_extendqisi2
 440 0030 1846     		mov	r0, r3
 441 0032 FFF7FEFF 		bl	gpio_dev_get_port_reg_ptr
 442 0036 0290     		str	r0, [sp, #8]
 573:C:/StellarStudio-7.1/SDKS/StellarESDK-1.8.0/Modules/Drivers/System/GPIO/include\gpio.h **** 
 574:C:/StellarStudio-7.1/SDKS/StellarESDK-1.8.0/Modules/Drivers/System/GPIO/include\gpio.h ****     if (p != NULL) {
 443              		.loc 1 574 8
 444 0038 029B     		ldr	r3, [sp, #8]
 445 003a 002B     		cmp	r3, #0
 446 003c 14D0     		beq	.L19
 575:C:/StellarStudio-7.1/SDKS/StellarESDK-1.8.0/Modules/Drivers/System/GPIO/include\gpio.h ****         REG_SET_FIELD_POS(p->IHYSTR, 0x3U, (2 * pin), ihyst);
 447              		.loc 1 575 9
 448 003e 029B     		ldr	r3, [sp, #8]
 449 0040 9A6A     		ldr	r2, [r3, #40]
 450 0042 9DF80E30 		ldrb	r3, [sp, #14]	@ zero_extendqisi2
 451 0046 5B00     		lsls	r3, r3, #1
 452 0048 1946     		mov	r1, r3
 453 004a 0323     		movs	r3, #3
 454 004c 8B40     		lsls	r3, r3, r1
 455 004e DB43     		mvns	r3, r3
 456 0050 1A40     		ands	r2, r2, r3
 457 0052 9DF80530 		ldrb	r3, [sp, #5]	@ zero_extendqisi2
 458 0056 03F00303 		and	r3, r3, #3
 459 005a 9DF80E10 		ldrb	r1, [sp, #14]	@ zero_extendqisi2
 460 005e 4900     		lsls	r1, r1, #1
 461 0060 8B40     		lsls	r3, r3, r1
 462 0062 1A43     		orrs	r2, r2, r3
 463 0064 029B     		ldr	r3, [sp, #8]
 464 0066 9A62     		str	r2, [r3, #40]
 465              	.L19:
 576:C:/StellarStudio-7.1/SDKS/StellarESDK-1.8.0/Modules/Drivers/System/GPIO/include\gpio.h ****     }
 577:C:/StellarStudio-7.1/SDKS/StellarESDK-1.8.0/Modules/Drivers/System/GPIO/include\gpio.h **** }
 466              		.loc 1 577 1
 467 0068 00BF     		nop
 468 006a 05B0     		add	sp, sp, #20
 469              		.cfi_def_cfa_offset 4
 470              		@ sp needed
 471 006c 5DF804FB 		ldr	pc, [sp], #4
 472              		.cfi_endproc
 473              	.LFE442:
 475              		.section	.text.gpio_set_pin_trigenr,"ax",%progbits
 476              		.align	1
 477              		.p2align 4,,15
 478              		.syntax unified
 479              		.thumb
 480              		.thumb_func
 482              	gpio_set_pin_trigenr:
 483              	.LFB443:
 578:C:/StellarStudio-7.1/SDKS/StellarESDK-1.8.0/Modules/Drivers/System/GPIO/include\gpio.h **** 
 579:C:/StellarStudio-7.1/SDKS/StellarESDK-1.8.0/Modules/Drivers/System/GPIO/include\gpio.h **** /**
 580:C:/StellarStudio-7.1/SDKS/StellarESDK-1.8.0/Modules/Drivers/System/GPIO/include\gpio.h ****  * @brief   Sets Port Input Buffer Enable pin value.
 581:C:/StellarStudio-7.1/SDKS/StellarESDK-1.8.0/Modules/Drivers/System/GPIO/include\gpio.h ****  * @note    Sets Port Input Buffer Enable value of the pin related to the
 582:C:/StellarStudio-7.1/SDKS/StellarESDK-1.8.0/Modules/Drivers/System/GPIO/include\gpio.h ****  *          unique pin identifier.
 583:C:/StellarStudio-7.1/SDKS/StellarESDK-1.8.0/Modules/Drivers/System/GPIO/include\gpio.h ****  *
 584:C:/StellarStudio-7.1/SDKS/StellarESDK-1.8.0/Modules/Drivers/System/GPIO/include\gpio.h ****  * @param[in] io        unique pin identifier
 585:C:/StellarStudio-7.1/SDKS/StellarESDK-1.8.0/Modules/Drivers/System/GPIO/include\gpio.h ****  * @param[in] trigen    pin input buffer enable value; it can be one of the
 586:C:/StellarStudio-7.1/SDKS/StellarESDK-1.8.0/Modules/Drivers/System/GPIO/include\gpio.h ****  *                      following values:
 587:C:/StellarStudio-7.1/SDKS/StellarESDK-1.8.0/Modules/Drivers/System/GPIO/include\gpio.h ****  *            @arg @ref GPIO_TRIGENR_IN_DISABLED
 588:C:/StellarStudio-7.1/SDKS/StellarESDK-1.8.0/Modules/Drivers/System/GPIO/include\gpio.h ****  *            @arg @ref GPIO_TRIGENR_IN_ENABLED
 589:C:/StellarStudio-7.1/SDKS/StellarESDK-1.8.0/Modules/Drivers/System/GPIO/include\gpio.h ****  *
 590:C:/StellarStudio-7.1/SDKS/StellarESDK-1.8.0/Modules/Drivers/System/GPIO/include\gpio.h ****  * @api
 591:C:/StellarStudio-7.1/SDKS/StellarESDK-1.8.0/Modules/Drivers/System/GPIO/include\gpio.h ****  */
 592:C:/StellarStudio-7.1/SDKS/StellarESDK-1.8.0/Modules/Drivers/System/GPIO/include\gpio.h **** __STATIC_INLINE void gpio_set_pin_trigenr(gpio_io_t io,
 593:C:/StellarStudio-7.1/SDKS/StellarESDK-1.8.0/Modules/Drivers/System/GPIO/include\gpio.h ****                                           gpio_trigen_t trigen) {
 484              		.loc 1 593 65
 485              		.cfi_startproc
 486              		@ args = 0, pretend = 0, frame = 16
 487              		@ frame_needed = 0, uses_anonymous_args = 0
 488 0000 00B5     		push	{lr}
 489              		.cfi_def_cfa_offset 4
 490              		.cfi_offset 14, -4
 491 0002 85B0     		sub	sp, sp, #20
 492              		.cfi_def_cfa_offset 24
 493 0004 0346     		mov	r3, r0
 494 0006 0A46     		mov	r2, r1
 495 0008 ADF80630 		strh	r3, [sp, #6]	@ movhi
 496 000c 1346     		mov	r3, r2
 497 000e 8DF80530 		strb	r3, [sp, #5]
 594:C:/StellarStudio-7.1/SDKS/StellarESDK-1.8.0/Modules/Drivers/System/GPIO/include\gpio.h **** 
 595:C:/StellarStudio-7.1/SDKS/StellarESDK-1.8.0/Modules/Drivers/System/GPIO/include\gpio.h ****     gpio_port_t port = gpio_iounpack_port(io);
 498              		.loc 1 595 24
 499 0012 BDF80630 		ldrh	r3, [sp, #6]
 500 0016 1B09     		lsrs	r3, r3, #4
 501 0018 9BB2     		uxth	r3, r3
 502              		.loc 1 595 17
 503 001a 8DF80F30 		strb	r3, [sp, #15]
 596:C:/StellarStudio-7.1/SDKS/StellarESDK-1.8.0/Modules/Drivers/System/GPIO/include\gpio.h ****     gpio_pin_t pin   = gpio_iounpack_pin(io);
 504              		.loc 1 596 24
 505 001e BDF80630 		ldrh	r3, [sp, #6]	@ movhi
 506 0022 DBB2     		uxtb	r3, r3
 507              		.loc 1 596 16
 508 0024 03F00F03 		and	r3, r3, #15
 509 0028 8DF80E30 		strb	r3, [sp, #14]
 597:C:/StellarStudio-7.1/SDKS/StellarESDK-1.8.0/Modules/Drivers/System/GPIO/include\gpio.h ****     GPIO_TypeDef *p  = gpio_dev_get_port_reg_ptr(port);
 510              		.loc 1 597 24
 511 002c 9DF80F30 		ldrb	r3, [sp, #15]	@ zero_extendqisi2
 512 0030 1846     		mov	r0, r3
 513 0032 FFF7FEFF 		bl	gpio_dev_get_port_reg_ptr
 514 0036 0290     		str	r0, [sp, #8]
 598:C:/StellarStudio-7.1/SDKS/StellarESDK-1.8.0/Modules/Drivers/System/GPIO/include\gpio.h **** 
 599:C:/StellarStudio-7.1/SDKS/StellarESDK-1.8.0/Modules/Drivers/System/GPIO/include\gpio.h ****     if (p != NULL) {
 515              		.loc 1 599 8
 516 0038 029B     		ldr	r3, [sp, #8]
 517 003a 002B     		cmp	r3, #0
 518 003c 13D0     		beq	.L22
 600:C:/StellarStudio-7.1/SDKS/StellarESDK-1.8.0/Modules/Drivers/System/GPIO/include\gpio.h ****         REG_SET_FIELD_POS(p->TRIGENR, 0x1U, pin, trigen);
 519              		.loc 1 600 9
 520 003e 029B     		ldr	r3, [sp, #8]
 521 0040 DA6A     		ldr	r2, [r3, #44]
 522 0042 9DF80E30 		ldrb	r3, [sp, #14]	@ zero_extendqisi2
 523 0046 0121     		movs	r1, #1
 524 0048 01FA03F3 		lsl	r3, r1, r3
 525 004c DB43     		mvns	r3, r3
 526 004e 1A40     		ands	r2, r2, r3
 527 0050 9DF80530 		ldrb	r3, [sp, #5]	@ zero_extendqisi2
 528 0054 03F00101 		and	r1, r3, #1
 529 0058 9DF80E30 		ldrb	r3, [sp, #14]	@ zero_extendqisi2
 530 005c 01FA03F3 		lsl	r3, r1, r3
 531 0060 1A43     		orrs	r2, r2, r3
 532 0062 029B     		ldr	r3, [sp, #8]
 533 0064 DA62     		str	r2, [r3, #44]
 534              	.L22:
 601:C:/StellarStudio-7.1/SDKS/StellarESDK-1.8.0/Modules/Drivers/System/GPIO/include\gpio.h ****     }
 602:C:/StellarStudio-7.1/SDKS/StellarESDK-1.8.0/Modules/Drivers/System/GPIO/include\gpio.h **** }
 535              		.loc 1 602 1
 536 0066 00BF     		nop
 537 0068 05B0     		add	sp, sp, #20
 538              		.cfi_def_cfa_offset 4
 539              		@ sp needed
 540 006a 5DF804FB 		ldr	pc, [sp], #4
 541              		.cfi_endproc
 542              	.LFE443:
 544 006e 00BF     		.section	.text.gpio_set_pin_safeselr,"ax",%progbits
 545              		.align	1
 546              		.p2align 4,,15
 547              		.syntax unified
 548              		.thumb
 549              		.thumb_func
 551              	gpio_set_pin_safeselr:
 552              	.LFB444:
 603:C:/StellarStudio-7.1/SDKS/StellarESDK-1.8.0/Modules/Drivers/System/GPIO/include\gpio.h **** 
 604:C:/StellarStudio-7.1/SDKS/StellarESDK-1.8.0/Modules/Drivers/System/GPIO/include\gpio.h **** /**
 605:C:/StellarStudio-7.1/SDKS/StellarESDK-1.8.0/Modules/Drivers/System/GPIO/include\gpio.h ****  * @brief   Sets Safe IO Selection pin value.
 606:C:/StellarStudio-7.1/SDKS/StellarESDK-1.8.0/Modules/Drivers/System/GPIO/include\gpio.h ****  * @note    Sets Safe IO Selection value of the pin related to the unique pin
 607:C:/StellarStudio-7.1/SDKS/StellarESDK-1.8.0/Modules/Drivers/System/GPIO/include\gpio.h ****  *          identifier.
 608:C:/StellarStudio-7.1/SDKS/StellarESDK-1.8.0/Modules/Drivers/System/GPIO/include\gpio.h ****  *
 609:C:/StellarStudio-7.1/SDKS/StellarESDK-1.8.0/Modules/Drivers/System/GPIO/include\gpio.h ****  * @param[in] io        unique pin identifier
 610:C:/StellarStudio-7.1/SDKS/StellarESDK-1.8.0/Modules/Drivers/System/GPIO/include\gpio.h ****  * @param[in] safesel   safe io selection value; it can be one of the following
 611:C:/StellarStudio-7.1/SDKS/StellarESDK-1.8.0/Modules/Drivers/System/GPIO/include\gpio.h ****  *                      values:
 612:C:/StellarStudio-7.1/SDKS/StellarESDK-1.8.0/Modules/Drivers/System/GPIO/include\gpio.h ****  *            @arg @ref GPIO_SAFESEL_DISABLED
 613:C:/StellarStudio-7.1/SDKS/StellarESDK-1.8.0/Modules/Drivers/System/GPIO/include\gpio.h ****  *            @arg @ref GPIO_SAFESEL_ENABLED
 614:C:/StellarStudio-7.1/SDKS/StellarESDK-1.8.0/Modules/Drivers/System/GPIO/include\gpio.h ****  *
 615:C:/StellarStudio-7.1/SDKS/StellarESDK-1.8.0/Modules/Drivers/System/GPIO/include\gpio.h ****  * @api
 616:C:/StellarStudio-7.1/SDKS/StellarESDK-1.8.0/Modules/Drivers/System/GPIO/include\gpio.h ****  */
 617:C:/StellarStudio-7.1/SDKS/StellarESDK-1.8.0/Modules/Drivers/System/GPIO/include\gpio.h **** __STATIC_INLINE void gpio_set_pin_safeselr(gpio_io_t io,
 618:C:/StellarStudio-7.1/SDKS/StellarESDK-1.8.0/Modules/Drivers/System/GPIO/include\gpio.h ****                                            gpio_safesel_t safesel) {
 553              		.loc 1 618 68
 554              		.cfi_startproc
 555              		@ args = 0, pretend = 0, frame = 16
 556              		@ frame_needed = 0, uses_anonymous_args = 0
 557 0000 00B5     		push	{lr}
 558              		.cfi_def_cfa_offset 4
 559              		.cfi_offset 14, -4
 560 0002 85B0     		sub	sp, sp, #20
 561              		.cfi_def_cfa_offset 24
 562 0004 0346     		mov	r3, r0
 563 0006 0A46     		mov	r2, r1
 564 0008 ADF80630 		strh	r3, [sp, #6]	@ movhi
 565 000c 1346     		mov	r3, r2
 566 000e 8DF80530 		strb	r3, [sp, #5]
 619:C:/StellarStudio-7.1/SDKS/StellarESDK-1.8.0/Modules/Drivers/System/GPIO/include\gpio.h **** 
 620:C:/StellarStudio-7.1/SDKS/StellarESDK-1.8.0/Modules/Drivers/System/GPIO/include\gpio.h ****     gpio_port_t port = gpio_iounpack_port(io);
 567              		.loc 1 620 24
 568 0012 BDF80630 		ldrh	r3, [sp, #6]
 569 0016 1B09     		lsrs	r3, r3, #4
 570 0018 9BB2     		uxth	r3, r3
 571              		.loc 1 620 17
 572 001a 8DF80F30 		strb	r3, [sp, #15]
 621:C:/StellarStudio-7.1/SDKS/StellarESDK-1.8.0/Modules/Drivers/System/GPIO/include\gpio.h ****     gpio_pin_t pin   = gpio_iounpack_pin(io);
 573              		.loc 1 621 24
 574 001e BDF80630 		ldrh	r3, [sp, #6]	@ movhi
 575 0022 DBB2     		uxtb	r3, r3
 576              		.loc 1 621 16
 577 0024 03F00F03 		and	r3, r3, #15
 578 0028 8DF80E30 		strb	r3, [sp, #14]
 622:C:/StellarStudio-7.1/SDKS/StellarESDK-1.8.0/Modules/Drivers/System/GPIO/include\gpio.h ****     GPIO_TypeDef *p  = gpio_dev_get_port_reg_ptr(port);
 579              		.loc 1 622 24
 580 002c 9DF80F30 		ldrb	r3, [sp, #15]	@ zero_extendqisi2
 581 0030 1846     		mov	r0, r3
 582 0032 FFF7FEFF 		bl	gpio_dev_get_port_reg_ptr
 583 0036 0290     		str	r0, [sp, #8]
 623:C:/StellarStudio-7.1/SDKS/StellarESDK-1.8.0/Modules/Drivers/System/GPIO/include\gpio.h **** 
 624:C:/StellarStudio-7.1/SDKS/StellarESDK-1.8.0/Modules/Drivers/System/GPIO/include\gpio.h ****     if (p != NULL) {
 584              		.loc 1 624 8
 585 0038 029B     		ldr	r3, [sp, #8]
 586 003a 002B     		cmp	r3, #0
 587 003c 13D0     		beq	.L25
 625:C:/StellarStudio-7.1/SDKS/StellarESDK-1.8.0/Modules/Drivers/System/GPIO/include\gpio.h ****         REG_SET_FIELD_POS(p->SAFESELR, 0x1U, pin, safesel);
 588              		.loc 1 625 9
 589 003e 029B     		ldr	r3, [sp, #8]
 590 0040 1A6B     		ldr	r2, [r3, #48]
 591 0042 9DF80E30 		ldrb	r3, [sp, #14]	@ zero_extendqisi2
 592 0046 0121     		movs	r1, #1
 593 0048 01FA03F3 		lsl	r3, r1, r3
 594 004c DB43     		mvns	r3, r3
 595 004e 1A40     		ands	r2, r2, r3
 596 0050 9DF80530 		ldrb	r3, [sp, #5]	@ zero_extendqisi2
 597 0054 03F00101 		and	r1, r3, #1
 598 0058 9DF80E30 		ldrb	r3, [sp, #14]	@ zero_extendqisi2
 599 005c 01FA03F3 		lsl	r3, r1, r3
 600 0060 1A43     		orrs	r2, r2, r3
 601 0062 029B     		ldr	r3, [sp, #8]
 602 0064 1A63     		str	r2, [r3, #48]
 603              	.L25:
 626:C:/StellarStudio-7.1/SDKS/StellarESDK-1.8.0/Modules/Drivers/System/GPIO/include\gpio.h ****     }
 627:C:/StellarStudio-7.1/SDKS/StellarESDK-1.8.0/Modules/Drivers/System/GPIO/include\gpio.h **** }
 604              		.loc 1 627 1
 605 0066 00BF     		nop
 606 0068 05B0     		add	sp, sp, #20
 607              		.cfi_def_cfa_offset 4
 608              		@ sp needed
 609 006a 5DF804FB 		ldr	pc, [sp], #4
 610              		.cfi_endproc
 611              	.LFE444:
 613 006e 00BF     		.section	.text.gpio_set_pin_safevalr,"ax",%progbits
 614              		.align	1
 615              		.p2align 4,,15
 616              		.syntax unified
 617              		.thumb
 618              		.thumb_func
 620              	gpio_set_pin_safevalr:
 621              	.LFB445:
 628:C:/StellarStudio-7.1/SDKS/StellarESDK-1.8.0/Modules/Drivers/System/GPIO/include\gpio.h **** 
 629:C:/StellarStudio-7.1/SDKS/StellarESDK-1.8.0/Modules/Drivers/System/GPIO/include\gpio.h **** /**
 630:C:/StellarStudio-7.1/SDKS/StellarESDK-1.8.0/Modules/Drivers/System/GPIO/include\gpio.h ****  * @brief   Sets Safe IO Output pin value.
 631:C:/StellarStudio-7.1/SDKS/StellarESDK-1.8.0/Modules/Drivers/System/GPIO/include\gpio.h ****  * @note    Sets Safe IO Output value of the pin related to the unique pin
 632:C:/StellarStudio-7.1/SDKS/StellarESDK-1.8.0/Modules/Drivers/System/GPIO/include\gpio.h ****  *          identifier.
 633:C:/StellarStudio-7.1/SDKS/StellarESDK-1.8.0/Modules/Drivers/System/GPIO/include\gpio.h ****  *
 634:C:/StellarStudio-7.1/SDKS/StellarESDK-1.8.0/Modules/Drivers/System/GPIO/include\gpio.h ****  * @param[in] io        unique pin identifier
 635:C:/StellarStudio-7.1/SDKS/StellarESDK-1.8.0/Modules/Drivers/System/GPIO/include\gpio.h ****  * @param[in] safeval   safe io output value; it can be one of the following
 636:C:/StellarStudio-7.1/SDKS/StellarESDK-1.8.0/Modules/Drivers/System/GPIO/include\gpio.h ****  *                      values:
 637:C:/StellarStudio-7.1/SDKS/StellarESDK-1.8.0/Modules/Drivers/System/GPIO/include\gpio.h ****  *            @arg @ref GPIO_SAFEVAL_LOW
 638:C:/StellarStudio-7.1/SDKS/StellarESDK-1.8.0/Modules/Drivers/System/GPIO/include\gpio.h ****  *            @arg @ref GPIO_SAFEVAL_HIGH
 639:C:/StellarStudio-7.1/SDKS/StellarESDK-1.8.0/Modules/Drivers/System/GPIO/include\gpio.h ****  *
 640:C:/StellarStudio-7.1/SDKS/StellarESDK-1.8.0/Modules/Drivers/System/GPIO/include\gpio.h ****  * @api
 641:C:/StellarStudio-7.1/SDKS/StellarESDK-1.8.0/Modules/Drivers/System/GPIO/include\gpio.h ****  */
 642:C:/StellarStudio-7.1/SDKS/StellarESDK-1.8.0/Modules/Drivers/System/GPIO/include\gpio.h **** __STATIC_INLINE void gpio_set_pin_safevalr(gpio_io_t io,
 643:C:/StellarStudio-7.1/SDKS/StellarESDK-1.8.0/Modules/Drivers/System/GPIO/include\gpio.h ****                                            gpio_safeval_t safeval) {
 622              		.loc 1 643 68
 623              		.cfi_startproc
 624              		@ args = 0, pretend = 0, frame = 16
 625              		@ frame_needed = 0, uses_anonymous_args = 0
 626 0000 00B5     		push	{lr}
 627              		.cfi_def_cfa_offset 4
 628              		.cfi_offset 14, -4
 629 0002 85B0     		sub	sp, sp, #20
 630              		.cfi_def_cfa_offset 24
 631 0004 0346     		mov	r3, r0
 632 0006 0A46     		mov	r2, r1
 633 0008 ADF80630 		strh	r3, [sp, #6]	@ movhi
 634 000c 1346     		mov	r3, r2
 635 000e 8DF80530 		strb	r3, [sp, #5]
 644:C:/StellarStudio-7.1/SDKS/StellarESDK-1.8.0/Modules/Drivers/System/GPIO/include\gpio.h **** 
 645:C:/StellarStudio-7.1/SDKS/StellarESDK-1.8.0/Modules/Drivers/System/GPIO/include\gpio.h ****     gpio_port_t port = gpio_iounpack_port(io);
 636              		.loc 1 645 24
 637 0012 BDF80630 		ldrh	r3, [sp, #6]
 638 0016 1B09     		lsrs	r3, r3, #4
 639 0018 9BB2     		uxth	r3, r3
 640              		.loc 1 645 17
 641 001a 8DF80F30 		strb	r3, [sp, #15]
 646:C:/StellarStudio-7.1/SDKS/StellarESDK-1.8.0/Modules/Drivers/System/GPIO/include\gpio.h ****     gpio_pin_t pin   = gpio_iounpack_pin(io);
 642              		.loc 1 646 24
 643 001e BDF80630 		ldrh	r3, [sp, #6]	@ movhi
 644 0022 DBB2     		uxtb	r3, r3
 645              		.loc 1 646 16
 646 0024 03F00F03 		and	r3, r3, #15
 647 0028 8DF80E30 		strb	r3, [sp, #14]
 647:C:/StellarStudio-7.1/SDKS/StellarESDK-1.8.0/Modules/Drivers/System/GPIO/include\gpio.h ****     GPIO_TypeDef *p  = gpio_dev_get_port_reg_ptr(port);
 648              		.loc 1 647 24
 649 002c 9DF80F30 		ldrb	r3, [sp, #15]	@ zero_extendqisi2
 650 0030 1846     		mov	r0, r3
 651 0032 FFF7FEFF 		bl	gpio_dev_get_port_reg_ptr
 652 0036 0290     		str	r0, [sp, #8]
 648:C:/StellarStudio-7.1/SDKS/StellarESDK-1.8.0/Modules/Drivers/System/GPIO/include\gpio.h **** 
 649:C:/StellarStudio-7.1/SDKS/StellarESDK-1.8.0/Modules/Drivers/System/GPIO/include\gpio.h ****     if (p != NULL) {
 653              		.loc 1 649 8
 654 0038 029B     		ldr	r3, [sp, #8]
 655 003a 002B     		cmp	r3, #0
 656 003c 13D0     		beq	.L28
 650:C:/StellarStudio-7.1/SDKS/StellarESDK-1.8.0/Modules/Drivers/System/GPIO/include\gpio.h ****         REG_SET_FIELD_POS(p->SAFEVALR, 0x1U, pin, safeval);
 657              		.loc 1 650 9
 658 003e 029B     		ldr	r3, [sp, #8]
 659 0040 5A6B     		ldr	r2, [r3, #52]
 660 0042 9DF80E30 		ldrb	r3, [sp, #14]	@ zero_extendqisi2
 661 0046 0121     		movs	r1, #1
 662 0048 01FA03F3 		lsl	r3, r1, r3
 663 004c DB43     		mvns	r3, r3
 664 004e 1A40     		ands	r2, r2, r3
 665 0050 9DF80530 		ldrb	r3, [sp, #5]	@ zero_extendqisi2
 666 0054 03F00101 		and	r1, r3, #1
 667 0058 9DF80E30 		ldrb	r3, [sp, #14]	@ zero_extendqisi2
 668 005c 01FA03F3 		lsl	r3, r1, r3
 669 0060 1A43     		orrs	r2, r2, r3
 670 0062 029B     		ldr	r3, [sp, #8]
 671 0064 5A63     		str	r2, [r3, #52]
 672              	.L28:
 651:C:/StellarStudio-7.1/SDKS/StellarESDK-1.8.0/Modules/Drivers/System/GPIO/include\gpio.h ****     }
 652:C:/StellarStudio-7.1/SDKS/StellarESDK-1.8.0/Modules/Drivers/System/GPIO/include\gpio.h **** }
 673              		.loc 1 652 1
 674 0066 00BF     		nop
 675 0068 05B0     		add	sp, sp, #20
 676              		.cfi_def_cfa_offset 4
 677              		@ sp needed
 678 006a 5DF804FB 		ldr	pc, [sp], #4
 679              		.cfi_endproc
 680              	.LFE445:
 682 006e 00BF     		.section	.text.gpio_set_pin_mode,"ax",%progbits
 683              		.align	1
 684              		.p2align 4,,15
 685              		.syntax unified
 686              		.thumb
 687              		.thumb_func
 689              	gpio_set_pin_mode:
 690              	.LFB446:
 653:C:/StellarStudio-7.1/SDKS/StellarESDK-1.8.0/Modules/Drivers/System/GPIO/include\gpio.h **** 
 654:C:/StellarStudio-7.1/SDKS/StellarESDK-1.8.0/Modules/Drivers/System/GPIO/include\gpio.h **** /**
 655:C:/StellarStudio-7.1/SDKS/StellarESDK-1.8.0/Modules/Drivers/System/GPIO/include\gpio.h ****  * @brief   Configures pin mode
 656:C:/StellarStudio-7.1/SDKS/StellarESDK-1.8.0/Modules/Drivers/System/GPIO/include\gpio.h ****  * @note    Congigures properties of the pin related to the unique pin
 657:C:/StellarStudio-7.1/SDKS/StellarESDK-1.8.0/Modules/Drivers/System/GPIO/include\gpio.h ****  *          identifier.
 658:C:/StellarStudio-7.1/SDKS/StellarESDK-1.8.0/Modules/Drivers/System/GPIO/include\gpio.h ****  *
 659:C:/StellarStudio-7.1/SDKS/StellarESDK-1.8.0/Modules/Drivers/System/GPIO/include\gpio.h ****  * @param[in] io        unique pin identifier
 660:C:/StellarStudio-7.1/SDKS/StellarESDK-1.8.0/Modules/Drivers/System/GPIO/include\gpio.h ****  * @param[in] mode      pin configuration
 661:C:/StellarStudio-7.1/SDKS/StellarESDK-1.8.0/Modules/Drivers/System/GPIO/include\gpio.h ****  *
 662:C:/StellarStudio-7.1/SDKS/StellarESDK-1.8.0/Modules/Drivers/System/GPIO/include\gpio.h ****  * @api
 663:C:/StellarStudio-7.1/SDKS/StellarESDK-1.8.0/Modules/Drivers/System/GPIO/include\gpio.h ****  */
 664:C:/StellarStudio-7.1/SDKS/StellarESDK-1.8.0/Modules/Drivers/System/GPIO/include\gpio.h **** __STATIC_INLINE void gpio_set_pin_mode(gpio_io_t io,
 665:C:/StellarStudio-7.1/SDKS/StellarESDK-1.8.0/Modules/Drivers/System/GPIO/include\gpio.h ****                                        uint32_t mode) {
 691              		.loc 1 665 55
 692              		.cfi_startproc
 693              		@ args = 0, pretend = 0, frame = 8
 694              		@ frame_needed = 0, uses_anonymous_args = 0
 695 0000 00B5     		push	{lr}
 696              		.cfi_def_cfa_offset 4
 697              		.cfi_offset 14, -4
 698 0002 83B0     		sub	sp, sp, #12
 699              		.cfi_def_cfa_offset 16
 700 0004 0346     		mov	r3, r0
 701 0006 0091     		str	r1, [sp]
 702 0008 ADF80630 		strh	r3, [sp, #6]	@ movhi
 666:C:/StellarStudio-7.1/SDKS/StellarESDK-1.8.0/Modules/Drivers/System/GPIO/include\gpio.h **** 
 667:C:/StellarStudio-7.1/SDKS/StellarESDK-1.8.0/Modules/Drivers/System/GPIO/include\gpio.h ****     gpio_set_pin_otyper  (io, (gpio_otype_t)((mode & GPIO_MODE_OTYPER_MASK) >> GPIO_MODE_OTYPER_POS
 703              		.loc 1 667 77
 704 000c 009B     		ldr	r3, [sp]
 705 000e 9B08     		lsrs	r3, r3, #2
 706 0010 03F00103 		and	r3, r3, #1
 707              		.loc 1 667 5
 708 0014 DAB2     		uxtb	r2, r3
 709 0016 BDF80630 		ldrh	r3, [sp, #6]
 710 001a 1146     		mov	r1, r2
 711 001c 1846     		mov	r0, r3
 712 001e FFF7FEFF 		bl	gpio_set_pin_otyper
 668:C:/StellarStudio-7.1/SDKS/StellarESDK-1.8.0/Modules/Drivers/System/GPIO/include\gpio.h ****     gpio_set_pin_ospeedr (io, (gpio_ospeed_t)((mode & GPIO_MODE_OSPEEDR_MASK) >> GPIO_MODE_OSPEEDR_
 713              		.loc 1 668 79
 714 0022 009B     		ldr	r3, [sp]
 715 0024 DB08     		lsrs	r3, r3, #3
 716 0026 03F00303 		and	r3, r3, #3
 717              		.loc 1 668 5
 718 002a DAB2     		uxtb	r2, r3
 719 002c BDF80630 		ldrh	r3, [sp, #6]
 720 0030 1146     		mov	r1, r2
 721 0032 1846     		mov	r0, r3
 722 0034 FFF7FEFF 		bl	gpio_set_pin_ospeedr
 669:C:/StellarStudio-7.1/SDKS/StellarESDK-1.8.0/Modules/Drivers/System/GPIO/include\gpio.h ****     gpio_set_pin_pupdr   (io, (gpio_pupd_t)((mode & GPIO_MODE_PUPDR_MASK) >> GPIO_MODE_PUPDR_POS));
 723              		.loc 1 669 75
 724 0038 009B     		ldr	r3, [sp]
 725 003a 5B09     		lsrs	r3, r3, #5
 726 003c 03F00303 		and	r3, r3, #3
 727              		.loc 1 669 5
 728 0040 DAB2     		uxtb	r2, r3
 729 0042 BDF80630 		ldrh	r3, [sp, #6]
 730 0046 1146     		mov	r1, r2
 731 0048 1846     		mov	r0, r3
 732 004a FFF7FEFF 		bl	gpio_set_pin_pupdr
 670:C:/StellarStudio-7.1/SDKS/StellarESDK-1.8.0/Modules/Drivers/System/GPIO/include\gpio.h ****     gpio_set_pin_afr     (io, (gpio_af_t)((mode & GPIO_MODE_AFR_MASK) >> GPIO_MODE_AFR_POS));
 733              		.loc 1 670 71
 734 004e 009B     		ldr	r3, [sp]
 735 0050 DB09     		lsrs	r3, r3, #7
 736              		.loc 1 670 31
 737 0052 DBB2     		uxtb	r3, r3
 738              		.loc 1 670 5
 739 0054 03F00F03 		and	r3, r3, #15
 740 0058 DAB2     		uxtb	r2, r3
 741 005a BDF80630 		ldrh	r3, [sp, #6]
 742 005e 1146     		mov	r1, r2
 743 0060 1846     		mov	r0, r3
 744 0062 FFF7FEFF 		bl	gpio_set_pin_afr
 671:C:/StellarStudio-7.1/SDKS/StellarESDK-1.8.0/Modules/Drivers/System/GPIO/include\gpio.h ****     gpio_set_pin_ihystr  (io, (gpio_ihyst_t)((mode & GPIO_MODE_IHYSTR_MASK) >> GPIO_MODE_IHYSTR_POS
 745              		.loc 1 671 77
 746 0066 009B     		ldr	r3, [sp]
 747 0068 DB0A     		lsrs	r3, r3, #11
 748 006a 03F00303 		and	r3, r3, #3
 749              		.loc 1 671 5
 750 006e DAB2     		uxtb	r2, r3
 751 0070 BDF80630 		ldrh	r3, [sp, #6]
 752 0074 1146     		mov	r1, r2
 753 0076 1846     		mov	r0, r3
 754 0078 FFF7FEFF 		bl	gpio_set_pin_ihystr
 672:C:/StellarStudio-7.1/SDKS/StellarESDK-1.8.0/Modules/Drivers/System/GPIO/include\gpio.h ****     gpio_set_pin_trigenr (io, (gpio_trigen_t)((mode & GPIO_MODE_TRIGENR_MASK) >> GPIO_MODE_TRIGENR_
 755              		.loc 1 672 79
 756 007c 009B     		ldr	r3, [sp]
 757 007e 5B0B     		lsrs	r3, r3, #13
 758 0080 03F00103 		and	r3, r3, #1
 759              		.loc 1 672 5
 760 0084 DAB2     		uxtb	r2, r3
 761 0086 BDF80630 		ldrh	r3, [sp, #6]
 762 008a 1146     		mov	r1, r2
 763 008c 1846     		mov	r0, r3
 764 008e FFF7FEFF 		bl	gpio_set_pin_trigenr
 673:C:/StellarStudio-7.1/SDKS/StellarESDK-1.8.0/Modules/Drivers/System/GPIO/include\gpio.h ****     gpio_set_pin_safeselr(io, (gpio_safesel_t)((mode & GPIO_MODE_SAFESELR_MASK) >> GPIO_MODE_SAFESE
 765              		.loc 1 673 81
 766 0092 009B     		ldr	r3, [sp]
 767 0094 9B0B     		lsrs	r3, r3, #14
 768 0096 03F00103 		and	r3, r3, #1
 769              		.loc 1 673 5
 770 009a DAB2     		uxtb	r2, r3
 771 009c BDF80630 		ldrh	r3, [sp, #6]
 772 00a0 1146     		mov	r1, r2
 773 00a2 1846     		mov	r0, r3
 774 00a4 FFF7FEFF 		bl	gpio_set_pin_safeselr
 674:C:/StellarStudio-7.1/SDKS/StellarESDK-1.8.0/Modules/Drivers/System/GPIO/include\gpio.h ****     gpio_set_pin_safevalr(io, (gpio_safeval_t)((mode & GPIO_MODE_SAFEVALR_MASK) >> GPIO_MODE_SAFEVA
 775              		.loc 1 674 81
 776 00a8 009B     		ldr	r3, [sp]
 777 00aa DB0B     		lsrs	r3, r3, #15
 778 00ac 03F00103 		and	r3, r3, #1
 779              		.loc 1 674 5
 780 00b0 DAB2     		uxtb	r2, r3
 781 00b2 BDF80630 		ldrh	r3, [sp, #6]
 782 00b6 1146     		mov	r1, r2
 783 00b8 1846     		mov	r0, r3
 784 00ba FFF7FEFF 		bl	gpio_set_pin_safevalr
 675:C:/StellarStudio-7.1/SDKS/StellarESDK-1.8.0/Modules/Drivers/System/GPIO/include\gpio.h ****     gpio_set_pin_moder   (io, (gpio_mode_t)((mode & GPIO_MODE_MODER_MASK) >> GPIO_MODE_MODER_POS));
 785              		.loc 1 675 5
 786 00be 009B     		ldr	r3, [sp]
 787 00c0 DBB2     		uxtb	r3, r3
 788              		.loc 1 675 51
 789 00c2 03F00303 		and	r3, r3, #3
 790 00c6 DAB2     		uxtb	r2, r3
 791              		.loc 1 675 5
 792 00c8 BDF80630 		ldrh	r3, [sp, #6]
 793 00cc 1146     		mov	r1, r2
 794 00ce 1846     		mov	r0, r3
 795 00d0 FFF7FEFF 		bl	gpio_set_pin_moder
 676:C:/StellarStudio-7.1/SDKS/StellarESDK-1.8.0/Modules/Drivers/System/GPIO/include\gpio.h **** }
 796              		.loc 1 676 1
 797 00d4 00BF     		nop
 798 00d6 03B0     		add	sp, sp, #12
 799              		.cfi_def_cfa_offset 4
 800              		@ sp needed
 801 00d8 5DF804FB 		ldr	pc, [sp], #4
 802              		.cfi_endproc
 803              	.LFE446:
 805              		.section	.text.steval_ttm007a_init,"ax",%progbits
 806              		.align	1
 807              		.p2align 4,,15
 808              		.syntax unified
 809              		.thumb
 810              		.thumb_func
 812              	steval_ttm007a_init:
 813              	.LFB469:
 814              		.file 2 "src-gen/steval_ttm007a.h"
   1:src-gen/steval_ttm007a.h **** /****************************************************************************
   2:src-gen/steval_ttm007a.h **** *
   3:src-gen/steval_ttm007a.h **** * Copyright (c) 2022 STMicroelectronics - All Rights Reserved
   4:src-gen/steval_ttm007a.h **** *
   5:src-gen/steval_ttm007a.h **** * License terms: STMicroelectronics Proprietary in accordance with licensing
   6:src-gen/steval_ttm007a.h **** * terms SLA0098 at www.st.com.
   7:src-gen/steval_ttm007a.h **** *
   8:src-gen/steval_ttm007a.h **** * THIS SOFTWARE IS DISTRIBUTED "AS IS," AND ALL WARRANTIES ARE DISCLAIMED,
   9:src-gen/steval_ttm007a.h **** * INCLUDING MERCHANTABILITY AND FITNESS FOR A PARTICULAR PURPOSE.
  10:src-gen/steval_ttm007a.h **** *
  11:src-gen/steval_ttm007a.h **** * PLEASE NOTE THAT THIS FILE IS GENERATED FROM A CONFIGURATION FILE,
  12:src-gen/steval_ttm007a.h **** * USING com.st.stellar.pinmap.gpiocfg, Version 2.1.0.202501060949
  13:src-gen/steval_ttm007a.h **** * MODIFYING IT IMPLIES POTENTIAL LOSS OF YOUR MODIFICATIONS.
  14:src-gen/steval_ttm007a.h **** *
  15:src-gen/steval_ttm007a.h **** *****************************************************************************/
  16:src-gen/steval_ttm007a.h **** /**
  17:src-gen/steval_ttm007a.h ****  * @file    steval_ttm007a.h
  18:src-gen/steval_ttm007a.h ****  * @brief   SR5E1-STEVAL_TTM007A board header file.
  19:src-gen/steval_ttm007a.h ****  *
  20:src-gen/steval_ttm007a.h ****  * @addtogroup PLATFORM
  21:src-gen/steval_ttm007a.h ****  * @addtogroup BOARD
  22:src-gen/steval_ttm007a.h ****  * @ingroup PLATFORM
  23:src-gen/steval_ttm007a.h ****  * @addtogroup STEVAL_TTM007A
  24:src-gen/steval_ttm007a.h ****  * @ingroup BOARD
  25:src-gen/steval_ttm007a.h ****  * @{
  26:src-gen/steval_ttm007a.h ****  */
  27:src-gen/steval_ttm007a.h **** 
  28:src-gen/steval_ttm007a.h **** #ifndef _STEVAL_TTM007A_H_
  29:src-gen/steval_ttm007a.h **** #define _STEVAL_TTM007A_H_
  30:src-gen/steval_ttm007a.h **** 
  31:src-gen/steval_ttm007a.h **** #include <gpio.h>
  32:src-gen/steval_ttm007a.h **** #include <platform.h>
  33:src-gen/steval_ttm007a.h **** #include <typedefs.h>
  34:src-gen/steval_ttm007a.h **** 
  35:src-gen/steval_ttm007a.h **** 
  36:src-gen/steval_ttm007a.h **** /*===========================================================================*/
  37:src-gen/steval_ttm007a.h **** /* Module constants.                                                         */
  38:src-gen/steval_ttm007a.h **** /*===========================================================================*/
  39:src-gen/steval_ttm007a.h **** 
  40:src-gen/steval_ttm007a.h **** #define STEVAL_TTM007A	1
  41:src-gen/steval_ttm007a.h **** 
  42:src-gen/steval_ttm007a.h **** /*--------------------- GPIO pins definitions ---------------------*/
  43:src-gen/steval_ttm007a.h **** #define PIN_GPIO4_3 gpio_iopack(GPIO_PORT_E, GPIO_PIN_3) /* PE[3] */
  44:src-gen/steval_ttm007a.h **** #define PIN_GPIO4_3_CFG                             \
  45:src-gen/steval_ttm007a.h **** 	(GPIO_MODE_MODER_OUTPUT |                       \
  46:src-gen/steval_ttm007a.h **** 	 GPIO_MODE_OTYPER_PUSHPULL |                    \
  47:src-gen/steval_ttm007a.h **** 	 GPIO_MODE_OSPEEDR_MEDIUM |                     \
  48:src-gen/steval_ttm007a.h **** 	 GPIO_MODE_PUPDR_FLOATING |                     \
  49:src-gen/steval_ttm007a.h **** 	 GPIO_MODE_AFR(0U) |                            \
  50:src-gen/steval_ttm007a.h **** 	 GPIO_MODE_IHYSTR_CMOS |                        \
  51:src-gen/steval_ttm007a.h **** 	 GPIO_MODE_TRIGENR_IN_DISABLED |                \
  52:src-gen/steval_ttm007a.h **** 	 GPIO_MODE_SAFESELR_DISABLED |                  \
  53:src-gen/steval_ttm007a.h **** 	 GPIO_MODE_SAFEVALR_LOW)
  54:src-gen/steval_ttm007a.h **** 
  55:src-gen/steval_ttm007a.h **** #define PIN_GPIO4_2 gpio_iopack(GPIO_PORT_E, GPIO_PIN_2) /* PE[2] */
  56:src-gen/steval_ttm007a.h **** #define PIN_GPIO4_2_CFG                             \
  57:src-gen/steval_ttm007a.h **** 	(GPIO_MODE_MODER_OUTPUT |                       \
  58:src-gen/steval_ttm007a.h **** 	 GPIO_MODE_OTYPER_PUSHPULL |                    \
  59:src-gen/steval_ttm007a.h **** 	 GPIO_MODE_OSPEEDR_MEDIUM |                     \
  60:src-gen/steval_ttm007a.h **** 	 GPIO_MODE_PUPDR_FLOATING |                     \
  61:src-gen/steval_ttm007a.h **** 	 GPIO_MODE_AFR(0U) |                            \
  62:src-gen/steval_ttm007a.h **** 	 GPIO_MODE_IHYSTR_CMOS |                        \
  63:src-gen/steval_ttm007a.h **** 	 GPIO_MODE_TRIGENR_IN_DISABLED |                \
  64:src-gen/steval_ttm007a.h **** 	 GPIO_MODE_SAFESELR_DISABLED |                  \
  65:src-gen/steval_ttm007a.h **** 	 GPIO_MODE_SAFEVALR_LOW)
  66:src-gen/steval_ttm007a.h **** 
  67:src-gen/steval_ttm007a.h **** #define PIN_GPIO4_1 gpio_iopack(GPIO_PORT_E, GPIO_PIN_1) /* PE[1] */
  68:src-gen/steval_ttm007a.h **** #define PIN_GPIO4_1_CFG                             \
  69:src-gen/steval_ttm007a.h **** 	(GPIO_MODE_MODER_OUTPUT |                       \
  70:src-gen/steval_ttm007a.h **** 	 GPIO_MODE_OTYPER_PUSHPULL |                    \
  71:src-gen/steval_ttm007a.h **** 	 GPIO_MODE_OSPEEDR_MEDIUM |                     \
  72:src-gen/steval_ttm007a.h **** 	 GPIO_MODE_PUPDR_FLOATING |                     \
  73:src-gen/steval_ttm007a.h **** 	 GPIO_MODE_AFR(0U) |                            \
  74:src-gen/steval_ttm007a.h **** 	 GPIO_MODE_IHYSTR_CMOS |                        \
  75:src-gen/steval_ttm007a.h **** 	 GPIO_MODE_TRIGENR_IN_DISABLED |                \
  76:src-gen/steval_ttm007a.h **** 	 GPIO_MODE_SAFESELR_DISABLED |                  \
  77:src-gen/steval_ttm007a.h **** 	 GPIO_MODE_SAFEVALR_LOW)
  78:src-gen/steval_ttm007a.h **** 
  79:src-gen/steval_ttm007a.h **** #define PIN_GPIO4_4 gpio_iopack(GPIO_PORT_E, GPIO_PIN_4) /* PE[4] */
  80:src-gen/steval_ttm007a.h **** #define PIN_GPIO4_4_CFG                             \
  81:src-gen/steval_ttm007a.h **** 	(GPIO_MODE_MODER_INPUT |                        \
  82:src-gen/steval_ttm007a.h **** 	 GPIO_MODE_OTYPER_PUSHPULL |                    \
  83:src-gen/steval_ttm007a.h **** 	 GPIO_MODE_OSPEEDR_MEDIUM |                     \
  84:src-gen/steval_ttm007a.h **** 	 GPIO_MODE_PUPDR_FLOATING |                     \
  85:src-gen/steval_ttm007a.h **** 	 GPIO_MODE_AFR(0U) |                            \
  86:src-gen/steval_ttm007a.h **** 	 GPIO_MODE_IHYSTR_CMOS |                        \
  87:src-gen/steval_ttm007a.h **** 	 GPIO_MODE_TRIGENR_IN_DISABLED |                \
  88:src-gen/steval_ttm007a.h **** 	 GPIO_MODE_SAFESELR_DISABLED |                  \
  89:src-gen/steval_ttm007a.h **** 	 GPIO_MODE_SAFEVALR_LOW)
  90:src-gen/steval_ttm007a.h **** 
  91:src-gen/steval_ttm007a.h **** 
  92:src-gen/steval_ttm007a.h **** /*--------------------- CAN1 pins definitions ---------------------*/
  93:src-gen/steval_ttm007a.h **** #define CAN1_RX gpio_iopack(GPIO_PORT_A, GPIO_PIN_4) /* PA[4] */
  94:src-gen/steval_ttm007a.h **** #define CAN1_RX_CFG                                 \
  95:src-gen/steval_ttm007a.h **** 	(GPIO_MODE_MODER_ALTERNATE |                    \
  96:src-gen/steval_ttm007a.h **** 	 GPIO_MODE_OTYPER_PUSHPULL |                    \
  97:src-gen/steval_ttm007a.h **** 	 GPIO_MODE_OSPEEDR_LOW |                        \
  98:src-gen/steval_ttm007a.h **** 	 GPIO_MODE_PUPDR_FLOATING |                     \
  99:src-gen/steval_ttm007a.h **** 	 GPIO_MODE_AFR(6U) |                            \
 100:src-gen/steval_ttm007a.h **** 	 GPIO_MODE_IHYSTR_CMOS |                        \
 101:src-gen/steval_ttm007a.h **** 	 GPIO_MODE_TRIGENR_IN_ENABLED |                 \
 102:src-gen/steval_ttm007a.h **** 	 GPIO_MODE_SAFESELR_DISABLED |                  \
 103:src-gen/steval_ttm007a.h **** 	 GPIO_MODE_SAFEVALR_LOW)
 104:src-gen/steval_ttm007a.h **** 
 105:src-gen/steval_ttm007a.h **** #define CAN1_TX gpio_iopack(GPIO_PORT_A, GPIO_PIN_5) /* PA[5] */
 106:src-gen/steval_ttm007a.h **** #define CAN1_TX_CFG                                 \
 107:src-gen/steval_ttm007a.h **** 	(GPIO_MODE_MODER_ALTERNATE |                    \
 108:src-gen/steval_ttm007a.h **** 	 GPIO_MODE_OTYPER_PUSHPULL |                    \
 109:src-gen/steval_ttm007a.h **** 	 GPIO_MODE_OSPEEDR_LOW |                        \
 110:src-gen/steval_ttm007a.h **** 	 GPIO_MODE_PUPDR_FLOATING |                     \
 111:src-gen/steval_ttm007a.h **** 	 GPIO_MODE_AFR(6U) |                            \
 112:src-gen/steval_ttm007a.h **** 	 GPIO_MODE_IHYSTR_CMOS |                        \
 113:src-gen/steval_ttm007a.h **** 	 GPIO_MODE_TRIGENR_IN_DISABLED |                \
 114:src-gen/steval_ttm007a.h **** 	 GPIO_MODE_SAFESELR_DISABLED |                  \
 115:src-gen/steval_ttm007a.h **** 	 GPIO_MODE_SAFEVALR_LOW)
 116:src-gen/steval_ttm007a.h **** 
 117:src-gen/steval_ttm007a.h **** 
 118:src-gen/steval_ttm007a.h **** /*--------------------- CAN2 pins definitions ---------------------*/
 119:src-gen/steval_ttm007a.h **** #define CAN2_RX gpio_iopack(GPIO_PORT_D, GPIO_PIN_8) /* PD[8] */
 120:src-gen/steval_ttm007a.h **** #define CAN2_RX_CFG                                 \
 121:src-gen/steval_ttm007a.h **** 	(GPIO_MODE_MODER_ALTERNATE |                    \
 122:src-gen/steval_ttm007a.h **** 	 GPIO_MODE_OTYPER_PUSHPULL |                    \
 123:src-gen/steval_ttm007a.h **** 	 GPIO_MODE_OSPEEDR_LOW |                        \
 124:src-gen/steval_ttm007a.h **** 	 GPIO_MODE_PUPDR_FLOATING |                     \
 125:src-gen/steval_ttm007a.h **** 	 GPIO_MODE_AFR(6U) |                            \
 126:src-gen/steval_ttm007a.h **** 	 GPIO_MODE_IHYSTR_CMOS |                        \
 127:src-gen/steval_ttm007a.h **** 	 GPIO_MODE_TRIGENR_IN_ENABLED |                 \
 128:src-gen/steval_ttm007a.h **** 	 GPIO_MODE_SAFESELR_DISABLED |                  \
 129:src-gen/steval_ttm007a.h **** 	 GPIO_MODE_SAFEVALR_LOW)
 130:src-gen/steval_ttm007a.h **** 
 131:src-gen/steval_ttm007a.h **** #define CAN2_TX gpio_iopack(GPIO_PORT_D, GPIO_PIN_7) /* PD[7] */
 132:src-gen/steval_ttm007a.h **** #define CAN2_TX_CFG                                 \
 133:src-gen/steval_ttm007a.h **** 	(GPIO_MODE_MODER_ALTERNATE |                    \
 134:src-gen/steval_ttm007a.h **** 	 GPIO_MODE_OTYPER_PUSHPULL |                    \
 135:src-gen/steval_ttm007a.h **** 	 GPIO_MODE_OSPEEDR_LOW |                        \
 136:src-gen/steval_ttm007a.h **** 	 GPIO_MODE_PUPDR_FLOATING |                     \
 137:src-gen/steval_ttm007a.h **** 	 GPIO_MODE_AFR(6U) |                            \
 138:src-gen/steval_ttm007a.h **** 	 GPIO_MODE_IHYSTR_CMOS |                        \
 139:src-gen/steval_ttm007a.h **** 	 GPIO_MODE_TRIGENR_IN_DISABLED |                \
 140:src-gen/steval_ttm007a.h **** 	 GPIO_MODE_SAFESELR_DISABLED |                  \
 141:src-gen/steval_ttm007a.h **** 	 GPIO_MODE_SAFEVALR_LOW)
 142:src-gen/steval_ttm007a.h **** 
 143:src-gen/steval_ttm007a.h **** 
 144:src-gen/steval_ttm007a.h **** /*--------------------- SDADC1 pins definitions ---------------------*/
 145:src-gen/steval_ttm007a.h **** #define SDADC1_IN0 gpio_iopack(GPIO_PORT_A, GPIO_PIN_13) /* PA[13] */
 146:src-gen/steval_ttm007a.h **** #define SDADC1_IN0_CFG                              \
 147:src-gen/steval_ttm007a.h **** 	(GPIO_MODE_MODER_ALTERNATE |                    \
 148:src-gen/steval_ttm007a.h **** 	 GPIO_MODE_OTYPER_PUSHPULL |                    \
 149:src-gen/steval_ttm007a.h **** 	 GPIO_MODE_OSPEEDR_LOW |                        \
 150:src-gen/steval_ttm007a.h **** 	 GPIO_MODE_PUPDR_FLOATING |                     \
 151:src-gen/steval_ttm007a.h **** 	 GPIO_MODE_AFR(9U) |                            \
 152:src-gen/steval_ttm007a.h **** 	 GPIO_MODE_IHYSTR_CMOS |                        \
 153:src-gen/steval_ttm007a.h **** 	 GPIO_MODE_TRIGENR_IN_ENABLED |                 \
 154:src-gen/steval_ttm007a.h **** 	 GPIO_MODE_SAFESELR_DISABLED |                  \
 155:src-gen/steval_ttm007a.h **** 	 GPIO_MODE_SAFEVALR_LOW)
 156:src-gen/steval_ttm007a.h **** 
 157:src-gen/steval_ttm007a.h **** 
 158:src-gen/steval_ttm007a.h **** /*--------------------- BDAC pins definitions ---------------------*/
 159:src-gen/steval_ttm007a.h **** #define B_DAC1_OUT gpio_iopack(GPIO_PORT_B, GPIO_PIN_1) /* PB[1] */
 160:src-gen/steval_ttm007a.h **** #define B_DAC1_OUT_CFG                              \
 161:src-gen/steval_ttm007a.h **** 	(GPIO_MODE_MODER_ANALOG |                       \
 162:src-gen/steval_ttm007a.h **** 	 GPIO_MODE_OTYPER_PUSHPULL |                    \
 163:src-gen/steval_ttm007a.h **** 	 GPIO_MODE_OSPEEDR_LOW |                        \
 164:src-gen/steval_ttm007a.h **** 	 GPIO_MODE_PUPDR_FLOATING |                     \
 165:src-gen/steval_ttm007a.h **** 	 GPIO_MODE_AFR(0U) |                            \
 166:src-gen/steval_ttm007a.h **** 	 GPIO_MODE_IHYSTR_CMOS |                        \
 167:src-gen/steval_ttm007a.h **** 	 GPIO_MODE_TRIGENR_IN_DISABLED |                \
 168:src-gen/steval_ttm007a.h **** 	 GPIO_MODE_SAFESELR_DISABLED |                  \
 169:src-gen/steval_ttm007a.h **** 	 GPIO_MODE_SAFEVALR_LOW)
 170:src-gen/steval_ttm007a.h **** 
 171:src-gen/steval_ttm007a.h **** 
 172:src-gen/steval_ttm007a.h **** /*--------------------- SAR1 pins definitions ---------------------*/
 173:src-gen/steval_ttm007a.h **** #define SAR1_IN1 gpio_iopack(GPIO_PORT_B, GPIO_PIN_2) /* PB[2] */
 174:src-gen/steval_ttm007a.h **** #define SAR1_IN1_CFG                                \
 175:src-gen/steval_ttm007a.h **** 	(GPIO_MODE_MODER_ANALOG |                       \
 176:src-gen/steval_ttm007a.h **** 	 GPIO_MODE_OTYPER_PUSHPULL |                    \
 177:src-gen/steval_ttm007a.h **** 	 GPIO_MODE_OSPEEDR_LOW |                        \
 178:src-gen/steval_ttm007a.h **** 	 GPIO_MODE_PUPDR_FLOATING |                     \
 179:src-gen/steval_ttm007a.h **** 	 GPIO_MODE_AFR(0U) |                            \
 180:src-gen/steval_ttm007a.h **** 	 GPIO_MODE_IHYSTR_CMOS |                        \
 181:src-gen/steval_ttm007a.h **** 	 GPIO_MODE_TRIGENR_IN_DISABLED |                \
 182:src-gen/steval_ttm007a.h **** 	 GPIO_MODE_SAFESELR_DISABLED |                  \
 183:src-gen/steval_ttm007a.h **** 	 GPIO_MODE_SAFEVALR_LOW)
 184:src-gen/steval_ttm007a.h **** 
 185:src-gen/steval_ttm007a.h **** 
 186:src-gen/steval_ttm007a.h **** /*--------------------- SAR2 pins definitions ---------------------*/
 187:src-gen/steval_ttm007a.h **** #define SAR2_IN1 gpio_iopack(GPIO_PORT_B, GPIO_PIN_7) /* PB[7] */
 188:src-gen/steval_ttm007a.h **** #define SAR2_IN1_CFG                                \
 189:src-gen/steval_ttm007a.h **** 	(GPIO_MODE_MODER_ANALOG |                       \
 190:src-gen/steval_ttm007a.h **** 	 GPIO_MODE_OTYPER_PUSHPULL |                    \
 191:src-gen/steval_ttm007a.h **** 	 GPIO_MODE_OSPEEDR_LOW |                        \
 192:src-gen/steval_ttm007a.h **** 	 GPIO_MODE_PUPDR_FLOATING |                     \
 193:src-gen/steval_ttm007a.h **** 	 GPIO_MODE_AFR(0U) |                            \
 194:src-gen/steval_ttm007a.h **** 	 GPIO_MODE_IHYSTR_CMOS |                        \
 195:src-gen/steval_ttm007a.h **** 	 GPIO_MODE_TRIGENR_IN_DISABLED |                \
 196:src-gen/steval_ttm007a.h **** 	 GPIO_MODE_SAFESELR_DISABLED |                  \
 197:src-gen/steval_ttm007a.h **** 	 GPIO_MODE_SAFEVALR_LOW)
 198:src-gen/steval_ttm007a.h **** 
 199:src-gen/steval_ttm007a.h **** 
 200:src-gen/steval_ttm007a.h **** /*--------------------- SAR3 pins definitions ---------------------*/
 201:src-gen/steval_ttm007a.h **** #define SAR3_IN2 gpio_iopack(GPIO_PORT_B, GPIO_PIN_13) /* PB[13] */
 202:src-gen/steval_ttm007a.h **** #define SAR3_IN2_CFG                                \
 203:src-gen/steval_ttm007a.h **** 	(GPIO_MODE_MODER_ANALOG |                       \
 204:src-gen/steval_ttm007a.h **** 	 GPIO_MODE_OTYPER_PUSHPULL |                    \
 205:src-gen/steval_ttm007a.h **** 	 GPIO_MODE_OSPEEDR_LOW |                        \
 206:src-gen/steval_ttm007a.h **** 	 GPIO_MODE_PUPDR_FLOATING |                     \
 207:src-gen/steval_ttm007a.h **** 	 GPIO_MODE_AFR(0U) |                            \
 208:src-gen/steval_ttm007a.h **** 	 GPIO_MODE_IHYSTR_CMOS |                        \
 209:src-gen/steval_ttm007a.h **** 	 GPIO_MODE_TRIGENR_IN_DISABLED |                \
 210:src-gen/steval_ttm007a.h **** 	 GPIO_MODE_SAFESELR_DISABLED |                  \
 211:src-gen/steval_ttm007a.h **** 	 GPIO_MODE_SAFEVALR_LOW)
 212:src-gen/steval_ttm007a.h **** 
 213:src-gen/steval_ttm007a.h **** 
 214:src-gen/steval_ttm007a.h **** /*--------------------- SAR pins definitions ---------------------*/
 215:src-gen/steval_ttm007a.h **** #define SAR_CAL1 gpio_iopack(GPIO_PORT_C, GPIO_PIN_1) /* PC[1] */
 216:src-gen/steval_ttm007a.h **** #define SAR_CAL1_CFG                                \
 217:src-gen/steval_ttm007a.h **** 	(GPIO_MODE_MODER_ANALOG |                       \
 218:src-gen/steval_ttm007a.h **** 	 GPIO_MODE_OTYPER_PUSHPULL |                    \
 219:src-gen/steval_ttm007a.h **** 	 GPIO_MODE_OSPEEDR_LOW |                        \
 220:src-gen/steval_ttm007a.h **** 	 GPIO_MODE_PUPDR_FLOATING |                     \
 221:src-gen/steval_ttm007a.h **** 	 GPIO_MODE_AFR(0U) |                            \
 222:src-gen/steval_ttm007a.h **** 	 GPIO_MODE_IHYSTR_CMOS |                        \
 223:src-gen/steval_ttm007a.h **** 	 GPIO_MODE_TRIGENR_IN_DISABLED |                \
 224:src-gen/steval_ttm007a.h **** 	 GPIO_MODE_SAFESELR_DISABLED |                  \
 225:src-gen/steval_ttm007a.h **** 	 GPIO_MODE_SAFEVALR_LOW)
 226:src-gen/steval_ttm007a.h **** 
 227:src-gen/steval_ttm007a.h **** 
 228:src-gen/steval_ttm007a.h **** /*--------------------- SAR4 pins definitions ---------------------*/
 229:src-gen/steval_ttm007a.h **** #define SAR4_IN3 gpio_iopack(GPIO_PORT_C, GPIO_PIN_6) /* PC[6] */
 230:src-gen/steval_ttm007a.h **** #define SAR4_IN3_CFG                                \
 231:src-gen/steval_ttm007a.h **** 	(GPIO_MODE_MODER_ANALOG |                       \
 232:src-gen/steval_ttm007a.h **** 	 GPIO_MODE_OTYPER_PUSHPULL |                    \
 233:src-gen/steval_ttm007a.h **** 	 GPIO_MODE_OSPEEDR_LOW |                        \
 234:src-gen/steval_ttm007a.h **** 	 GPIO_MODE_PUPDR_FLOATING |                     \
 235:src-gen/steval_ttm007a.h **** 	 GPIO_MODE_AFR(0U) |                            \
 236:src-gen/steval_ttm007a.h **** 	 GPIO_MODE_IHYSTR_CMOS |                        \
 237:src-gen/steval_ttm007a.h **** 	 GPIO_MODE_TRIGENR_IN_DISABLED |                \
 238:src-gen/steval_ttm007a.h **** 	 GPIO_MODE_SAFESELR_DISABLED |                  \
 239:src-gen/steval_ttm007a.h **** 	 GPIO_MODE_SAFEVALR_LOW)
 240:src-gen/steval_ttm007a.h **** 
 241:src-gen/steval_ttm007a.h **** 
 242:src-gen/steval_ttm007a.h **** /*--------------------- BDAC pins definitions ---------------------*/
 243:src-gen/steval_ttm007a.h **** #define B_DAC2_OUT gpio_iopack(GPIO_PORT_C, GPIO_PIN_5) /* PC[5] */
 244:src-gen/steval_ttm007a.h **** #define B_DAC2_OUT_CFG                              \
 245:src-gen/steval_ttm007a.h **** 	(GPIO_MODE_MODER_ANALOG |                       \
 246:src-gen/steval_ttm007a.h **** 	 GPIO_MODE_OTYPER_PUSHPULL |                    \
 247:src-gen/steval_ttm007a.h **** 	 GPIO_MODE_OSPEEDR_LOW |                        \
 248:src-gen/steval_ttm007a.h **** 	 GPIO_MODE_PUPDR_FLOATING |                     \
 249:src-gen/steval_ttm007a.h **** 	 GPIO_MODE_AFR(0U) |                            \
 250:src-gen/steval_ttm007a.h **** 	 GPIO_MODE_IHYSTR_CMOS |                        \
 251:src-gen/steval_ttm007a.h **** 	 GPIO_MODE_TRIGENR_IN_DISABLED |                \
 252:src-gen/steval_ttm007a.h **** 	 GPIO_MODE_SAFESELR_DISABLED |                  \
 253:src-gen/steval_ttm007a.h **** 	 GPIO_MODE_SAFEVALR_LOW)
 254:src-gen/steval_ttm007a.h **** 
 255:src-gen/steval_ttm007a.h **** 
 256:src-gen/steval_ttm007a.h **** /*--------------------- SAR5 pins definitions ---------------------*/
 257:src-gen/steval_ttm007a.h **** #define SAR5_IN1 gpio_iopack(GPIO_PORT_C, GPIO_PIN_9) /* PC[9] */
 258:src-gen/steval_ttm007a.h **** #define SAR5_IN1_CFG                                \
 259:src-gen/steval_ttm007a.h **** 	(GPIO_MODE_MODER_ANALOG |                       \
 260:src-gen/steval_ttm007a.h **** 	 GPIO_MODE_OTYPER_PUSHPULL |                    \
 261:src-gen/steval_ttm007a.h **** 	 GPIO_MODE_OSPEEDR_LOW |                        \
 262:src-gen/steval_ttm007a.h **** 	 GPIO_MODE_PUPDR_FLOATING |                     \
 263:src-gen/steval_ttm007a.h **** 	 GPIO_MODE_AFR(0U) |                            \
 264:src-gen/steval_ttm007a.h **** 	 GPIO_MODE_IHYSTR_CMOS |                        \
 265:src-gen/steval_ttm007a.h **** 	 GPIO_MODE_TRIGENR_IN_DISABLED |                \
 266:src-gen/steval_ttm007a.h **** 	 GPIO_MODE_SAFESELR_DISABLED |                  \
 267:src-gen/steval_ttm007a.h **** 	 GPIO_MODE_SAFEVALR_LOW)
 268:src-gen/steval_ttm007a.h **** 
 269:src-gen/steval_ttm007a.h **** #define SAR5_IN2 gpio_iopack(GPIO_PORT_C, GPIO_PIN_10) /* PC[10] */
 270:src-gen/steval_ttm007a.h **** #define SAR5_IN2_CFG                                \
 271:src-gen/steval_ttm007a.h **** 	(GPIO_MODE_MODER_ANALOG |                       \
 272:src-gen/steval_ttm007a.h **** 	 GPIO_MODE_OTYPER_PUSHPULL |                    \
 273:src-gen/steval_ttm007a.h **** 	 GPIO_MODE_OSPEEDR_LOW |                        \
 274:src-gen/steval_ttm007a.h **** 	 GPIO_MODE_PUPDR_FLOATING |                     \
 275:src-gen/steval_ttm007a.h **** 	 GPIO_MODE_AFR(0U) |                            \
 276:src-gen/steval_ttm007a.h **** 	 GPIO_MODE_IHYSTR_CMOS |                        \
 277:src-gen/steval_ttm007a.h **** 	 GPIO_MODE_TRIGENR_IN_DISABLED |                \
 278:src-gen/steval_ttm007a.h **** 	 GPIO_MODE_SAFESELR_DISABLED |                  \
 279:src-gen/steval_ttm007a.h **** 	 GPIO_MODE_SAFEVALR_LOW)
 280:src-gen/steval_ttm007a.h **** 
 281:src-gen/steval_ttm007a.h **** #define SAR5_IN3 gpio_iopack(GPIO_PORT_C, GPIO_PIN_11) /* PC[11] */
 282:src-gen/steval_ttm007a.h **** #define SAR5_IN3_CFG                                \
 283:src-gen/steval_ttm007a.h **** 	(GPIO_MODE_MODER_ANALOG |                       \
 284:src-gen/steval_ttm007a.h **** 	 GPIO_MODE_OTYPER_PUSHPULL |                    \
 285:src-gen/steval_ttm007a.h **** 	 GPIO_MODE_OSPEEDR_LOW |                        \
 286:src-gen/steval_ttm007a.h **** 	 GPIO_MODE_PUPDR_FLOATING |                     \
 287:src-gen/steval_ttm007a.h **** 	 GPIO_MODE_AFR(0U) |                            \
 288:src-gen/steval_ttm007a.h **** 	 GPIO_MODE_IHYSTR_CMOS |                        \
 289:src-gen/steval_ttm007a.h **** 	 GPIO_MODE_TRIGENR_IN_DISABLED |                \
 290:src-gen/steval_ttm007a.h **** 	 GPIO_MODE_SAFESELR_DISABLED |                  \
 291:src-gen/steval_ttm007a.h **** 	 GPIO_MODE_SAFEVALR_LOW)
 292:src-gen/steval_ttm007a.h **** 
 293:src-gen/steval_ttm007a.h **** 
 294:src-gen/steval_ttm007a.h **** /*--------------------- TIM1 pins definitions ---------------------*/
 295:src-gen/steval_ttm007a.h **** #define TIM1_CH1N gpio_iopack(GPIO_PORT_C, GPIO_PIN_14) /* PC[14] */
 296:src-gen/steval_ttm007a.h **** #define TIM1_CH1N_CFG                               \
 297:src-gen/steval_ttm007a.h **** 	(GPIO_MODE_MODER_ALTERNATE |                    \
 298:src-gen/steval_ttm007a.h **** 	 GPIO_MODE_OTYPER_PUSHPULL |                    \
 299:src-gen/steval_ttm007a.h **** 	 GPIO_MODE_OSPEEDR_HIGH |                       \
 300:src-gen/steval_ttm007a.h **** 	 GPIO_MODE_PUPDR_FLOATING |                     \
 301:src-gen/steval_ttm007a.h **** 	 GPIO_MODE_AFR(4U) |                            \
 302:src-gen/steval_ttm007a.h **** 	 GPIO_MODE_IHYSTR_CMOS |                        \
 303:src-gen/steval_ttm007a.h **** 	 GPIO_MODE_TRIGENR_IN_DISABLED |                \
 304:src-gen/steval_ttm007a.h **** 	 GPIO_MODE_SAFESELR_DISABLED |                  \
 305:src-gen/steval_ttm007a.h **** 	 GPIO_MODE_SAFEVALR_LOW)
 306:src-gen/steval_ttm007a.h **** 
 307:src-gen/steval_ttm007a.h **** #define TIM1_CH1 gpio_iopack(GPIO_PORT_C, GPIO_PIN_15) /* PC[15] */
 308:src-gen/steval_ttm007a.h **** #define TIM1_CH1_CFG                                \
 309:src-gen/steval_ttm007a.h **** 	(GPIO_MODE_MODER_ALTERNATE |                    \
 310:src-gen/steval_ttm007a.h **** 	 GPIO_MODE_OTYPER_PUSHPULL |                    \
 311:src-gen/steval_ttm007a.h **** 	 GPIO_MODE_OSPEEDR_HIGH |                       \
 312:src-gen/steval_ttm007a.h **** 	 GPIO_MODE_PUPDR_FLOATING |                     \
 313:src-gen/steval_ttm007a.h **** 	 GPIO_MODE_AFR(4U) |                            \
 314:src-gen/steval_ttm007a.h **** 	 GPIO_MODE_IHYSTR_CMOS |                        \
 315:src-gen/steval_ttm007a.h **** 	 GPIO_MODE_TRIGENR_IN_DISABLED |                \
 316:src-gen/steval_ttm007a.h **** 	 GPIO_MODE_SAFESELR_DISABLED |                  \
 317:src-gen/steval_ttm007a.h **** 	 GPIO_MODE_SAFEVALR_LOW)
 318:src-gen/steval_ttm007a.h **** 
 319:src-gen/steval_ttm007a.h **** #define TIM1_CH2N gpio_iopack(GPIO_PORT_D, GPIO_PIN_0) /* PD[0] */
 320:src-gen/steval_ttm007a.h **** #define TIM1_CH2N_CFG                               \
 321:src-gen/steval_ttm007a.h **** 	(GPIO_MODE_MODER_ALTERNATE |                    \
 322:src-gen/steval_ttm007a.h **** 	 GPIO_MODE_OTYPER_PUSHPULL |                    \
 323:src-gen/steval_ttm007a.h **** 	 GPIO_MODE_OSPEEDR_HIGH |                       \
 324:src-gen/steval_ttm007a.h **** 	 GPIO_MODE_PUPDR_FLOATING |                     \
 325:src-gen/steval_ttm007a.h **** 	 GPIO_MODE_AFR(4U) |                            \
 326:src-gen/steval_ttm007a.h **** 	 GPIO_MODE_IHYSTR_CMOS |                        \
 327:src-gen/steval_ttm007a.h **** 	 GPIO_MODE_TRIGENR_IN_DISABLED |                \
 328:src-gen/steval_ttm007a.h **** 	 GPIO_MODE_SAFESELR_DISABLED |                  \
 329:src-gen/steval_ttm007a.h **** 	 GPIO_MODE_SAFEVALR_LOW)
 330:src-gen/steval_ttm007a.h **** 
 331:src-gen/steval_ttm007a.h **** #define TIM1_CH2 gpio_iopack(GPIO_PORT_D, GPIO_PIN_1) /* PD[1] */
 332:src-gen/steval_ttm007a.h **** #define TIM1_CH2_CFG                                \
 333:src-gen/steval_ttm007a.h **** 	(GPIO_MODE_MODER_ALTERNATE |                    \
 334:src-gen/steval_ttm007a.h **** 	 GPIO_MODE_OTYPER_PUSHPULL |                    \
 335:src-gen/steval_ttm007a.h **** 	 GPIO_MODE_OSPEEDR_HIGH |                       \
 336:src-gen/steval_ttm007a.h **** 	 GPIO_MODE_PUPDR_FLOATING |                     \
 337:src-gen/steval_ttm007a.h **** 	 GPIO_MODE_AFR(4U) |                            \
 338:src-gen/steval_ttm007a.h **** 	 GPIO_MODE_IHYSTR_CMOS |                        \
 339:src-gen/steval_ttm007a.h **** 	 GPIO_MODE_TRIGENR_IN_DISABLED |                \
 340:src-gen/steval_ttm007a.h **** 	 GPIO_MODE_SAFESELR_DISABLED |                  \
 341:src-gen/steval_ttm007a.h **** 	 GPIO_MODE_SAFEVALR_LOW)
 342:src-gen/steval_ttm007a.h **** 
 343:src-gen/steval_ttm007a.h **** #define TIM1_BKIN gpio_iopack(GPIO_PORT_H, GPIO_PIN_0) /* PH[0] */
 344:src-gen/steval_ttm007a.h **** #define TIM1_BKIN_CFG                               \
 345:src-gen/steval_ttm007a.h **** 	(GPIO_MODE_MODER_ALTERNATE |                    \
 346:src-gen/steval_ttm007a.h **** 	 GPIO_MODE_OTYPER_PUSHPULL |                    \
 347:src-gen/steval_ttm007a.h **** 	 GPIO_MODE_OSPEEDR_LOW |                        \
 348:src-gen/steval_ttm007a.h **** 	 GPIO_MODE_PUPDR_FLOATING |                     \
 349:src-gen/steval_ttm007a.h **** 	 GPIO_MODE_AFR(4U) |                            \
 350:src-gen/steval_ttm007a.h **** 	 GPIO_MODE_IHYSTR_CMOS |                        \
 351:src-gen/steval_ttm007a.h **** 	 GPIO_MODE_TRIGENR_IN_ENABLED |                 \
 352:src-gen/steval_ttm007a.h **** 	 GPIO_MODE_SAFESELR_DISABLED |                  \
 353:src-gen/steval_ttm007a.h **** 	 GPIO_MODE_SAFEVALR_LOW)
 354:src-gen/steval_ttm007a.h **** 
 355:src-gen/steval_ttm007a.h **** #define TIM1_BKIN2 gpio_iopack(GPIO_PORT_H, GPIO_PIN_1) /* PH[1] */
 356:src-gen/steval_ttm007a.h **** #define TIM1_BKIN2_CFG                              \
 357:src-gen/steval_ttm007a.h **** 	(GPIO_MODE_MODER_ALTERNATE |                    \
 358:src-gen/steval_ttm007a.h **** 	 GPIO_MODE_OTYPER_PUSHPULL |                    \
 359:src-gen/steval_ttm007a.h **** 	 GPIO_MODE_OSPEEDR_LOW |                        \
 360:src-gen/steval_ttm007a.h **** 	 GPIO_MODE_PUPDR_FLOATING |                     \
 361:src-gen/steval_ttm007a.h **** 	 GPIO_MODE_AFR(4U) |                            \
 362:src-gen/steval_ttm007a.h **** 	 GPIO_MODE_IHYSTR_CMOS |                        \
 363:src-gen/steval_ttm007a.h **** 	 GPIO_MODE_TRIGENR_IN_ENABLED |                 \
 364:src-gen/steval_ttm007a.h **** 	 GPIO_MODE_SAFESELR_DISABLED |                  \
 365:src-gen/steval_ttm007a.h **** 	 GPIO_MODE_SAFEVALR_LOW)
 366:src-gen/steval_ttm007a.h **** 
 367:src-gen/steval_ttm007a.h **** #define TIM1_CH3N gpio_iopack(GPIO_PORT_D, GPIO_PIN_3) /* PD[3] */
 368:src-gen/steval_ttm007a.h **** #define TIM1_CH3N_CFG                               \
 369:src-gen/steval_ttm007a.h **** 	(GPIO_MODE_MODER_ALTERNATE |                    \
 370:src-gen/steval_ttm007a.h **** 	 GPIO_MODE_OTYPER_PUSHPULL |                    \
 371:src-gen/steval_ttm007a.h **** 	 GPIO_MODE_OSPEEDR_HIGH |                       \
 372:src-gen/steval_ttm007a.h **** 	 GPIO_MODE_PUPDR_FLOATING |                     \
 373:src-gen/steval_ttm007a.h **** 	 GPIO_MODE_AFR(4U) |                            \
 374:src-gen/steval_ttm007a.h **** 	 GPIO_MODE_IHYSTR_CMOS |                        \
 375:src-gen/steval_ttm007a.h **** 	 GPIO_MODE_TRIGENR_IN_DISABLED |                \
 376:src-gen/steval_ttm007a.h **** 	 GPIO_MODE_SAFESELR_DISABLED |                  \
 377:src-gen/steval_ttm007a.h **** 	 GPIO_MODE_SAFEVALR_LOW)
 378:src-gen/steval_ttm007a.h **** 
 379:src-gen/steval_ttm007a.h **** #define TIM1_CH3 gpio_iopack(GPIO_PORT_D, GPIO_PIN_4) /* PD[4] */
 380:src-gen/steval_ttm007a.h **** #define TIM1_CH3_CFG                                \
 381:src-gen/steval_ttm007a.h **** 	(GPIO_MODE_MODER_ALTERNATE |                    \
 382:src-gen/steval_ttm007a.h **** 	 GPIO_MODE_OTYPER_PUSHPULL |                    \
 383:src-gen/steval_ttm007a.h **** 	 GPIO_MODE_OSPEEDR_HIGH |                       \
 384:src-gen/steval_ttm007a.h **** 	 GPIO_MODE_PUPDR_FLOATING |                     \
 385:src-gen/steval_ttm007a.h **** 	 GPIO_MODE_AFR(4U) |                            \
 386:src-gen/steval_ttm007a.h **** 	 GPIO_MODE_IHYSTR_CMOS |                        \
 387:src-gen/steval_ttm007a.h **** 	 GPIO_MODE_TRIGENR_IN_DISABLED |                \
 388:src-gen/steval_ttm007a.h **** 	 GPIO_MODE_SAFESELR_DISABLED |                  \
 389:src-gen/steval_ttm007a.h **** 	 GPIO_MODE_SAFEVALR_LOW)
 390:src-gen/steval_ttm007a.h **** 
 391:src-gen/steval_ttm007a.h **** 
 392:src-gen/steval_ttm007a.h **** /*--------------------- TIM8 pins definitions ---------------------*/
 393:src-gen/steval_ttm007a.h **** #define TIM8_CH1N gpio_iopack(GPIO_PORT_I, GPIO_PIN_1) /* PI[1] */
 394:src-gen/steval_ttm007a.h **** #define TIM8_CH1N_CFG                               \
 395:src-gen/steval_ttm007a.h **** 	(GPIO_MODE_MODER_ALTERNATE |                    \
 396:src-gen/steval_ttm007a.h **** 	 GPIO_MODE_OTYPER_PUSHPULL |                    \
 397:src-gen/steval_ttm007a.h **** 	 GPIO_MODE_OSPEEDR_HIGH |                       \
 398:src-gen/steval_ttm007a.h **** 	 GPIO_MODE_PUPDR_FLOATING |                     \
 399:src-gen/steval_ttm007a.h **** 	 GPIO_MODE_AFR(4U) |                            \
 400:src-gen/steval_ttm007a.h **** 	 GPIO_MODE_IHYSTR_CMOS |                        \
 401:src-gen/steval_ttm007a.h **** 	 GPIO_MODE_TRIGENR_IN_DISABLED |                \
 402:src-gen/steval_ttm007a.h **** 	 GPIO_MODE_SAFESELR_DISABLED |                  \
 403:src-gen/steval_ttm007a.h **** 	 GPIO_MODE_SAFEVALR_LOW)
 404:src-gen/steval_ttm007a.h **** 
 405:src-gen/steval_ttm007a.h **** #define TIM8_CH1 gpio_iopack(GPIO_PORT_I, GPIO_PIN_0) /* PI[0] */
 406:src-gen/steval_ttm007a.h **** #define TIM8_CH1_CFG                                \
 407:src-gen/steval_ttm007a.h **** 	(GPIO_MODE_MODER_ALTERNATE |                    \
 408:src-gen/steval_ttm007a.h **** 	 GPIO_MODE_OTYPER_PUSHPULL |                    \
 409:src-gen/steval_ttm007a.h **** 	 GPIO_MODE_OSPEEDR_HIGH |                       \
 410:src-gen/steval_ttm007a.h **** 	 GPIO_MODE_PUPDR_FLOATING |                     \
 411:src-gen/steval_ttm007a.h **** 	 GPIO_MODE_AFR(4U) |                            \
 412:src-gen/steval_ttm007a.h **** 	 GPIO_MODE_IHYSTR_CMOS |                        \
 413:src-gen/steval_ttm007a.h **** 	 GPIO_MODE_TRIGENR_IN_DISABLED |                \
 414:src-gen/steval_ttm007a.h **** 	 GPIO_MODE_SAFESELR_DISABLED |                  \
 415:src-gen/steval_ttm007a.h **** 	 GPIO_MODE_SAFEVALR_LOW)
 416:src-gen/steval_ttm007a.h **** 
 417:src-gen/steval_ttm007a.h **** #define TIM8_CH2N gpio_iopack(GPIO_PORT_I, GPIO_PIN_3) /* PI[3] */
 418:src-gen/steval_ttm007a.h **** #define TIM8_CH2N_CFG                               \
 419:src-gen/steval_ttm007a.h **** 	(GPIO_MODE_MODER_ALTERNATE |                    \
 420:src-gen/steval_ttm007a.h **** 	 GPIO_MODE_OTYPER_PUSHPULL |                    \
 421:src-gen/steval_ttm007a.h **** 	 GPIO_MODE_OSPEEDR_HIGH |                       \
 422:src-gen/steval_ttm007a.h **** 	 GPIO_MODE_PUPDR_FLOATING |                     \
 423:src-gen/steval_ttm007a.h **** 	 GPIO_MODE_AFR(4U) |                            \
 424:src-gen/steval_ttm007a.h **** 	 GPIO_MODE_IHYSTR_CMOS |                        \
 425:src-gen/steval_ttm007a.h **** 	 GPIO_MODE_TRIGENR_IN_DISABLED |                \
 426:src-gen/steval_ttm007a.h **** 	 GPIO_MODE_SAFESELR_DISABLED |                  \
 427:src-gen/steval_ttm007a.h **** 	 GPIO_MODE_SAFEVALR_LOW)
 428:src-gen/steval_ttm007a.h **** 
 429:src-gen/steval_ttm007a.h **** #define TIM8_CH2 gpio_iopack(GPIO_PORT_I, GPIO_PIN_2) /* PI[2] */
 430:src-gen/steval_ttm007a.h **** #define TIM8_CH2_CFG                                \
 431:src-gen/steval_ttm007a.h **** 	(GPIO_MODE_MODER_ALTERNATE |                    \
 432:src-gen/steval_ttm007a.h **** 	 GPIO_MODE_OTYPER_PUSHPULL |                    \
 433:src-gen/steval_ttm007a.h **** 	 GPIO_MODE_OSPEEDR_HIGH |                       \
 434:src-gen/steval_ttm007a.h **** 	 GPIO_MODE_PUPDR_FLOATING |                     \
 435:src-gen/steval_ttm007a.h **** 	 GPIO_MODE_AFR(4U) |                            \
 436:src-gen/steval_ttm007a.h **** 	 GPIO_MODE_IHYSTR_CMOS |                        \
 437:src-gen/steval_ttm007a.h **** 	 GPIO_MODE_TRIGENR_IN_DISABLED |                \
 438:src-gen/steval_ttm007a.h **** 	 GPIO_MODE_SAFESELR_DISABLED |                  \
 439:src-gen/steval_ttm007a.h **** 	 GPIO_MODE_SAFEVALR_LOW)
 440:src-gen/steval_ttm007a.h **** 
 441:src-gen/steval_ttm007a.h **** #define TIM8_BKIN gpio_iopack(GPIO_PORT_I, GPIO_PIN_8) /* PI[8] */
 442:src-gen/steval_ttm007a.h **** #define TIM8_BKIN_CFG                               \
 443:src-gen/steval_ttm007a.h **** 	(GPIO_MODE_MODER_ALTERNATE |                    \
 444:src-gen/steval_ttm007a.h **** 	 GPIO_MODE_OTYPER_PUSHPULL |                    \
 445:src-gen/steval_ttm007a.h **** 	 GPIO_MODE_OSPEEDR_LOW |                        \
 446:src-gen/steval_ttm007a.h **** 	 GPIO_MODE_PUPDR_FLOATING |                     \
 447:src-gen/steval_ttm007a.h **** 	 GPIO_MODE_AFR(4U) |                            \
 448:src-gen/steval_ttm007a.h **** 	 GPIO_MODE_IHYSTR_CMOS |                        \
 449:src-gen/steval_ttm007a.h **** 	 GPIO_MODE_TRIGENR_IN_ENABLED |                 \
 450:src-gen/steval_ttm007a.h **** 	 GPIO_MODE_SAFESELR_DISABLED |                  \
 451:src-gen/steval_ttm007a.h **** 	 GPIO_MODE_SAFEVALR_LOW)
 452:src-gen/steval_ttm007a.h **** 
 453:src-gen/steval_ttm007a.h **** #define TIM8_BKIN2 gpio_iopack(GPIO_PORT_I, GPIO_PIN_9) /* PI[9] */
 454:src-gen/steval_ttm007a.h **** #define TIM8_BKIN2_CFG                              \
 455:src-gen/steval_ttm007a.h **** 	(GPIO_MODE_MODER_ALTERNATE |                    \
 456:src-gen/steval_ttm007a.h **** 	 GPIO_MODE_OTYPER_PUSHPULL |                    \
 457:src-gen/steval_ttm007a.h **** 	 GPIO_MODE_OSPEEDR_LOW |                        \
 458:src-gen/steval_ttm007a.h **** 	 GPIO_MODE_PUPDR_FLOATING |                     \
 459:src-gen/steval_ttm007a.h **** 	 GPIO_MODE_AFR(4U) |                            \
 460:src-gen/steval_ttm007a.h **** 	 GPIO_MODE_IHYSTR_CMOS |                        \
 461:src-gen/steval_ttm007a.h **** 	 GPIO_MODE_TRIGENR_IN_ENABLED |                 \
 462:src-gen/steval_ttm007a.h **** 	 GPIO_MODE_SAFESELR_DISABLED |                  \
 463:src-gen/steval_ttm007a.h **** 	 GPIO_MODE_SAFEVALR_LOW)
 464:src-gen/steval_ttm007a.h **** 
 465:src-gen/steval_ttm007a.h **** #define TIM8_CH3N gpio_iopack(GPIO_PORT_I, GPIO_PIN_5) /* PI[5] */
 466:src-gen/steval_ttm007a.h **** #define TIM8_CH3N_CFG                               \
 467:src-gen/steval_ttm007a.h **** 	(GPIO_MODE_MODER_ALTERNATE |                    \
 468:src-gen/steval_ttm007a.h **** 	 GPIO_MODE_OTYPER_PUSHPULL |                    \
 469:src-gen/steval_ttm007a.h **** 	 GPIO_MODE_OSPEEDR_HIGH |                       \
 470:src-gen/steval_ttm007a.h **** 	 GPIO_MODE_PUPDR_FLOATING |                     \
 471:src-gen/steval_ttm007a.h **** 	 GPIO_MODE_AFR(4U) |                            \
 472:src-gen/steval_ttm007a.h **** 	 GPIO_MODE_IHYSTR_CMOS |                        \
 473:src-gen/steval_ttm007a.h **** 	 GPIO_MODE_TRIGENR_IN_DISABLED |                \
 474:src-gen/steval_ttm007a.h **** 	 GPIO_MODE_SAFESELR_DISABLED |                  \
 475:src-gen/steval_ttm007a.h **** 	 GPIO_MODE_SAFEVALR_LOW)
 476:src-gen/steval_ttm007a.h **** 
 477:src-gen/steval_ttm007a.h **** #define TIM8_CH3 gpio_iopack(GPIO_PORT_I, GPIO_PIN_4) /* PI[4] */
 478:src-gen/steval_ttm007a.h **** #define TIM8_CH3_CFG                                \
 479:src-gen/steval_ttm007a.h **** 	(GPIO_MODE_MODER_ALTERNATE |                    \
 480:src-gen/steval_ttm007a.h **** 	 GPIO_MODE_OTYPER_PUSHPULL |                    \
 481:src-gen/steval_ttm007a.h **** 	 GPIO_MODE_OSPEEDR_HIGH |                       \
 482:src-gen/steval_ttm007a.h **** 	 GPIO_MODE_PUPDR_FLOATING |                     \
 483:src-gen/steval_ttm007a.h **** 	 GPIO_MODE_AFR(4U) |                            \
 484:src-gen/steval_ttm007a.h **** 	 GPIO_MODE_IHYSTR_CMOS |                        \
 485:src-gen/steval_ttm007a.h **** 	 GPIO_MODE_TRIGENR_IN_DISABLED |                \
 486:src-gen/steval_ttm007a.h **** 	 GPIO_MODE_SAFESELR_DISABLED |                  \
 487:src-gen/steval_ttm007a.h **** 	 GPIO_MODE_SAFEVALR_LOW)
 488:src-gen/steval_ttm007a.h **** 
 489:src-gen/steval_ttm007a.h **** 
 490:src-gen/steval_ttm007a.h **** /*--------------------- SPI1 pins definitions ---------------------*/
 491:src-gen/steval_ttm007a.h **** #define SPI1_MOSI gpio_iopack(GPIO_PORT_E, GPIO_PIN_5) /* PE[5] */
 492:src-gen/steval_ttm007a.h **** #define SPI1_MOSI_CFG                               \
 493:src-gen/steval_ttm007a.h **** 	(GPIO_MODE_MODER_ALTERNATE |                    \
 494:src-gen/steval_ttm007a.h **** 	 GPIO_MODE_OTYPER_PUSHPULL |                    \
 495:src-gen/steval_ttm007a.h **** 	 GPIO_MODE_OSPEEDR_HIGH |                       \
 496:src-gen/steval_ttm007a.h **** 	 GPIO_MODE_PUPDR_FLOATING |                     \
 497:src-gen/steval_ttm007a.h **** 	 GPIO_MODE_AFR(5U) |                            \
 498:src-gen/steval_ttm007a.h **** 	 GPIO_MODE_IHYSTR_CMOS |                        \
 499:src-gen/steval_ttm007a.h **** 	 GPIO_MODE_TRIGENR_IN_ENABLED |                 \
 500:src-gen/steval_ttm007a.h **** 	 GPIO_MODE_SAFESELR_DISABLED |                  \
 501:src-gen/steval_ttm007a.h **** 	 GPIO_MODE_SAFEVALR_LOW)
 502:src-gen/steval_ttm007a.h **** 
 503:src-gen/steval_ttm007a.h **** #define SPI1_MISO gpio_iopack(GPIO_PORT_E, GPIO_PIN_6) /* PE[6] */
 504:src-gen/steval_ttm007a.h **** #define SPI1_MISO_CFG                               \
 505:src-gen/steval_ttm007a.h **** 	(GPIO_MODE_MODER_ALTERNATE |                    \
 506:src-gen/steval_ttm007a.h **** 	 GPIO_MODE_OTYPER_PUSHPULL |                    \
 507:src-gen/steval_ttm007a.h **** 	 GPIO_MODE_OSPEEDR_HIGH |                       \
 508:src-gen/steval_ttm007a.h **** 	 GPIO_MODE_PUPDR_FLOATING |                     \
 509:src-gen/steval_ttm007a.h **** 	 GPIO_MODE_AFR(5U) |                            \
 510:src-gen/steval_ttm007a.h **** 	 GPIO_MODE_IHYSTR_CMOS |                        \
 511:src-gen/steval_ttm007a.h **** 	 GPIO_MODE_TRIGENR_IN_ENABLED |                 \
 512:src-gen/steval_ttm007a.h **** 	 GPIO_MODE_SAFESELR_DISABLED |                  \
 513:src-gen/steval_ttm007a.h **** 	 GPIO_MODE_SAFEVALR_LOW)
 514:src-gen/steval_ttm007a.h **** 
 515:src-gen/steval_ttm007a.h **** #define SPI1_SCK gpio_iopack(GPIO_PORT_E, GPIO_PIN_7) /* PE[7] */
 516:src-gen/steval_ttm007a.h **** #define SPI1_SCK_CFG                                \
 517:src-gen/steval_ttm007a.h **** 	(GPIO_MODE_MODER_ALTERNATE |                    \
 518:src-gen/steval_ttm007a.h **** 	 GPIO_MODE_OTYPER_PUSHPULL |                    \
 519:src-gen/steval_ttm007a.h **** 	 GPIO_MODE_OSPEEDR_HIGH |                       \
 520:src-gen/steval_ttm007a.h **** 	 GPIO_MODE_PUPDR_FLOATING |                     \
 521:src-gen/steval_ttm007a.h **** 	 GPIO_MODE_AFR(5U) |                            \
 522:src-gen/steval_ttm007a.h **** 	 GPIO_MODE_IHYSTR_CMOS |                        \
 523:src-gen/steval_ttm007a.h **** 	 GPIO_MODE_TRIGENR_IN_ENABLED |                 \
 524:src-gen/steval_ttm007a.h **** 	 GPIO_MODE_SAFESELR_DISABLED |                  \
 525:src-gen/steval_ttm007a.h **** 	 GPIO_MODE_SAFEVALR_LOW)
 526:src-gen/steval_ttm007a.h **** 
 527:src-gen/steval_ttm007a.h **** 
 528:src-gen/steval_ttm007a.h **** /*--------------------- SPI3 pins definitions ---------------------*/
 529:src-gen/steval_ttm007a.h **** #define SPI3_MOSI gpio_iopack(GPIO_PORT_D, GPIO_PIN_12) /* PD[12] */
 530:src-gen/steval_ttm007a.h **** #define SPI3_MOSI_CFG                               \
 531:src-gen/steval_ttm007a.h **** 	(GPIO_MODE_MODER_ALTERNATE |                    \
 532:src-gen/steval_ttm007a.h **** 	 GPIO_MODE_OTYPER_PUSHPULL |                    \
 533:src-gen/steval_ttm007a.h **** 	 GPIO_MODE_OSPEEDR_HIGH |                       \
 534:src-gen/steval_ttm007a.h **** 	 GPIO_MODE_PUPDR_FLOATING |                     \
 535:src-gen/steval_ttm007a.h **** 	 GPIO_MODE_AFR(5U) |                            \
 536:src-gen/steval_ttm007a.h **** 	 GPIO_MODE_IHYSTR_CMOS |                        \
 537:src-gen/steval_ttm007a.h **** 	 GPIO_MODE_TRIGENR_IN_ENABLED |                 \
 538:src-gen/steval_ttm007a.h **** 	 GPIO_MODE_SAFESELR_DISABLED |                  \
 539:src-gen/steval_ttm007a.h **** 	 GPIO_MODE_SAFEVALR_LOW)
 540:src-gen/steval_ttm007a.h **** 
 541:src-gen/steval_ttm007a.h **** #define SPI3_MISO gpio_iopack(GPIO_PORT_D, GPIO_PIN_11) /* PD[11] */
 542:src-gen/steval_ttm007a.h **** #define SPI3_MISO_CFG                               \
 543:src-gen/steval_ttm007a.h **** 	(GPIO_MODE_MODER_ALTERNATE |                    \
 544:src-gen/steval_ttm007a.h **** 	 GPIO_MODE_OTYPER_PUSHPULL |                    \
 545:src-gen/steval_ttm007a.h **** 	 GPIO_MODE_OSPEEDR_HIGH |                       \
 546:src-gen/steval_ttm007a.h **** 	 GPIO_MODE_PUPDR_FLOATING |                     \
 547:src-gen/steval_ttm007a.h **** 	 GPIO_MODE_AFR(5U) |                            \
 548:src-gen/steval_ttm007a.h **** 	 GPIO_MODE_IHYSTR_CMOS |                        \
 549:src-gen/steval_ttm007a.h **** 	 GPIO_MODE_TRIGENR_IN_ENABLED |                 \
 550:src-gen/steval_ttm007a.h **** 	 GPIO_MODE_SAFESELR_DISABLED |                  \
 551:src-gen/steval_ttm007a.h **** 	 GPIO_MODE_SAFEVALR_LOW)
 552:src-gen/steval_ttm007a.h **** 
 553:src-gen/steval_ttm007a.h **** #define SPI3_SCK gpio_iopack(GPIO_PORT_D, GPIO_PIN_10) /* PD[10] */
 554:src-gen/steval_ttm007a.h **** #define SPI3_SCK_CFG                                \
 555:src-gen/steval_ttm007a.h **** 	(GPIO_MODE_MODER_ALTERNATE |                    \
 556:src-gen/steval_ttm007a.h **** 	 GPIO_MODE_OTYPER_PUSHPULL |                    \
 557:src-gen/steval_ttm007a.h **** 	 GPIO_MODE_OSPEEDR_HIGH |                       \
 558:src-gen/steval_ttm007a.h **** 	 GPIO_MODE_PUPDR_FLOATING |                     \
 559:src-gen/steval_ttm007a.h **** 	 GPIO_MODE_AFR(5U) |                            \
 560:src-gen/steval_ttm007a.h **** 	 GPIO_MODE_IHYSTR_CMOS |                        \
 561:src-gen/steval_ttm007a.h **** 	 GPIO_MODE_TRIGENR_IN_ENABLED |                 \
 562:src-gen/steval_ttm007a.h **** 	 GPIO_MODE_SAFESELR_DISABLED |                  \
 563:src-gen/steval_ttm007a.h **** 	 GPIO_MODE_SAFEVALR_LOW)
 564:src-gen/steval_ttm007a.h **** 
 565:src-gen/steval_ttm007a.h **** #define SPI3_NSS gpio_iopack(GPIO_PORT_D, GPIO_PIN_13) /* PD[13] */
 566:src-gen/steval_ttm007a.h **** #define SPI3_NSS_CFG                                \
 567:src-gen/steval_ttm007a.h **** 	(GPIO_MODE_MODER_ALTERNATE |                    \
 568:src-gen/steval_ttm007a.h **** 	 GPIO_MODE_OTYPER_PUSHPULL |                    \
 569:src-gen/steval_ttm007a.h **** 	 GPIO_MODE_OSPEEDR_HIGH |                       \
 570:src-gen/steval_ttm007a.h **** 	 GPIO_MODE_PUPDR_FLOATING |                     \
 571:src-gen/steval_ttm007a.h **** 	 GPIO_MODE_AFR(5U) |                            \
 572:src-gen/steval_ttm007a.h **** 	 GPIO_MODE_IHYSTR_CMOS |                        \
 573:src-gen/steval_ttm007a.h **** 	 GPIO_MODE_TRIGENR_IN_ENABLED |                 \
 574:src-gen/steval_ttm007a.h **** 	 GPIO_MODE_SAFESELR_DISABLED |                  \
 575:src-gen/steval_ttm007a.h **** 	 GPIO_MODE_SAFEVALR_LOW)
 576:src-gen/steval_ttm007a.h **** 
 577:src-gen/steval_ttm007a.h **** 
 578:src-gen/steval_ttm007a.h **** /*--------------------- TIM3 pins definitions ---------------------*/
 579:src-gen/steval_ttm007a.h **** #define TIM3_CH1 gpio_iopack(GPIO_PORT_G, GPIO_PIN_14) /* PG[14] */
 580:src-gen/steval_ttm007a.h **** #define TIM3_CH1_CFG                                \
 581:src-gen/steval_ttm007a.h **** 	(GPIO_MODE_MODER_ALTERNATE |                    \
 582:src-gen/steval_ttm007a.h **** 	 GPIO_MODE_OTYPER_PUSHPULL |                    \
 583:src-gen/steval_ttm007a.h **** 	 GPIO_MODE_OSPEEDR_LOW |                        \
 584:src-gen/steval_ttm007a.h **** 	 GPIO_MODE_PUPDR_FLOATING |                     \
 585:src-gen/steval_ttm007a.h **** 	 GPIO_MODE_AFR(2U) |                            \
 586:src-gen/steval_ttm007a.h **** 	 GPIO_MODE_IHYSTR_CMOS |                        \
 587:src-gen/steval_ttm007a.h **** 	 GPIO_MODE_TRIGENR_IN_ENABLED |                 \
 588:src-gen/steval_ttm007a.h **** 	 GPIO_MODE_SAFESELR_DISABLED |                  \
 589:src-gen/steval_ttm007a.h **** 	 GPIO_MODE_SAFEVALR_LOW)
 590:src-gen/steval_ttm007a.h **** 
 591:src-gen/steval_ttm007a.h **** #define TIM3_CH2 gpio_iopack(GPIO_PORT_G, GPIO_PIN_15) /* PG[15] */
 592:src-gen/steval_ttm007a.h **** #define TIM3_CH2_CFG                                \
 593:src-gen/steval_ttm007a.h **** 	(GPIO_MODE_MODER_ALTERNATE |                    \
 594:src-gen/steval_ttm007a.h **** 	 GPIO_MODE_OTYPER_PUSHPULL |                    \
 595:src-gen/steval_ttm007a.h **** 	 GPIO_MODE_OSPEEDR_LOW |                        \
 596:src-gen/steval_ttm007a.h **** 	 GPIO_MODE_PUPDR_FLOATING |                     \
 597:src-gen/steval_ttm007a.h **** 	 GPIO_MODE_AFR(2U) |                            \
 598:src-gen/steval_ttm007a.h **** 	 GPIO_MODE_IHYSTR_CMOS |                        \
 599:src-gen/steval_ttm007a.h **** 	 GPIO_MODE_TRIGENR_IN_ENABLED |                 \
 600:src-gen/steval_ttm007a.h **** 	 GPIO_MODE_SAFESELR_DISABLED |                  \
 601:src-gen/steval_ttm007a.h **** 	 GPIO_MODE_SAFEVALR_LOW)
 602:src-gen/steval_ttm007a.h **** 
 603:src-gen/steval_ttm007a.h **** 
 604:src-gen/steval_ttm007a.h **** /*--------------------- TIM2 pins definitions ---------------------*/
 605:src-gen/steval_ttm007a.h **** #define TIM2_CH1 gpio_iopack(GPIO_PORT_H, GPIO_PIN_2) /* PH[2] */
 606:src-gen/steval_ttm007a.h **** #define TIM2_CH1_CFG                                \
 607:src-gen/steval_ttm007a.h **** 	(GPIO_MODE_MODER_ALTERNATE |                    \
 608:src-gen/steval_ttm007a.h **** 	 GPIO_MODE_OTYPER_PUSHPULL |                    \
 609:src-gen/steval_ttm007a.h **** 	 GPIO_MODE_OSPEEDR_LOW |                        \
 610:src-gen/steval_ttm007a.h **** 	 GPIO_MODE_PUPDR_FLOATING |                     \
 611:src-gen/steval_ttm007a.h **** 	 GPIO_MODE_AFR(1U) |                            \
 612:src-gen/steval_ttm007a.h **** 	 GPIO_MODE_IHYSTR_CMOS |                        \
 613:src-gen/steval_ttm007a.h **** 	 GPIO_MODE_TRIGENR_IN_ENABLED |                 \
 614:src-gen/steval_ttm007a.h **** 	 GPIO_MODE_SAFESELR_DISABLED |                  \
 615:src-gen/steval_ttm007a.h **** 	 GPIO_MODE_SAFEVALR_LOW)
 616:src-gen/steval_ttm007a.h **** 
 617:src-gen/steval_ttm007a.h **** 
 618:src-gen/steval_ttm007a.h **** /*--------------------- GPIO pins definitions ---------------------*/
 619:src-gen/steval_ttm007a.h **** #define USER_LED_1 gpio_iopack(GPIO_PORT_H, GPIO_PIN_12) /* PH[12] */
 620:src-gen/steval_ttm007a.h **** #define USER_LED_1_CFG                              \
 621:src-gen/steval_ttm007a.h **** 	(GPIO_MODE_MODER_OUTPUT |                       \
 622:src-gen/steval_ttm007a.h **** 	 GPIO_MODE_OTYPER_PUSHPULL |                    \
 623:src-gen/steval_ttm007a.h **** 	 GPIO_MODE_OSPEEDR_LOW |                        \
 624:src-gen/steval_ttm007a.h **** 	 GPIO_MODE_PUPDR_FLOATING |                     \
 625:src-gen/steval_ttm007a.h **** 	 GPIO_MODE_AFR(12U) |                           \
 626:src-gen/steval_ttm007a.h **** 	 GPIO_MODE_IHYSTR_CMOS |                        \
 627:src-gen/steval_ttm007a.h **** 	 GPIO_MODE_TRIGENR_IN_DISABLED |                \
 628:src-gen/steval_ttm007a.h **** 	 GPIO_MODE_SAFESELR_DISABLED |                  \
 629:src-gen/steval_ttm007a.h **** 	 GPIO_MODE_SAFEVALR_LOW)
 630:src-gen/steval_ttm007a.h **** 
 631:src-gen/steval_ttm007a.h **** #define USER_LED_2 gpio_iopack(GPIO_PORT_H, GPIO_PIN_13) /* PH[13] */
 632:src-gen/steval_ttm007a.h **** #define USER_LED_2_CFG                              \
 633:src-gen/steval_ttm007a.h **** 	(GPIO_MODE_MODER_OUTPUT |                       \
 634:src-gen/steval_ttm007a.h **** 	 GPIO_MODE_OTYPER_PUSHPULL |                    \
 635:src-gen/steval_ttm007a.h **** 	 GPIO_MODE_OSPEEDR_LOW |                        \
 636:src-gen/steval_ttm007a.h **** 	 GPIO_MODE_PUPDR_FLOATING |                     \
 637:src-gen/steval_ttm007a.h **** 	 GPIO_MODE_AFR(12U) |                           \
 638:src-gen/steval_ttm007a.h **** 	 GPIO_MODE_IHYSTR_CMOS |                        \
 639:src-gen/steval_ttm007a.h **** 	 GPIO_MODE_TRIGENR_IN_DISABLED |                \
 640:src-gen/steval_ttm007a.h **** 	 GPIO_MODE_SAFESELR_DISABLED |                  \
 641:src-gen/steval_ttm007a.h **** 	 GPIO_MODE_SAFEVALR_LOW)
 642:src-gen/steval_ttm007a.h **** 
 643:src-gen/steval_ttm007a.h **** 
 644:src-gen/steval_ttm007a.h **** /*--------------------- UART3 pins definitions ---------------------*/
 645:src-gen/steval_ttm007a.h **** #define UART3_RX gpio_iopack(GPIO_PORT_H, GPIO_PIN_14) /* PH[14] */
 646:src-gen/steval_ttm007a.h **** #define UART3_RX_CFG                                \
 647:src-gen/steval_ttm007a.h **** 	(GPIO_MODE_MODER_ALTERNATE |                    \
 648:src-gen/steval_ttm007a.h **** 	 GPIO_MODE_OTYPER_PUSHPULL |                    \
 649:src-gen/steval_ttm007a.h **** 	 GPIO_MODE_OSPEEDR_LOW |                        \
 650:src-gen/steval_ttm007a.h **** 	 GPIO_MODE_PUPDR_FLOATING |                     \
 651:src-gen/steval_ttm007a.h **** 	 GPIO_MODE_AFR(7U) |                            \
 652:src-gen/steval_ttm007a.h **** 	 GPIO_MODE_IHYSTR_CMOS |                        \
 653:src-gen/steval_ttm007a.h **** 	 GPIO_MODE_TRIGENR_IN_ENABLED |                 \
 654:src-gen/steval_ttm007a.h **** 	 GPIO_MODE_SAFESELR_DISABLED |                  \
 655:src-gen/steval_ttm007a.h **** 	 GPIO_MODE_SAFEVALR_LOW)
 656:src-gen/steval_ttm007a.h **** 
 657:src-gen/steval_ttm007a.h **** #define UART3_TX gpio_iopack(GPIO_PORT_H, GPIO_PIN_15) /* PH[15] */
 658:src-gen/steval_ttm007a.h **** #define UART3_TX_CFG                                \
 659:src-gen/steval_ttm007a.h **** 	(GPIO_MODE_MODER_ALTERNATE |                    \
 660:src-gen/steval_ttm007a.h **** 	 GPIO_MODE_OTYPER_PUSHPULL |                    \
 661:src-gen/steval_ttm007a.h **** 	 GPIO_MODE_OSPEEDR_LOW |                        \
 662:src-gen/steval_ttm007a.h **** 	 GPIO_MODE_PUPDR_FLOATING |                     \
 663:src-gen/steval_ttm007a.h **** 	 GPIO_MODE_AFR(7U) |                            \
 664:src-gen/steval_ttm007a.h **** 	 GPIO_MODE_IHYSTR_CMOS |                        \
 665:src-gen/steval_ttm007a.h **** 	 GPIO_MODE_TRIGENR_IN_DISABLED |                \
 666:src-gen/steval_ttm007a.h **** 	 GPIO_MODE_SAFESELR_DISABLED |                  \
 667:src-gen/steval_ttm007a.h **** 	 GPIO_MODE_SAFEVALR_LOW)
 668:src-gen/steval_ttm007a.h **** 
 669:src-gen/steval_ttm007a.h **** 
 670:src-gen/steval_ttm007a.h **** 
 671:src-gen/steval_ttm007a.h **** /*===========================================================================*/
 672:src-gen/steval_ttm007a.h **** /* Module pre-compile time settings.                                         */
 673:src-gen/steval_ttm007a.h **** /*===========================================================================*/
 674:src-gen/steval_ttm007a.h **** 
 675:src-gen/steval_ttm007a.h **** /*===========================================================================*/
 676:src-gen/steval_ttm007a.h **** /* Derived constants and error checks.                                       */
 677:src-gen/steval_ttm007a.h **** /*===========================================================================*/
 678:src-gen/steval_ttm007a.h **** 
 679:src-gen/steval_ttm007a.h **** /*===========================================================================*/
 680:src-gen/steval_ttm007a.h **** /* Module data structures and types.                                         */
 681:src-gen/steval_ttm007a.h **** /*===========================================================================*/
 682:src-gen/steval_ttm007a.h **** 
 683:src-gen/steval_ttm007a.h **** /*===========================================================================*/
 684:src-gen/steval_ttm007a.h **** /* Module macros.                                                            */
 685:src-gen/steval_ttm007a.h **** /*===========================================================================*/
 686:src-gen/steval_ttm007a.h **** 
 687:src-gen/steval_ttm007a.h **** /*===========================================================================*/
 688:src-gen/steval_ttm007a.h **** /* External declarations.                                                    */
 689:src-gen/steval_ttm007a.h **** /*===========================================================================*/
 690:src-gen/steval_ttm007a.h **** 
 691:src-gen/steval_ttm007a.h **** #if !defined(_FROM_ASM_)
 692:src-gen/steval_ttm007a.h **** #ifdef __cplusplus
 693:src-gen/steval_ttm007a.h **** extern "C" {
 694:src-gen/steval_ttm007a.h **** #endif
 695:src-gen/steval_ttm007a.h **** 
 696:src-gen/steval_ttm007a.h **** #ifdef __cplusplus
 697:src-gen/steval_ttm007a.h **** }
 698:src-gen/steval_ttm007a.h **** #endif
 699:src-gen/steval_ttm007a.h **** #endif /* _FROM_ASM_ */
 700:src-gen/steval_ttm007a.h **** 
 701:src-gen/steval_ttm007a.h **** /*===========================================================================*/
 702:src-gen/steval_ttm007a.h **** /* Module inline functions.                                                  */
 703:src-gen/steval_ttm007a.h **** /*===========================================================================*/
 704:src-gen/steval_ttm007a.h **** 
 705:src-gen/steval_ttm007a.h **** 
 706:src-gen/steval_ttm007a.h **** __STATIC_INLINE void steval_ttm007a_init(void) {
 815              		.loc 2 706 48
 816              		.cfi_startproc
 817              		@ args = 0, pretend = 0, frame = 0
 818              		@ frame_needed = 0, uses_anonymous_args = 0
 819 0000 08B5     		push	{r3, lr}
 820              		.cfi_def_cfa_offset 8
 821              		.cfi_offset 3, -8
 822              		.cfi_offset 14, -4
 707:src-gen/steval_ttm007a.h **** 	
 708:src-gen/steval_ttm007a.h **** 	/* GPIO */
 709:src-gen/steval_ttm007a.h **** 	gpio_set_pin_mode(PIN_GPIO4_3, PIN_GPIO4_3_CFG);
 823              		.loc 2 709 2
 824 0002 0921     		movs	r1, #9
 825 0004 4320     		movs	r0, #67
 826 0006 FFF7FEFF 		bl	gpio_set_pin_mode
 710:src-gen/steval_ttm007a.h **** 	gpio_set_pin_mode(PIN_GPIO4_2, PIN_GPIO4_2_CFG);
 827              		.loc 2 710 2
 828 000a 0921     		movs	r1, #9
 829 000c 4220     		movs	r0, #66
 830 000e FFF7FEFF 		bl	gpio_set_pin_mode
 711:src-gen/steval_ttm007a.h **** 	gpio_set_pin_mode(PIN_GPIO4_1, PIN_GPIO4_1_CFG);
 831              		.loc 2 711 2
 832 0012 0921     		movs	r1, #9
 833 0014 4120     		movs	r0, #65
 834 0016 FFF7FEFF 		bl	gpio_set_pin_mode
 712:src-gen/steval_ttm007a.h **** 	gpio_set_pin_mode(PIN_GPIO4_4, PIN_GPIO4_4_CFG);
 835              		.loc 2 712 2
 836 001a 0821     		movs	r1, #8
 837 001c 4420     		movs	r0, #68
 838 001e FFF7FEFF 		bl	gpio_set_pin_mode
 713:src-gen/steval_ttm007a.h **** 
 714:src-gen/steval_ttm007a.h **** 	/* CAN1 */
 715:src-gen/steval_ttm007a.h **** 	gpio_set_pin_mode(CAN1_RX, CAN1_RX_CFG);
 839              		.loc 2 715 2
 840 0022 42F20231 		movw	r1, #8962
 841 0026 0420     		movs	r0, #4
 842 0028 FFF7FEFF 		bl	gpio_set_pin_mode
 716:src-gen/steval_ttm007a.h **** 	gpio_set_pin_mode(CAN1_TX, CAN1_TX_CFG);
 843              		.loc 2 716 2
 844 002c 40F20231 		movw	r1, #770
 845 0030 0520     		movs	r0, #5
 846 0032 FFF7FEFF 		bl	gpio_set_pin_mode
 717:src-gen/steval_ttm007a.h **** 
 718:src-gen/steval_ttm007a.h **** 	/* CAN2 */
 719:src-gen/steval_ttm007a.h **** 	gpio_set_pin_mode(CAN2_RX, CAN2_RX_CFG);
 847              		.loc 2 719 2
 848 0036 42F20231 		movw	r1, #8962
 849 003a 3820     		movs	r0, #56
 850 003c FFF7FEFF 		bl	gpio_set_pin_mode
 720:src-gen/steval_ttm007a.h **** 	gpio_set_pin_mode(CAN2_TX, CAN2_TX_CFG);
 851              		.loc 2 720 2
 852 0040 40F20231 		movw	r1, #770
 853 0044 3720     		movs	r0, #55
 854 0046 FFF7FEFF 		bl	gpio_set_pin_mode
 721:src-gen/steval_ttm007a.h **** 
 722:src-gen/steval_ttm007a.h **** 	/* SDADC1 */
 723:src-gen/steval_ttm007a.h **** 	gpio_set_pin_mode(SDADC1_IN0, SDADC1_IN0_CFG);
 855              		.loc 2 723 2
 856 004a 42F28241 		movw	r1, #9346
 857 004e 0D20     		movs	r0, #13
 858 0050 FFF7FEFF 		bl	gpio_set_pin_mode
 724:src-gen/steval_ttm007a.h **** 
 725:src-gen/steval_ttm007a.h **** 	/* BDAC */
 726:src-gen/steval_ttm007a.h **** 	gpio_set_pin_mode(B_DAC1_OUT, B_DAC1_OUT_CFG);
 859              		.loc 2 726 2
 860 0054 0321     		movs	r1, #3
 861 0056 1120     		movs	r0, #17
 862 0058 FFF7FEFF 		bl	gpio_set_pin_mode
 727:src-gen/steval_ttm007a.h **** 
 728:src-gen/steval_ttm007a.h **** 	/* SAR1 */
 729:src-gen/steval_ttm007a.h **** 	gpio_set_pin_mode(SAR1_IN1, SAR1_IN1_CFG);
 863              		.loc 2 729 2
 864 005c 0321     		movs	r1, #3
 865 005e 1220     		movs	r0, #18
 866 0060 FFF7FEFF 		bl	gpio_set_pin_mode
 730:src-gen/steval_ttm007a.h **** 
 731:src-gen/steval_ttm007a.h **** 	/* SAR2 */
 732:src-gen/steval_ttm007a.h **** 	gpio_set_pin_mode(SAR2_IN1, SAR2_IN1_CFG);
 867              		.loc 2 732 2
 868 0064 0321     		movs	r1, #3
 869 0066 1720     		movs	r0, #23
 870 0068 FFF7FEFF 		bl	gpio_set_pin_mode
 733:src-gen/steval_ttm007a.h **** 
 734:src-gen/steval_ttm007a.h **** 	/* SAR3 */
 735:src-gen/steval_ttm007a.h **** 	gpio_set_pin_mode(SAR3_IN2, SAR3_IN2_CFG);
 871              		.loc 2 735 2
 872 006c 0321     		movs	r1, #3
 873 006e 1D20     		movs	r0, #29
 874 0070 FFF7FEFF 		bl	gpio_set_pin_mode
 736:src-gen/steval_ttm007a.h **** 
 737:src-gen/steval_ttm007a.h **** 	/* SAR */
 738:src-gen/steval_ttm007a.h **** 	gpio_set_pin_mode(SAR_CAL1, SAR_CAL1_CFG);
 875              		.loc 2 738 2
 876 0074 0321     		movs	r1, #3
 877 0076 2120     		movs	r0, #33
 878 0078 FFF7FEFF 		bl	gpio_set_pin_mode
 739:src-gen/steval_ttm007a.h **** 
 740:src-gen/steval_ttm007a.h **** 	/* SAR4 */
 741:src-gen/steval_ttm007a.h **** 	gpio_set_pin_mode(SAR4_IN3, SAR4_IN3_CFG);
 879              		.loc 2 741 2
 880 007c 0321     		movs	r1, #3
 881 007e 2620     		movs	r0, #38
 882 0080 FFF7FEFF 		bl	gpio_set_pin_mode
 742:src-gen/steval_ttm007a.h **** 
 743:src-gen/steval_ttm007a.h **** 	/* BDAC */
 744:src-gen/steval_ttm007a.h **** 	gpio_set_pin_mode(B_DAC2_OUT, B_DAC2_OUT_CFG);
 883              		.loc 2 744 2
 884 0084 0321     		movs	r1, #3
 885 0086 2520     		movs	r0, #37
 886 0088 FFF7FEFF 		bl	gpio_set_pin_mode
 745:src-gen/steval_ttm007a.h **** 
 746:src-gen/steval_ttm007a.h **** 	/* SAR5 */
 747:src-gen/steval_ttm007a.h **** 	gpio_set_pin_mode(SAR5_IN1, SAR5_IN1_CFG);
 887              		.loc 2 747 2
 888 008c 0321     		movs	r1, #3
 889 008e 2920     		movs	r0, #41
 890 0090 FFF7FEFF 		bl	gpio_set_pin_mode
 748:src-gen/steval_ttm007a.h **** 	gpio_set_pin_mode(SAR5_IN2, SAR5_IN2_CFG);
 891              		.loc 2 748 2
 892 0094 0321     		movs	r1, #3
 893 0096 2A20     		movs	r0, #42
 894 0098 FFF7FEFF 		bl	gpio_set_pin_mode
 749:src-gen/steval_ttm007a.h **** 	gpio_set_pin_mode(SAR5_IN3, SAR5_IN3_CFG);
 895              		.loc 2 749 2
 896 009c 0321     		movs	r1, #3
 897 009e 2B20     		movs	r0, #43
 898 00a0 FFF7FEFF 		bl	gpio_set_pin_mode
 750:src-gen/steval_ttm007a.h **** 
 751:src-gen/steval_ttm007a.h **** 	/* TIM1 */
 752:src-gen/steval_ttm007a.h **** 	gpio_set_pin_mode(TIM1_CH1N, TIM1_CH1N_CFG);
 899              		.loc 2 752 2
 900 00a4 40F21221 		movw	r1, #530
 901 00a8 2E20     		movs	r0, #46
 902 00aa FFF7FEFF 		bl	gpio_set_pin_mode
 753:src-gen/steval_ttm007a.h **** 	gpio_set_pin_mode(TIM1_CH1, TIM1_CH1_CFG);
 903              		.loc 2 753 2
 904 00ae 40F21221 		movw	r1, #530
 905 00b2 2F20     		movs	r0, #47
 906 00b4 FFF7FEFF 		bl	gpio_set_pin_mode
 754:src-gen/steval_ttm007a.h **** 	gpio_set_pin_mode(TIM1_CH2N, TIM1_CH2N_CFG);
 907              		.loc 2 754 2
 908 00b8 40F21221 		movw	r1, #530
 909 00bc 3020     		movs	r0, #48
 910 00be FFF7FEFF 		bl	gpio_set_pin_mode
 755:src-gen/steval_ttm007a.h **** 	gpio_set_pin_mode(TIM1_CH2, TIM1_CH2_CFG);
 911              		.loc 2 755 2
 912 00c2 40F21221 		movw	r1, #530
 913 00c6 3120     		movs	r0, #49
 914 00c8 FFF7FEFF 		bl	gpio_set_pin_mode
 756:src-gen/steval_ttm007a.h **** 	gpio_set_pin_mode(TIM1_BKIN, TIM1_BKIN_CFG);
 915              		.loc 2 756 2
 916 00cc 42F20221 		movw	r1, #8706
 917 00d0 7020     		movs	r0, #112
 918 00d2 FFF7FEFF 		bl	gpio_set_pin_mode
 757:src-gen/steval_ttm007a.h **** 	gpio_set_pin_mode(TIM1_BKIN2, TIM1_BKIN2_CFG);
 919              		.loc 2 757 2
 920 00d6 42F20221 		movw	r1, #8706
 921 00da 7120     		movs	r0, #113
 922 00dc FFF7FEFF 		bl	gpio_set_pin_mode
 758:src-gen/steval_ttm007a.h **** 	gpio_set_pin_mode(TIM1_CH3N, TIM1_CH3N_CFG);
 923              		.loc 2 758 2
 924 00e0 40F21221 		movw	r1, #530
 925 00e4 3320     		movs	r0, #51
 926 00e6 FFF7FEFF 		bl	gpio_set_pin_mode
 759:src-gen/steval_ttm007a.h **** 	gpio_set_pin_mode(TIM1_CH3, TIM1_CH3_CFG);
 927              		.loc 2 759 2
 928 00ea 40F21221 		movw	r1, #530
 929 00ee 3420     		movs	r0, #52
 930 00f0 FFF7FEFF 		bl	gpio_set_pin_mode
 760:src-gen/steval_ttm007a.h **** 
 761:src-gen/steval_ttm007a.h **** 	/* TIM8 */
 762:src-gen/steval_ttm007a.h **** 	gpio_set_pin_mode(TIM8_CH1N, TIM8_CH1N_CFG);
 931              		.loc 2 762 2
 932 00f4 40F21221 		movw	r1, #530
 933 00f8 8120     		movs	r0, #129
 934 00fa FFF7FEFF 		bl	gpio_set_pin_mode
 763:src-gen/steval_ttm007a.h **** 	gpio_set_pin_mode(TIM8_CH1, TIM8_CH1_CFG);
 935              		.loc 2 763 2
 936 00fe 40F21221 		movw	r1, #530
 937 0102 8020     		movs	r0, #128
 938 0104 FFF7FEFF 		bl	gpio_set_pin_mode
 764:src-gen/steval_ttm007a.h **** 	gpio_set_pin_mode(TIM8_CH2N, TIM8_CH2N_CFG);
 939              		.loc 2 764 2
 940 0108 40F21221 		movw	r1, #530
 941 010c 8320     		movs	r0, #131
 942 010e FFF7FEFF 		bl	gpio_set_pin_mode
 765:src-gen/steval_ttm007a.h **** 	gpio_set_pin_mode(TIM8_CH2, TIM8_CH2_CFG);
 943              		.loc 2 765 2
 944 0112 40F21221 		movw	r1, #530
 945 0116 8220     		movs	r0, #130
 946 0118 FFF7FEFF 		bl	gpio_set_pin_mode
 766:src-gen/steval_ttm007a.h **** 	gpio_set_pin_mode(TIM8_BKIN, TIM8_BKIN_CFG);
 947              		.loc 2 766 2
 948 011c 42F20221 		movw	r1, #8706
 949 0120 8820     		movs	r0, #136
 950 0122 FFF7FEFF 		bl	gpio_set_pin_mode
 767:src-gen/steval_ttm007a.h **** 	gpio_set_pin_mode(TIM8_BKIN2, TIM8_BKIN2_CFG);
 951              		.loc 2 767 2
 952 0126 42F20221 		movw	r1, #8706
 953 012a 8920     		movs	r0, #137
 954 012c FFF7FEFF 		bl	gpio_set_pin_mode
 768:src-gen/steval_ttm007a.h **** 	gpio_set_pin_mode(TIM8_CH3N, TIM8_CH3N_CFG);
 955              		.loc 2 768 2
 956 0130 40F21221 		movw	r1, #530
 957 0134 8520     		movs	r0, #133
 958 0136 FFF7FEFF 		bl	gpio_set_pin_mode
 769:src-gen/steval_ttm007a.h **** 	gpio_set_pin_mode(TIM8_CH3, TIM8_CH3_CFG);
 959              		.loc 2 769 2
 960 013a 40F21221 		movw	r1, #530
 961 013e 8420     		movs	r0, #132
 962 0140 FFF7FEFF 		bl	gpio_set_pin_mode
 770:src-gen/steval_ttm007a.h **** 
 771:src-gen/steval_ttm007a.h **** 	/* SPI1 */
 772:src-gen/steval_ttm007a.h **** 	gpio_set_pin_mode(SPI1_MOSI, SPI1_MOSI_CFG);
 963              		.loc 2 772 2
 964 0144 42F29221 		movw	r1, #8850
 965 0148 4520     		movs	r0, #69
 966 014a FFF7FEFF 		bl	gpio_set_pin_mode
 773:src-gen/steval_ttm007a.h **** 	gpio_set_pin_mode(SPI1_MISO, SPI1_MISO_CFG);
 967              		.loc 2 773 2
 968 014e 42F29221 		movw	r1, #8850
 969 0152 4620     		movs	r0, #70
 970 0154 FFF7FEFF 		bl	gpio_set_pin_mode
 774:src-gen/steval_ttm007a.h **** 	gpio_set_pin_mode(SPI1_SCK, SPI1_SCK_CFG);
 971              		.loc 2 774 2
 972 0158 42F29221 		movw	r1, #8850
 973 015c 4720     		movs	r0, #71
 974 015e FFF7FEFF 		bl	gpio_set_pin_mode
 775:src-gen/steval_ttm007a.h **** 
 776:src-gen/steval_ttm007a.h **** 	/* SPI3 */
 777:src-gen/steval_ttm007a.h **** 	gpio_set_pin_mode(SPI3_MOSI, SPI3_MOSI_CFG);
 975              		.loc 2 777 2
 976 0162 42F29221 		movw	r1, #8850
 977 0166 3C20     		movs	r0, #60
 978 0168 FFF7FEFF 		bl	gpio_set_pin_mode
 778:src-gen/steval_ttm007a.h **** 	gpio_set_pin_mode(SPI3_MISO, SPI3_MISO_CFG);
 979              		.loc 2 778 2
 980 016c 42F29221 		movw	r1, #8850
 981 0170 3B20     		movs	r0, #59
 982 0172 FFF7FEFF 		bl	gpio_set_pin_mode
 779:src-gen/steval_ttm007a.h **** 	gpio_set_pin_mode(SPI3_SCK, SPI3_SCK_CFG);
 983              		.loc 2 779 2
 984 0176 42F29221 		movw	r1, #8850
 985 017a 3A20     		movs	r0, #58
 986 017c FFF7FEFF 		bl	gpio_set_pin_mode
 780:src-gen/steval_ttm007a.h **** 	gpio_set_pin_mode(SPI3_NSS, SPI3_NSS_CFG);
 987              		.loc 2 780 2
 988 0180 42F29221 		movw	r1, #8850
 989 0184 3D20     		movs	r0, #61
 990 0186 FFF7FEFF 		bl	gpio_set_pin_mode
 781:src-gen/steval_ttm007a.h **** 
 782:src-gen/steval_ttm007a.h **** 	/* TIM3 */
 783:src-gen/steval_ttm007a.h **** 	gpio_set_pin_mode(TIM3_CH1, TIM3_CH1_CFG);
 991              		.loc 2 783 2
 992 018a 42F20211 		movw	r1, #8450
 993 018e 6E20     		movs	r0, #110
 994 0190 FFF7FEFF 		bl	gpio_set_pin_mode
 784:src-gen/steval_ttm007a.h **** 	gpio_set_pin_mode(TIM3_CH2, TIM3_CH2_CFG);
 995              		.loc 2 784 2
 996 0194 42F20211 		movw	r1, #8450
 997 0198 6F20     		movs	r0, #111
 998 019a FFF7FEFF 		bl	gpio_set_pin_mode
 785:src-gen/steval_ttm007a.h **** 
 786:src-gen/steval_ttm007a.h **** 	/* TIM2 */
 787:src-gen/steval_ttm007a.h **** 	gpio_set_pin_mode(TIM2_CH1, TIM2_CH1_CFG);
 999              		.loc 2 787 2
 1000 019e 42F28201 		movw	r1, #8322
 1001 01a2 7220     		movs	r0, #114
 1002 01a4 FFF7FEFF 		bl	gpio_set_pin_mode
 788:src-gen/steval_ttm007a.h **** 
 789:src-gen/steval_ttm007a.h **** 	/* GPIO */
 790:src-gen/steval_ttm007a.h **** 	gpio_set_pin_mode(USER_LED_1, USER_LED_1_CFG);
 1003              		.loc 2 790 2
 1004 01a8 40F20161 		movw	r1, #1537
 1005 01ac 7C20     		movs	r0, #124
 1006 01ae FFF7FEFF 		bl	gpio_set_pin_mode
 791:src-gen/steval_ttm007a.h **** 	gpio_set_pin_mode(USER_LED_2, USER_LED_2_CFG);
 1007              		.loc 2 791 2
 1008 01b2 40F20161 		movw	r1, #1537
 1009 01b6 7D20     		movs	r0, #125
 1010 01b8 FFF7FEFF 		bl	gpio_set_pin_mode
 792:src-gen/steval_ttm007a.h **** 
 793:src-gen/steval_ttm007a.h **** 	/* UART3 */
 794:src-gen/steval_ttm007a.h **** 	gpio_set_pin_mode(UART3_RX, UART3_RX_CFG);
 1011              		.loc 2 794 2
 1012 01bc 42F28231 		movw	r1, #9090
 1013 01c0 7E20     		movs	r0, #126
 1014 01c2 FFF7FEFF 		bl	gpio_set_pin_mode
 795:src-gen/steval_ttm007a.h **** 	gpio_set_pin_mode(UART3_TX, UART3_TX_CFG);
 1015              		.loc 2 795 2
 1016 01c6 40F28231 		movw	r1, #898
 1017 01ca 7F20     		movs	r0, #127
 1018 01cc FFF7FEFF 		bl	gpio_set_pin_mode
 796:src-gen/steval_ttm007a.h **** 
 797:src-gen/steval_ttm007a.h **** }
 1019              		.loc 2 797 1
 1020 01d0 00BF     		nop
 1021 01d2 08BD     		pop	{r3, pc}
 1022              		.cfi_endproc
 1023              	.LFE469:
 1025              		.section	.text.test_env_init,"ax",%progbits
 1026              		.align	1
 1027              		.p2align 4,,15
 1028              		.global	test_env_init
 1029              		.syntax unified
 1030              		.thumb
 1031              		.thumb_func
 1033              	test_env_init:
 1034              	.LFB470:
 1035              		.file 3 "C:/StellarStudio-7.1/SDKS/StellarESDK-1.8.0/Projects/SDKTests/CommonBuild/src/test_env.c"
   1:C:/StellarStudio-7.1/SDKS/StellarESDK-1.8.0/Projects/SDKTests/CommonBuild/src\test_env.c **** /****************************************************************************
   2:C:/StellarStudio-7.1/SDKS/StellarESDK-1.8.0/Projects/SDKTests/CommonBuild/src\test_env.c ****  *
   3:C:/StellarStudio-7.1/SDKS/StellarESDK-1.8.0/Projects/SDKTests/CommonBuild/src\test_env.c ****  * Copyright (c) 2022 STMicroelectronics - All Rights Reserved
   4:C:/StellarStudio-7.1/SDKS/StellarESDK-1.8.0/Projects/SDKTests/CommonBuild/src\test_env.c ****  *
   5:C:/StellarStudio-7.1/SDKS/StellarESDK-1.8.0/Projects/SDKTests/CommonBuild/src\test_env.c ****  * License terms: STMicroelectronics Proprietary in accordance with licensing
   6:C:/StellarStudio-7.1/SDKS/StellarESDK-1.8.0/Projects/SDKTests/CommonBuild/src\test_env.c ****  * terms SLA0098 at www.st.com.
   7:C:/StellarStudio-7.1/SDKS/StellarESDK-1.8.0/Projects/SDKTests/CommonBuild/src\test_env.c ****  *
   8:C:/StellarStudio-7.1/SDKS/StellarESDK-1.8.0/Projects/SDKTests/CommonBuild/src\test_env.c ****  * THIS SOFTWARE IS DISTRIBUTED "AS IS," AND ALL WARRANTIES ARE DISCLAIMED,
   9:C:/StellarStudio-7.1/SDKS/StellarESDK-1.8.0/Projects/SDKTests/CommonBuild/src\test_env.c ****  * INCLUDING MERCHANTABILITY AND FITNESS FOR A PARTICULAR PURPOSE.
  10:C:/StellarStudio-7.1/SDKS/StellarESDK-1.8.0/Projects/SDKTests/CommonBuild/src\test_env.c ****  *
  11:C:/StellarStudio-7.1/SDKS/StellarESDK-1.8.0/Projects/SDKTests/CommonBuild/src\test_env.c ****  *****************************************************************************/
  12:C:/StellarStudio-7.1/SDKS/StellarESDK-1.8.0/Projects/SDKTests/CommonBuild/src\test_env.c **** /**
  13:C:/StellarStudio-7.1/SDKS/StellarESDK-1.8.0/Projects/SDKTests/CommonBuild/src\test_env.c ****  * @file    test_env.c
  14:C:/StellarStudio-7.1/SDKS/StellarESDK-1.8.0/Projects/SDKTests/CommonBuild/src\test_env.c ****  * @brief   Common test environment code.
  15:C:/StellarStudio-7.1/SDKS/StellarESDK-1.8.0/Projects/SDKTests/CommonBuild/src\test_env.c ****  *
  16:C:/StellarStudio-7.1/SDKS/StellarESDK-1.8.0/Projects/SDKTests/CommonBuild/src\test_env.c ****  * @addtogroup PROJECTS
  17:C:/StellarStudio-7.1/SDKS/StellarESDK-1.8.0/Projects/SDKTests/CommonBuild/src\test_env.c ****  * @addtogroup SDKTESTS
  18:C:/StellarStudio-7.1/SDKS/StellarESDK-1.8.0/Projects/SDKTests/CommonBuild/src\test_env.c ****  * @ingroup PROJECTS
  19:C:/StellarStudio-7.1/SDKS/StellarESDK-1.8.0/Projects/SDKTests/CommonBuild/src\test_env.c ****  * @addtogroup COMMON
  20:C:/StellarStudio-7.1/SDKS/StellarESDK-1.8.0/Projects/SDKTests/CommonBuild/src\test_env.c ****  * @ingroup SDKTESTS
  21:C:/StellarStudio-7.1/SDKS/StellarESDK-1.8.0/Projects/SDKTests/CommonBuild/src\test_env.c ****  * @{
  22:C:/StellarStudio-7.1/SDKS/StellarESDK-1.8.0/Projects/SDKTests/CommonBuild/src\test_env.c ****  */
  23:C:/StellarStudio-7.1/SDKS/StellarESDK-1.8.0/Projects/SDKTests/CommonBuild/src\test_env.c **** 
  24:C:/StellarStudio-7.1/SDKS/StellarESDK-1.8.0/Projects/SDKTests/CommonBuild/src\test_env.c **** #include <test_env.h>
  25:C:/StellarStudio-7.1/SDKS/StellarESDK-1.8.0/Projects/SDKTests/CommonBuild/src\test_env.c **** 
  26:C:/StellarStudio-7.1/SDKS/StellarESDK-1.8.0/Projects/SDKTests/CommonBuild/src\test_env.c **** /*===========================================================================*/
  27:C:/StellarStudio-7.1/SDKS/StellarESDK-1.8.0/Projects/SDKTests/CommonBuild/src\test_env.c **** /* Driver configuration.                                                     */
  28:C:/StellarStudio-7.1/SDKS/StellarESDK-1.8.0/Projects/SDKTests/CommonBuild/src\test_env.c **** /*===========================================================================*/
  29:C:/StellarStudio-7.1/SDKS/StellarESDK-1.8.0/Projects/SDKTests/CommonBuild/src\test_env.c **** 
  30:C:/StellarStudio-7.1/SDKS/StellarESDK-1.8.0/Projects/SDKTests/CommonBuild/src\test_env.c **** /*===========================================================================*/
  31:C:/StellarStudio-7.1/SDKS/StellarESDK-1.8.0/Projects/SDKTests/CommonBuild/src\test_env.c **** /* Driver forward declarations.                                              */
  32:C:/StellarStudio-7.1/SDKS/StellarESDK-1.8.0/Projects/SDKTests/CommonBuild/src\test_env.c **** /*===========================================================================*/
  33:C:/StellarStudio-7.1/SDKS/StellarESDK-1.8.0/Projects/SDKTests/CommonBuild/src\test_env.c **** 
  34:C:/StellarStudio-7.1/SDKS/StellarESDK-1.8.0/Projects/SDKTests/CommonBuild/src\test_env.c **** /*===========================================================================*/
  35:C:/StellarStudio-7.1/SDKS/StellarESDK-1.8.0/Projects/SDKTests/CommonBuild/src\test_env.c **** /* Driver defines.                                                           */
  36:C:/StellarStudio-7.1/SDKS/StellarESDK-1.8.0/Projects/SDKTests/CommonBuild/src\test_env.c **** /*===========================================================================*/
  37:C:/StellarStudio-7.1/SDKS/StellarESDK-1.8.0/Projects/SDKTests/CommonBuild/src\test_env.c **** 
  38:C:/StellarStudio-7.1/SDKS/StellarESDK-1.8.0/Projects/SDKTests/CommonBuild/src\test_env.c **** /*===========================================================================*/
  39:C:/StellarStudio-7.1/SDKS/StellarESDK-1.8.0/Projects/SDKTests/CommonBuild/src\test_env.c **** /* Driver local variables and types.                                         */
  40:C:/StellarStudio-7.1/SDKS/StellarESDK-1.8.0/Projects/SDKTests/CommonBuild/src\test_env.c **** /*===========================================================================*/
  41:C:/StellarStudio-7.1/SDKS/StellarESDK-1.8.0/Projects/SDKTests/CommonBuild/src\test_env.c **** 
  42:C:/StellarStudio-7.1/SDKS/StellarESDK-1.8.0/Projects/SDKTests/CommonBuild/src\test_env.c **** /*===========================================================================*/
  43:C:/StellarStudio-7.1/SDKS/StellarESDK-1.8.0/Projects/SDKTests/CommonBuild/src\test_env.c **** /* Driver exported variables.                                                */
  44:C:/StellarStudio-7.1/SDKS/StellarESDK-1.8.0/Projects/SDKTests/CommonBuild/src\test_env.c **** /*===========================================================================*/
  45:C:/StellarStudio-7.1/SDKS/StellarESDK-1.8.0/Projects/SDKTests/CommonBuild/src\test_env.c **** 
  46:C:/StellarStudio-7.1/SDKS/StellarESDK-1.8.0/Projects/SDKTests/CommonBuild/src\test_env.c **** /*===========================================================================*/
  47:C:/StellarStudio-7.1/SDKS/StellarESDK-1.8.0/Projects/SDKTests/CommonBuild/src\test_env.c **** /* Driver local functions.                                                   */
  48:C:/StellarStudio-7.1/SDKS/StellarESDK-1.8.0/Projects/SDKTests/CommonBuild/src\test_env.c **** /*===========================================================================*/
  49:C:/StellarStudio-7.1/SDKS/StellarESDK-1.8.0/Projects/SDKTests/CommonBuild/src\test_env.c **** 
  50:C:/StellarStudio-7.1/SDKS/StellarESDK-1.8.0/Projects/SDKTests/CommonBuild/src\test_env.c **** /*===========================================================================*/
  51:C:/StellarStudio-7.1/SDKS/StellarESDK-1.8.0/Projects/SDKTests/CommonBuild/src\test_env.c **** /* Driver interrupt handlers.                                                */
  52:C:/StellarStudio-7.1/SDKS/StellarESDK-1.8.0/Projects/SDKTests/CommonBuild/src\test_env.c **** /*===========================================================================*/
  53:C:/StellarStudio-7.1/SDKS/StellarESDK-1.8.0/Projects/SDKTests/CommonBuild/src\test_env.c **** 
  54:C:/StellarStudio-7.1/SDKS/StellarESDK-1.8.0/Projects/SDKTests/CommonBuild/src\test_env.c **** /*===========================================================================*/
  55:C:/StellarStudio-7.1/SDKS/StellarESDK-1.8.0/Projects/SDKTests/CommonBuild/src\test_env.c **** /* Driver exported functions.                                                */
  56:C:/StellarStudio-7.1/SDKS/StellarESDK-1.8.0/Projects/SDKTests/CommonBuild/src\test_env.c **** /*===========================================================================*/
  57:C:/StellarStudio-7.1/SDKS/StellarESDK-1.8.0/Projects/SDKTests/CommonBuild/src\test_env.c **** 
  58:C:/StellarStudio-7.1/SDKS/StellarESDK-1.8.0/Projects/SDKTests/CommonBuild/src\test_env.c **** /**
  59:C:/StellarStudio-7.1/SDKS/StellarESDK-1.8.0/Projects/SDKTests/CommonBuild/src\test_env.c ****  * @brief   Initializes test environment
  60:C:/StellarStudio-7.1/SDKS/StellarESDK-1.8.0/Projects/SDKTests/CommonBuild/src\test_env.c ****  *
  61:C:/StellarStudio-7.1/SDKS/StellarESDK-1.8.0/Projects/SDKTests/CommonBuild/src\test_env.c ****  * @init
  62:C:/StellarStudio-7.1/SDKS/StellarESDK-1.8.0/Projects/SDKTests/CommonBuild/src\test_env.c ****  * @par Description
  63:C:/StellarStudio-7.1/SDKS/StellarESDK-1.8.0/Projects/SDKTests/CommonBuild/src\test_env.c ****  * @details Initializes the test environment.
  64:C:/StellarStudio-7.1/SDKS/StellarESDK-1.8.0/Projects/SDKTests/CommonBuild/src\test_env.c ****  * @param   test_init   Bit-mask of modules to be initialized
  65:C:/StellarStudio-7.1/SDKS/StellarESDK-1.8.0/Projects/SDKTests/CommonBuild/src\test_env.c ****  * @sa gst_start
  66:C:/StellarStudio-7.1/SDKS/StellarESDK-1.8.0/Projects/SDKTests/CommonBuild/src\test_env.c ****  * @sa gst_stop
  67:C:/StellarStudio-7.1/SDKS/StellarESDK-1.8.0/Projects/SDKTests/CommonBuild/src\test_env.c ****  */
  68:C:/StellarStudio-7.1/SDKS/StellarESDK-1.8.0/Projects/SDKTests/CommonBuild/src\test_env.c **** void test_env_init(TestInit_t test_init)
  69:C:/StellarStudio-7.1/SDKS/StellarESDK-1.8.0/Projects/SDKTests/CommonBuild/src\test_env.c **** {
 1036              		.loc 3 69 1
 1037              		.cfi_startproc
 1038              		@ args = 0, pretend = 0, frame = 8
 1039              		@ frame_needed = 0, uses_anonymous_args = 0
 1040 0000 00B5     		push	{lr}
 1041              		.cfi_def_cfa_offset 4
 1042              		.cfi_offset 14, -4
 1043 0002 83B0     		sub	sp, sp, #12
 1044              		.cfi_def_cfa_offset 16
 1045 0004 0346     		mov	r3, r0
 1046 0006 ADF80630 		strh	r3, [sp, #6]	@ movhi
  70:C:/StellarStudio-7.1/SDKS/StellarESDK-1.8.0/Projects/SDKTests/CommonBuild/src\test_env.c **** #if defined(BUILD_PLATFORM_CLOCK)
  71:C:/StellarStudio-7.1/SDKS/StellarESDK-1.8.0/Projects/SDKTests/CommonBuild/src\test_env.c **** #if (BUILD_PLATFORM_CLOCK == 1)
  72:C:/StellarStudio-7.1/SDKS/StellarESDK-1.8.0/Projects/SDKTests/CommonBuild/src\test_env.c ****     if ((test_init & TEST_INIT_CLOCK) != 0u) {
 1047              		.loc 3 72 20
 1048 000a BDF80630 		ldrh	r3, [sp, #6]
 1049 000e 03F00103 		and	r3, r3, #1
 1050              		.loc 3 72 8
 1051 0012 002B     		cmp	r3, #0
 1052 0014 01D0     		beq	.L32
  73:C:/StellarStudio-7.1/SDKS/StellarESDK-1.8.0/Projects/SDKTests/CommonBuild/src\test_env.c ****         clock_init();
 1053              		.loc 3 73 9
 1054 0016 FFF7FEFF 		bl	clock_init
 1055              	.L32:
  74:C:/StellarStudio-7.1/SDKS/StellarESDK-1.8.0/Projects/SDKTests/CommonBuild/src\test_env.c ****     }
  75:C:/StellarStudio-7.1/SDKS/StellarESDK-1.8.0/Projects/SDKTests/CommonBuild/src\test_env.c **** #endif
  76:C:/StellarStudio-7.1/SDKS/StellarESDK-1.8.0/Projects/SDKTests/CommonBuild/src\test_env.c **** #endif
  77:C:/StellarStudio-7.1/SDKS/StellarESDK-1.8.0/Projects/SDKTests/CommonBuild/src\test_env.c **** 
  78:C:/StellarStudio-7.1/SDKS/StellarESDK-1.8.0/Projects/SDKTests/CommonBuild/src\test_env.c **** /* Since board initialization uses the GPIO driver, the GPIO initialization
  79:C:/StellarStudio-7.1/SDKS/StellarESDK-1.8.0/Projects/SDKTests/CommonBuild/src\test_env.c ****    must be done before the board initialization.*/
  80:C:/StellarStudio-7.1/SDKS/StellarESDK-1.8.0/Projects/SDKTests/CommonBuild/src\test_env.c **** #if defined(BUILD_DRIVERS_GPIO)
  81:C:/StellarStudio-7.1/SDKS/StellarESDK-1.8.0/Projects/SDKTests/CommonBuild/src\test_env.c **** #if (BUILD_DRIVERS_GPIO == 1)
  82:C:/StellarStudio-7.1/SDKS/StellarESDK-1.8.0/Projects/SDKTests/CommonBuild/src\test_env.c ****     if ((test_init & TEST_INIT_GPIO) != 0u) {
 1056              		.loc 3 82 20
 1057 001a BDF80630 		ldrh	r3, [sp, #6]
 1058 001e 03F00203 		and	r3, r3, #2
 1059              		.loc 3 82 8
 1060 0022 002B     		cmp	r3, #0
 1061 0024 01D0     		beq	.L33
  83:C:/StellarStudio-7.1/SDKS/StellarESDK-1.8.0/Projects/SDKTests/CommonBuild/src\test_env.c ****         gpio_init();
 1062              		.loc 3 83 9
 1063 0026 FFF7FEFF 		bl	gpio_init
 1064              	.L33:
  84:C:/StellarStudio-7.1/SDKS/StellarESDK-1.8.0/Projects/SDKTests/CommonBuild/src\test_env.c ****     }
  85:C:/StellarStudio-7.1/SDKS/StellarESDK-1.8.0/Projects/SDKTests/CommonBuild/src\test_env.c **** #endif
  86:C:/StellarStudio-7.1/SDKS/StellarESDK-1.8.0/Projects/SDKTests/CommonBuild/src\test_env.c **** #endif
  87:C:/StellarStudio-7.1/SDKS/StellarESDK-1.8.0/Projects/SDKTests/CommonBuild/src\test_env.c **** 
  88:C:/StellarStudio-7.1/SDKS/StellarESDK-1.8.0/Projects/SDKTests/CommonBuild/src\test_env.c **** #if defined(BUILD_PLATFORM_BOARD)
  89:C:/StellarStudio-7.1/SDKS/StellarESDK-1.8.0/Projects/SDKTests/CommonBuild/src\test_env.c **** #if (BUILD_PLATFORM_BOARD == 1)
  90:C:/StellarStudio-7.1/SDKS/StellarESDK-1.8.0/Projects/SDKTests/CommonBuild/src\test_env.c ****     if ((test_init & TEST_INIT_BOARD) != 0u) {
 1065              		.loc 3 90 20
 1066 002a BDF80630 		ldrh	r3, [sp, #6]
 1067 002e 03F00403 		and	r3, r3, #4
 1068              		.loc 3 90 8
 1069 0032 002B     		cmp	r3, #0
 1070 0034 01D0     		beq	.L34
  91:C:/StellarStudio-7.1/SDKS/StellarESDK-1.8.0/Projects/SDKTests/CommonBuild/src\test_env.c ****         BOARD_INIT_FUNC(BOARD_NAME);
 1071              		.loc 3 91 9
 1072 0036 FFF7FEFF 		bl	steval_ttm007a_init
 1073              	.L34:
  92:C:/StellarStudio-7.1/SDKS/StellarESDK-1.8.0/Projects/SDKTests/CommonBuild/src\test_env.c ****     }
  93:C:/StellarStudio-7.1/SDKS/StellarESDK-1.8.0/Projects/SDKTests/CommonBuild/src\test_env.c **** #endif
  94:C:/StellarStudio-7.1/SDKS/StellarESDK-1.8.0/Projects/SDKTests/CommonBuild/src\test_env.c **** #endif
  95:C:/StellarStudio-7.1/SDKS/StellarESDK-1.8.0/Projects/SDKTests/CommonBuild/src\test_env.c **** 
  96:C:/StellarStudio-7.1/SDKS/StellarESDK-1.8.0/Projects/SDKTests/CommonBuild/src\test_env.c **** #if defined(BUILD_OS_OSAL)
  97:C:/StellarStudio-7.1/SDKS/StellarESDK-1.8.0/Projects/SDKTests/CommonBuild/src\test_env.c **** #if (BUILD_OS_OSAL == 1)
  98:C:/StellarStudio-7.1/SDKS/StellarESDK-1.8.0/Projects/SDKTests/CommonBuild/src\test_env.c ****     if ((test_init & TEST_INIT_OSAL) != 0u) {
 1074              		.loc 3 98 20
 1075 003a BDF80630 		ldrh	r3, [sp, #6]
 1076 003e 03F01003 		and	r3, r3, #16
 1077              		.loc 3 98 8
 1078 0042 002B     		cmp	r3, #0
 1079 0044 01D0     		beq	.L36
  99:C:/StellarStudio-7.1/SDKS/StellarESDK-1.8.0/Projects/SDKTests/CommonBuild/src\test_env.c ****         osal_init();
 1080              		.loc 3 99 9
 1081 0046 FFF7FEFF 		bl	osal_init
 1082              	.L36:
 100:C:/StellarStudio-7.1/SDKS/StellarESDK-1.8.0/Projects/SDKTests/CommonBuild/src\test_env.c ****     }
 101:C:/StellarStudio-7.1/SDKS/StellarESDK-1.8.0/Projects/SDKTests/CommonBuild/src\test_env.c **** #endif
 102:C:/StellarStudio-7.1/SDKS/StellarESDK-1.8.0/Projects/SDKTests/CommonBuild/src\test_env.c **** #endif
 103:C:/StellarStudio-7.1/SDKS/StellarESDK-1.8.0/Projects/SDKTests/CommonBuild/src\test_env.c **** }
 1083              		.loc 3 103 1
 1084 004a 00BF     		nop
 1085 004c 03B0     		add	sp, sp, #12
 1086              		.cfi_def_cfa_offset 4
 1087              		@ sp needed
 1088 004e 5DF804FB 		ldr	pc, [sp], #4
 1089              		.cfi_endproc
 1090              	.LFE470:
 1092              		.text
 1093              	.Letext0:
 1094              		.file 4 "c:\\stellarstudio-7.1\\sdks\\tools-1.4.0\\toolchain\\arm\\mingw64_nt\\10.3-2021.10\\arm-n
 1095              		.file 5 "c:\\stellarstudio-7.1\\sdks\\tools-1.4.0\\toolchain\\arm\\mingw64_nt\\10.3-2021.10\\arm-n
 1096              		.file 6 "C:/StellarStudio-7.1/SDKS/StellarESDK-1.8.0/Modules/Platform/MCU/include/sr5e1/SR5E1_GPIO
 1097              		.file 7 "../../SDKS/StellarESDK-1.8.0/Projects/SDKTests/CommonBuild/include/test_env.h"