   1              		.cpu cortex-m7
   2              		.arch armv7e-m
   3              		.fpu fpv5-d16
   4              		.eabi_attribute 28, 1
   5              		.eabi_attribute 20, 1
   6              		.eabi_attribute 21, 1
   7              		.eabi_attribute 23, 3
   8              		.eabi_attribute 24, 1
   9              		.eabi_attribute 25, 1
  10              		.eabi_attribute 26, 1
  11              		.eabi_attribute 30, 6
  12              		.eabi_attribute 34, 1
  13              		.eabi_attribute 18, 4
  14              		.file	"uart_dev.c"
  15              		.text
  16              	.Ltext0:
  17              		.cfi_sections	.debug_frame
  18              		.section	.text.uart_dev_get_reg_ptr,"ax",%progbits
  19              		.align	1
  20              		.p2align 4,,15
  21              		.global	uart_dev_get_reg_ptr
  22              		.syntax unified
  23              		.thumb
  24              		.thumb_func
  26              	uart_dev_get_reg_ptr:
  27              	.LFB459:
  28              		.file 1 "C:/StellarStudio-7.1/SDKS/StellarESDK-1.8.0/Modules/Drivers/Comms/UART/src/sr5e1/uart_dev
   1:C:/StellarStudio-7.1/SDKS/StellarESDK-1.8.0/Modules/Drivers/Comms/UART/src/sr5e1\uart_dev.c **** /****************************************************************************
   2:C:/StellarStudio-7.1/SDKS/StellarESDK-1.8.0/Modules/Drivers/Comms/UART/src/sr5e1\uart_dev.c ****  *
   3:C:/StellarStudio-7.1/SDKS/StellarESDK-1.8.0/Modules/Drivers/Comms/UART/src/sr5e1\uart_dev.c ****  * Copyright (c) 2022 STMicroelectronics - All Rights Reserved
   4:C:/StellarStudio-7.1/SDKS/StellarESDK-1.8.0/Modules/Drivers/Comms/UART/src/sr5e1\uart_dev.c ****  *
   5:C:/StellarStudio-7.1/SDKS/StellarESDK-1.8.0/Modules/Drivers/Comms/UART/src/sr5e1\uart_dev.c ****  * License terms: STMicroelectronics Proprietary in accordance with licensing
   6:C:/StellarStudio-7.1/SDKS/StellarESDK-1.8.0/Modules/Drivers/Comms/UART/src/sr5e1\uart_dev.c ****  * terms SLA0098 at www.st.com.
   7:C:/StellarStudio-7.1/SDKS/StellarESDK-1.8.0/Modules/Drivers/Comms/UART/src/sr5e1\uart_dev.c ****  *
   8:C:/StellarStudio-7.1/SDKS/StellarESDK-1.8.0/Modules/Drivers/Comms/UART/src/sr5e1\uart_dev.c ****  * THIS SOFTWARE IS DISTRIBUTED "AS IS," AND ALL WARRANTIES ARE DISCLAIMED,
   9:C:/StellarStudio-7.1/SDKS/StellarESDK-1.8.0/Modules/Drivers/Comms/UART/src/sr5e1\uart_dev.c ****  * INCLUDING MERCHANTABILITY AND FITNESS FOR A PARTICULAR PURPOSE.
  10:C:/StellarStudio-7.1/SDKS/StellarESDK-1.8.0/Modules/Drivers/Comms/UART/src/sr5e1\uart_dev.c ****  *
  11:C:/StellarStudio-7.1/SDKS/StellarESDK-1.8.0/Modules/Drivers/Comms/UART/src/sr5e1\uart_dev.c ****  *****************************************************************************/
  12:C:/StellarStudio-7.1/SDKS/StellarESDK-1.8.0/Modules/Drivers/Comms/UART/src/sr5e1\uart_dev.c **** /**
  13:C:/StellarStudio-7.1/SDKS/StellarESDK-1.8.0/Modules/Drivers/Comms/UART/src/sr5e1\uart_dev.c ****  * @file    uart_dev.c
  14:C:/StellarStudio-7.1/SDKS/StellarESDK-1.8.0/Modules/Drivers/Comms/UART/src/sr5e1\uart_dev.c ****  * @brief   UART device specific source file.
  15:C:/StellarStudio-7.1/SDKS/StellarESDK-1.8.0/Modules/Drivers/Comms/UART/src/sr5e1\uart_dev.c ****  *
  16:C:/StellarStudio-7.1/SDKS/StellarESDK-1.8.0/Modules/Drivers/Comms/UART/src/sr5e1\uart_dev.c ****  * @addtogroup DRIVERS
  17:C:/StellarStudio-7.1/SDKS/StellarESDK-1.8.0/Modules/Drivers/Comms/UART/src/sr5e1\uart_dev.c ****  * @addtogroup COMMS
  18:C:/StellarStudio-7.1/SDKS/StellarESDK-1.8.0/Modules/Drivers/Comms/UART/src/sr5e1\uart_dev.c ****  * @ingroup DRIVERS
  19:C:/StellarStudio-7.1/SDKS/StellarESDK-1.8.0/Modules/Drivers/Comms/UART/src/sr5e1\uart_dev.c ****  * @addtogroup UART
  20:C:/StellarStudio-7.1/SDKS/StellarESDK-1.8.0/Modules/Drivers/Comms/UART/src/sr5e1\uart_dev.c ****  * @ingroup COMMS
  21:C:/StellarStudio-7.1/SDKS/StellarESDK-1.8.0/Modules/Drivers/Comms/UART/src/sr5e1\uart_dev.c ****  * @{
  22:C:/StellarStudio-7.1/SDKS/StellarESDK-1.8.0/Modules/Drivers/Comms/UART/src/sr5e1\uart_dev.c ****  */
  23:C:/StellarStudio-7.1/SDKS/StellarESDK-1.8.0/Modules/Drivers/Comms/UART/src/sr5e1\uart_dev.c **** 
  24:C:/StellarStudio-7.1/SDKS/StellarESDK-1.8.0/Modules/Drivers/Comms/UART/src/sr5e1\uart_dev.c **** #include <uart.h>
  25:C:/StellarStudio-7.1/SDKS/StellarESDK-1.8.0/Modules/Drivers/Comms/UART/src/sr5e1\uart_dev.c **** #include <uart_private.h>
  26:C:/StellarStudio-7.1/SDKS/StellarESDK-1.8.0/Modules/Drivers/Comms/UART/src/sr5e1\uart_dev.c **** #include <dma.h>
  27:C:/StellarStudio-7.1/SDKS/StellarESDK-1.8.0/Modules/Drivers/Comms/UART/src/sr5e1\uart_dev.c **** #include <clock.h>
  28:C:/StellarStudio-7.1/SDKS/StellarESDK-1.8.0/Modules/Drivers/Comms/UART/src/sr5e1\uart_dev.c **** #include <irq.h>
  29:C:/StellarStudio-7.1/SDKS/StellarESDK-1.8.0/Modules/Drivers/Comms/UART/src/sr5e1\uart_dev.c **** #include <platform.h>
  30:C:/StellarStudio-7.1/SDKS/StellarESDK-1.8.0/Modules/Drivers/Comms/UART/src/sr5e1\uart_dev.c **** 
  31:C:/StellarStudio-7.1/SDKS/StellarESDK-1.8.0/Modules/Drivers/Comms/UART/src/sr5e1\uart_dev.c **** /*===========================================================================*/
  32:C:/StellarStudio-7.1/SDKS/StellarESDK-1.8.0/Modules/Drivers/Comms/UART/src/sr5e1\uart_dev.c **** /* Module local definitions.                                                 */
  33:C:/StellarStudio-7.1/SDKS/StellarESDK-1.8.0/Modules/Drivers/Comms/UART/src/sr5e1\uart_dev.c **** /*===========================================================================*/
  34:C:/StellarStudio-7.1/SDKS/StellarESDK-1.8.0/Modules/Drivers/Comms/UART/src/sr5e1\uart_dev.c **** 
  35:C:/StellarStudio-7.1/SDKS/StellarESDK-1.8.0/Modules/Drivers/Comms/UART/src/sr5e1\uart_dev.c **** /*===========================================================================*/
  36:C:/StellarStudio-7.1/SDKS/StellarESDK-1.8.0/Modules/Drivers/Comms/UART/src/sr5e1\uart_dev.c **** /* Module exported variables.                                                */
  37:C:/StellarStudio-7.1/SDKS/StellarESDK-1.8.0/Modules/Drivers/Comms/UART/src/sr5e1\uart_dev.c **** /*===========================================================================*/
  38:C:/StellarStudio-7.1/SDKS/StellarESDK-1.8.0/Modules/Drivers/Comms/UART/src/sr5e1\uart_dev.c **** 
  39:C:/StellarStudio-7.1/SDKS/StellarESDK-1.8.0/Modules/Drivers/Comms/UART/src/sr5e1\uart_dev.c **** /*===========================================================================*/
  40:C:/StellarStudio-7.1/SDKS/StellarESDK-1.8.0/Modules/Drivers/Comms/UART/src/sr5e1\uart_dev.c **** /* Module local types.                                                       */
  41:C:/StellarStudio-7.1/SDKS/StellarESDK-1.8.0/Modules/Drivers/Comms/UART/src/sr5e1\uart_dev.c **** /*===========================================================================*/
  42:C:/StellarStudio-7.1/SDKS/StellarESDK-1.8.0/Modules/Drivers/Comms/UART/src/sr5e1\uart_dev.c **** 
  43:C:/StellarStudio-7.1/SDKS/StellarESDK-1.8.0/Modules/Drivers/Comms/UART/src/sr5e1\uart_dev.c **** /*===========================================================================*/
  44:C:/StellarStudio-7.1/SDKS/StellarESDK-1.8.0/Modules/Drivers/Comms/UART/src/sr5e1\uart_dev.c **** /* Module local variables.                                                   */
  45:C:/StellarStudio-7.1/SDKS/StellarESDK-1.8.0/Modules/Drivers/Comms/UART/src/sr5e1\uart_dev.c **** /*===========================================================================*/
  46:C:/StellarStudio-7.1/SDKS/StellarESDK-1.8.0/Modules/Drivers/Comms/UART/src/sr5e1\uart_dev.c **** 
  47:C:/StellarStudio-7.1/SDKS/StellarESDK-1.8.0/Modules/Drivers/Comms/UART/src/sr5e1\uart_dev.c **** /*===========================================================================*/
  48:C:/StellarStudio-7.1/SDKS/StellarESDK-1.8.0/Modules/Drivers/Comms/UART/src/sr5e1\uart_dev.c **** /* Module local functions.                                                   */
  49:C:/StellarStudio-7.1/SDKS/StellarESDK-1.8.0/Modules/Drivers/Comms/UART/src/sr5e1\uart_dev.c **** /*===========================================================================*/
  50:C:/StellarStudio-7.1/SDKS/StellarESDK-1.8.0/Modules/Drivers/Comms/UART/src/sr5e1\uart_dev.c **** 
  51:C:/StellarStudio-7.1/SDKS/StellarESDK-1.8.0/Modules/Drivers/Comms/UART/src/sr5e1\uart_dev.c **** /*===========================================================================*/
  52:C:/StellarStudio-7.1/SDKS/StellarESDK-1.8.0/Modules/Drivers/Comms/UART/src/sr5e1\uart_dev.c **** /* Module exported functions.                                                */
  53:C:/StellarStudio-7.1/SDKS/StellarESDK-1.8.0/Modules/Drivers/Comms/UART/src/sr5e1\uart_dev.c **** /*===========================================================================*/
  54:C:/StellarStudio-7.1/SDKS/StellarESDK-1.8.0/Modules/Drivers/Comms/UART/src/sr5e1\uart_dev.c **** 
  55:C:/StellarStudio-7.1/SDKS/StellarESDK-1.8.0/Modules/Drivers/Comms/UART/src/sr5e1\uart_dev.c **** /**
  56:C:/StellarStudio-7.1/SDKS/StellarESDK-1.8.0/Modules/Drivers/Comms/UART/src/sr5e1\uart_dev.c ****  * @brief   Returns pointer to the UART register block.
  57:C:/StellarStudio-7.1/SDKS/StellarESDK-1.8.0/Modules/Drivers/Comms/UART/src/sr5e1\uart_dev.c ****  *
  58:C:/StellarStudio-7.1/SDKS/StellarESDK-1.8.0/Modules/Drivers/Comms/UART/src/sr5e1\uart_dev.c ****  * @param[in] udp       pointer to a @p uart_driver_t structure
  59:C:/StellarStudio-7.1/SDKS/StellarESDK-1.8.0/Modules/Drivers/Comms/UART/src/sr5e1\uart_dev.c ****  * @return              pointer to the UART register block.
  60:C:/StellarStudio-7.1/SDKS/StellarESDK-1.8.0/Modules/Drivers/Comms/UART/src/sr5e1\uart_dev.c ****  *
  61:C:/StellarStudio-7.1/SDKS/StellarESDK-1.8.0/Modules/Drivers/Comms/UART/src/sr5e1\uart_dev.c ****  * @notapi
  62:C:/StellarStudio-7.1/SDKS/StellarESDK-1.8.0/Modules/Drivers/Comms/UART/src/sr5e1\uart_dev.c ****  */
  63:C:/StellarStudio-7.1/SDKS/StellarESDK-1.8.0/Modules/Drivers/Comms/UART/src/sr5e1\uart_dev.c **** UART_TypeDef *uart_dev_get_reg_ptr(uart_driver_t *udp) {
  29              		.loc 1 63 56
  30              		.cfi_startproc
  31              		@ args = 0, pretend = 0, frame = 16
  32              		@ frame_needed = 0, uses_anonymous_args = 0
  33              		@ link register save eliminated.
  34 0000 84B0     		sub	sp, sp, #16
  35              		.cfi_def_cfa_offset 16
  36 0002 0190     		str	r0, [sp, #4]
  64:C:/StellarStudio-7.1/SDKS/StellarESDK-1.8.0/Modules/Drivers/Comms/UART/src/sr5e1\uart_dev.c **** 
  65:C:/StellarStudio-7.1/SDKS/StellarESDK-1.8.0/Modules/Drivers/Comms/UART/src/sr5e1\uart_dev.c ****     UART_TypeDef *uart;
  66:C:/StellarStudio-7.1/SDKS/StellarESDK-1.8.0/Modules/Drivers/Comms/UART/src/sr5e1\uart_dev.c **** 
  67:C:/StellarStudio-7.1/SDKS/StellarESDK-1.8.0/Modules/Drivers/Comms/UART/src/sr5e1\uart_dev.c ****     if (udp == &DRV_UART1) {
  37              		.loc 1 67 8
  38 0004 019B     		ldr	r3, [sp, #4]
  39 0006 094A     		ldr	r2, .L6
  40 0008 9342     		cmp	r3, r2
  41 000a 02D1     		bne	.L2
  68:C:/StellarStudio-7.1/SDKS/StellarESDK-1.8.0/Modules/Drivers/Comms/UART/src/sr5e1\uart_dev.c ****         uart = UART1;
  42              		.loc 1 68 14
  43 000c 084B     		ldr	r3, .L6+4
  44 000e 0393     		str	r3, [sp, #12]
  45 0010 08E0     		b	.L3
  46              	.L2:
  69:C:/StellarStudio-7.1/SDKS/StellarESDK-1.8.0/Modules/Drivers/Comms/UART/src/sr5e1\uart_dev.c ****     } else if (udp == &DRV_UART2) {
  47              		.loc 1 69 15
  48 0012 019B     		ldr	r3, [sp, #4]
  49 0014 074A     		ldr	r2, .L6+8
  50 0016 9342     		cmp	r3, r2
  51 0018 02D1     		bne	.L4
  70:C:/StellarStudio-7.1/SDKS/StellarESDK-1.8.0/Modules/Drivers/Comms/UART/src/sr5e1\uart_dev.c ****         uart = UART2;
  52              		.loc 1 70 14
  53 001a 074B     		ldr	r3, .L6+12
  54 001c 0393     		str	r3, [sp, #12]
  55 001e 01E0     		b	.L3
  56              	.L4:
  71:C:/StellarStudio-7.1/SDKS/StellarESDK-1.8.0/Modules/Drivers/Comms/UART/src/sr5e1\uart_dev.c ****     } else {
  72:C:/StellarStudio-7.1/SDKS/StellarESDK-1.8.0/Modules/Drivers/Comms/UART/src/sr5e1\uart_dev.c ****         uart = UART3;
  57              		.loc 1 72 14
  58 0020 064B     		ldr	r3, .L6+16
  59 0022 0393     		str	r3, [sp, #12]
  60              	.L3:
  73:C:/StellarStudio-7.1/SDKS/StellarESDK-1.8.0/Modules/Drivers/Comms/UART/src/sr5e1\uart_dev.c ****     }
  74:C:/StellarStudio-7.1/SDKS/StellarESDK-1.8.0/Modules/Drivers/Comms/UART/src/sr5e1\uart_dev.c **** 
  75:C:/StellarStudio-7.1/SDKS/StellarESDK-1.8.0/Modules/Drivers/Comms/UART/src/sr5e1\uart_dev.c ****     return uart;
  61              		.loc 1 75 12
  62 0024 039B     		ldr	r3, [sp, #12]
  76:C:/StellarStudio-7.1/SDKS/StellarESDK-1.8.0/Modules/Drivers/Comms/UART/src/sr5e1\uart_dev.c **** }
  63              		.loc 1 76 1
  64 0026 1846     		mov	r0, r3
  65 0028 04B0     		add	sp, sp, #16
  66              		.cfi_def_cfa_offset 0
  67              		@ sp needed
  68 002a 7047     		bx	lr
  69              	.L7:
  70              		.align	2
  71              	.L6:
  72 002c 00000000 		.word	DRV_UART1
  73 0030 006C0042 		.word	1107323904
  74 0034 00000000 		.word	DRV_UART2
  75 0038 006C0040 		.word	1073769472
  76 003c 00700040 		.word	1073770496
  77              		.cfi_endproc
  78              	.LFE459:
  80              		.section	.text.uart_dev_get_clock,"ax",%progbits
  81              		.align	1
  82              		.p2align 4,,15
  83              		.global	uart_dev_get_clock
  84              		.syntax unified
  85              		.thumb
  86              		.thumb_func
  88              	uart_dev_get_clock:
  89              	.LFB460:
  77:C:/StellarStudio-7.1/SDKS/StellarESDK-1.8.0/Modules/Drivers/Comms/UART/src/sr5e1\uart_dev.c **** 
  78:C:/StellarStudio-7.1/SDKS/StellarESDK-1.8.0/Modules/Drivers/Comms/UART/src/sr5e1\uart_dev.c **** /**
  79:C:/StellarStudio-7.1/SDKS/StellarESDK-1.8.0/Modules/Drivers/Comms/UART/src/sr5e1\uart_dev.c ****  * @brief   Returns value of UART clock.
  80:C:/StellarStudio-7.1/SDKS/StellarESDK-1.8.0/Modules/Drivers/Comms/UART/src/sr5e1\uart_dev.c ****  *
  81:C:/StellarStudio-7.1/SDKS/StellarESDK-1.8.0/Modules/Drivers/Comms/UART/src/sr5e1\uart_dev.c ****  * @param[in] udp       pointer to a @p uart_driver_t structure
  82:C:/StellarStudio-7.1/SDKS/StellarESDK-1.8.0/Modules/Drivers/Comms/UART/src/sr5e1\uart_dev.c ****  * @return              UART clock.
  83:C:/StellarStudio-7.1/SDKS/StellarESDK-1.8.0/Modules/Drivers/Comms/UART/src/sr5e1\uart_dev.c ****  *
  84:C:/StellarStudio-7.1/SDKS/StellarESDK-1.8.0/Modules/Drivers/Comms/UART/src/sr5e1\uart_dev.c ****  * @notapi
  85:C:/StellarStudio-7.1/SDKS/StellarESDK-1.8.0/Modules/Drivers/Comms/UART/src/sr5e1\uart_dev.c ****  */
  86:C:/StellarStudio-7.1/SDKS/StellarESDK-1.8.0/Modules/Drivers/Comms/UART/src/sr5e1\uart_dev.c **** uint32_t uart_dev_get_clock(uart_driver_t *udp) {
  90              		.loc 1 86 49
  91              		.cfi_startproc
  92              		@ args = 0, pretend = 0, frame = 16
  93              		@ frame_needed = 0, uses_anonymous_args = 0
  94              		@ link register save eliminated.
  95 0000 84B0     		sub	sp, sp, #16
  96              		.cfi_def_cfa_offset 16
  97 0002 0190     		str	r0, [sp, #4]
  87:C:/StellarStudio-7.1/SDKS/StellarESDK-1.8.0/Modules/Drivers/Comms/UART/src/sr5e1\uart_dev.c **** 
  88:C:/StellarStudio-7.1/SDKS/StellarESDK-1.8.0/Modules/Drivers/Comms/UART/src/sr5e1\uart_dev.c ****     uint32_t clock;
  89:C:/StellarStudio-7.1/SDKS/StellarESDK-1.8.0/Modules/Drivers/Comms/UART/src/sr5e1\uart_dev.c **** 
  90:C:/StellarStudio-7.1/SDKS/StellarESDK-1.8.0/Modules/Drivers/Comms/UART/src/sr5e1\uart_dev.c ****     if (udp == &DRV_UART1) {
  98              		.loc 1 90 8
  99 0004 019B     		ldr	r3, [sp, #4]
 100 0006 094A     		ldr	r2, .L13
 101 0008 9342     		cmp	r3, r2
 102 000a 02D1     		bne	.L9
  91:C:/StellarStudio-7.1/SDKS/StellarESDK-1.8.0/Modules/Drivers/Comms/UART/src/sr5e1\uart_dev.c ****         clock = CLOCK_UART1CLK;
 103              		.loc 1 91 15
 104 000c 084B     		ldr	r3, .L13+4
 105 000e 0393     		str	r3, [sp, #12]
 106 0010 08E0     		b	.L10
 107              	.L9:
  92:C:/StellarStudio-7.1/SDKS/StellarESDK-1.8.0/Modules/Drivers/Comms/UART/src/sr5e1\uart_dev.c ****     } else if (udp == &DRV_UART2) {
 108              		.loc 1 92 15
 109 0012 019B     		ldr	r3, [sp, #4]
 110 0014 074A     		ldr	r2, .L13+8
 111 0016 9342     		cmp	r3, r2
 112 0018 02D1     		bne	.L11
  93:C:/StellarStudio-7.1/SDKS/StellarESDK-1.8.0/Modules/Drivers/Comms/UART/src/sr5e1\uart_dev.c ****         clock = CLOCK_UART2CLK;
 113              		.loc 1 93 15
 114 001a 054B     		ldr	r3, .L13+4
 115 001c 0393     		str	r3, [sp, #12]
 116 001e 01E0     		b	.L10
 117              	.L11:
  94:C:/StellarStudio-7.1/SDKS/StellarESDK-1.8.0/Modules/Drivers/Comms/UART/src/sr5e1\uart_dev.c ****     } else {
  95:C:/StellarStudio-7.1/SDKS/StellarESDK-1.8.0/Modules/Drivers/Comms/UART/src/sr5e1\uart_dev.c ****         clock = CLOCK_UART3CLK;
 118              		.loc 1 95 15
 119 0020 034B     		ldr	r3, .L13+4
 120 0022 0393     		str	r3, [sp, #12]
 121              	.L10:
  96:C:/StellarStudio-7.1/SDKS/StellarESDK-1.8.0/Modules/Drivers/Comms/UART/src/sr5e1\uart_dev.c ****     }
  97:C:/StellarStudio-7.1/SDKS/StellarESDK-1.8.0/Modules/Drivers/Comms/UART/src/sr5e1\uart_dev.c **** 
  98:C:/StellarStudio-7.1/SDKS/StellarESDK-1.8.0/Modules/Drivers/Comms/UART/src/sr5e1\uart_dev.c ****     return clock;
 122              		.loc 1 98 12
 123 0024 039B     		ldr	r3, [sp, #12]
  99:C:/StellarStudio-7.1/SDKS/StellarESDK-1.8.0/Modules/Drivers/Comms/UART/src/sr5e1\uart_dev.c **** }
 124              		.loc 1 99 1
 125 0026 1846     		mov	r0, r3
 126 0028 04B0     		add	sp, sp, #16
 127              		.cfi_def_cfa_offset 0
 128              		@ sp needed
 129 002a 7047     		bx	lr
 130              	.L14:
 131              		.align	2
 132              	.L13:
 133 002c 00000000 		.word	DRV_UART1
 134 0030 005A6202 		.word	40000000
 135 0034 00000000 		.word	DRV_UART2
 136              		.cfi_endproc
 137              	.LFE460:
 139              		.section	.text.uart_dev_clock_enable,"ax",%progbits
 140              		.align	1
 141              		.p2align 4,,15
 142              		.global	uart_dev_clock_enable
 143              		.syntax unified
 144              		.thumb
 145              		.thumb_func
 147              	uart_dev_clock_enable:
 148              	.LFB461:
 100:C:/StellarStudio-7.1/SDKS/StellarESDK-1.8.0/Modules/Drivers/Comms/UART/src/sr5e1\uart_dev.c **** 
 101:C:/StellarStudio-7.1/SDKS/StellarESDK-1.8.0/Modules/Drivers/Comms/UART/src/sr5e1\uart_dev.c **** /**
 102:C:/StellarStudio-7.1/SDKS/StellarESDK-1.8.0/Modules/Drivers/Comms/UART/src/sr5e1\uart_dev.c ****  * @brief   Enables UART clock.
 103:C:/StellarStudio-7.1/SDKS/StellarESDK-1.8.0/Modules/Drivers/Comms/UART/src/sr5e1\uart_dev.c ****  *
 104:C:/StellarStudio-7.1/SDKS/StellarESDK-1.8.0/Modules/Drivers/Comms/UART/src/sr5e1\uart_dev.c ****  * @param[in] udp       pointer to a @p uart_driver_t structure
 105:C:/StellarStudio-7.1/SDKS/StellarESDK-1.8.0/Modules/Drivers/Comms/UART/src/sr5e1\uart_dev.c ****  *
 106:C:/StellarStudio-7.1/SDKS/StellarESDK-1.8.0/Modules/Drivers/Comms/UART/src/sr5e1\uart_dev.c ****  * @notapi
 107:C:/StellarStudio-7.1/SDKS/StellarESDK-1.8.0/Modules/Drivers/Comms/UART/src/sr5e1\uart_dev.c ****  */
 108:C:/StellarStudio-7.1/SDKS/StellarESDK-1.8.0/Modules/Drivers/Comms/UART/src/sr5e1\uart_dev.c **** void uart_dev_clock_enable(uart_driver_t *udp) {
 149              		.loc 1 108 48
 150              		.cfi_startproc
 151              		@ args = 0, pretend = 0, frame = 32
 152              		@ frame_needed = 0, uses_anonymous_args = 0
 153              		@ link register save eliminated.
 154 0000 88B0     		sub	sp, sp, #32
 155              		.cfi_def_cfa_offset 32
 156 0002 0190     		str	r0, [sp, #4]
 109:C:/StellarStudio-7.1/SDKS/StellarESDK-1.8.0/Modules/Drivers/Comms/UART/src/sr5e1\uart_dev.c **** 
 110:C:/StellarStudio-7.1/SDKS/StellarESDK-1.8.0/Modules/Drivers/Comms/UART/src/sr5e1\uart_dev.c ****     if (udp == &DRV_UART1) {
 157              		.loc 1 110 8
 158 0004 019B     		ldr	r3, [sp, #4]
 159 0006 714A     		ldr	r2, .L28
 160 0008 9342     		cmp	r3, r2
 161 000a 47D1     		bne	.L16
 162 000c 0123     		movs	r3, #1
 163 000e 8DF81F30 		strb	r3, [sp, #31]
 164 0012 9DF81F30 		ldrb	r3, [sp, #31]
 165 0016 8DF81E30 		strb	r3, [sp, #30]
 166 001a 4FF00063 		mov	r3, #134217728
 167 001e 0693     		str	r3, [sp, #24]
 168              	.LBB38:
 169              	.LBB39:
 170              	.LBB40:
 171              	.LBB41:
 172              		.file 2 "C:/StellarStudio-7.1/SDKS/StellarESDK-1.8.0/Modules/Platform/Clock/include/sr5e1/clock.h"
   1:C:/StellarStudio-7.1/SDKS/StellarESDK-1.8.0/Modules/Platform/Clock/include/sr5e1\clock.h **** /****************************************************************************
   2:C:/StellarStudio-7.1/SDKS/StellarESDK-1.8.0/Modules/Platform/Clock/include/sr5e1\clock.h ****  *
   3:C:/StellarStudio-7.1/SDKS/StellarESDK-1.8.0/Modules/Platform/Clock/include/sr5e1\clock.h ****  * Copyright (c) 2022 STMicroelectronics - All Rights Reserved
   4:C:/StellarStudio-7.1/SDKS/StellarESDK-1.8.0/Modules/Platform/Clock/include/sr5e1\clock.h ****  *
   5:C:/StellarStudio-7.1/SDKS/StellarESDK-1.8.0/Modules/Platform/Clock/include/sr5e1\clock.h ****  * License terms: STMicroelectronics Proprietary in accordance with licensing
   6:C:/StellarStudio-7.1/SDKS/StellarESDK-1.8.0/Modules/Platform/Clock/include/sr5e1\clock.h ****  * terms SLA0098 at www.st.com.
   7:C:/StellarStudio-7.1/SDKS/StellarESDK-1.8.0/Modules/Platform/Clock/include/sr5e1\clock.h ****  *
   8:C:/StellarStudio-7.1/SDKS/StellarESDK-1.8.0/Modules/Platform/Clock/include/sr5e1\clock.h ****  * THIS SOFTWARE IS DISTRIBUTED "AS IS," AND ALL WARRANTIES ARE DISCLAIMED,
   9:C:/StellarStudio-7.1/SDKS/StellarESDK-1.8.0/Modules/Platform/Clock/include/sr5e1\clock.h ****  * INCLUDING MERCHANTABILITY AND FITNESS FOR A PARTICULAR PURPOSE.
  10:C:/StellarStudio-7.1/SDKS/StellarESDK-1.8.0/Modules/Platform/Clock/include/sr5e1\clock.h ****  *
  11:C:/StellarStudio-7.1/SDKS/StellarESDK-1.8.0/Modules/Platform/Clock/include/sr5e1\clock.h ****  *****************************************************************************/
  12:C:/StellarStudio-7.1/SDKS/StellarESDK-1.8.0/Modules/Platform/Clock/include/sr5e1\clock.h **** /**
  13:C:/StellarStudio-7.1/SDKS/StellarESDK-1.8.0/Modules/Platform/Clock/include/sr5e1\clock.h ****  * @file    clock.h
  14:C:/StellarStudio-7.1/SDKS/StellarESDK-1.8.0/Modules/Platform/Clock/include/sr5e1\clock.h ****  * @brief   SR5E1 clock subsystem header file.
  15:C:/StellarStudio-7.1/SDKS/StellarESDK-1.8.0/Modules/Platform/Clock/include/sr5e1\clock.h ****  *
  16:C:/StellarStudio-7.1/SDKS/StellarESDK-1.8.0/Modules/Platform/Clock/include/sr5e1\clock.h ****  * @addtogroup PLATFORM
  17:C:/StellarStudio-7.1/SDKS/StellarESDK-1.8.0/Modules/Platform/Clock/include/sr5e1\clock.h ****  * @addtogroup CLOCK
  18:C:/StellarStudio-7.1/SDKS/StellarESDK-1.8.0/Modules/Platform/Clock/include/sr5e1\clock.h ****  * @ingroup PLATFORM
  19:C:/StellarStudio-7.1/SDKS/StellarESDK-1.8.0/Modules/Platform/Clock/include/sr5e1\clock.h ****  * @{
  20:C:/StellarStudio-7.1/SDKS/StellarESDK-1.8.0/Modules/Platform/Clock/include/sr5e1\clock.h ****  */
  21:C:/StellarStudio-7.1/SDKS/StellarESDK-1.8.0/Modules/Platform/Clock/include/sr5e1\clock.h **** 
  22:C:/StellarStudio-7.1/SDKS/StellarESDK-1.8.0/Modules/Platform/Clock/include/sr5e1\clock.h **** #ifndef _CLOCK_H_
  23:C:/StellarStudio-7.1/SDKS/StellarESDK-1.8.0/Modules/Platform/Clock/include/sr5e1\clock.h **** #define _CLOCK_H_
  24:C:/StellarStudio-7.1/SDKS/StellarESDK-1.8.0/Modules/Platform/Clock/include/sr5e1\clock.h **** 
  25:C:/StellarStudio-7.1/SDKS/StellarESDK-1.8.0/Modules/Platform/Clock/include/sr5e1\clock.h **** #include <clock_cfg.h>
  26:C:/StellarStudio-7.1/SDKS/StellarESDK-1.8.0/Modules/Platform/Clock/include/sr5e1\clock.h **** #include <platform.h>
  27:C:/StellarStudio-7.1/SDKS/StellarESDK-1.8.0/Modules/Platform/Clock/include/sr5e1\clock.h **** #include <typedefs.h>
  28:C:/StellarStudio-7.1/SDKS/StellarESDK-1.8.0/Modules/Platform/Clock/include/sr5e1\clock.h **** 
  29:C:/StellarStudio-7.1/SDKS/StellarESDK-1.8.0/Modules/Platform/Clock/include/sr5e1\clock.h **** /*===========================================================================*/
  30:C:/StellarStudio-7.1/SDKS/StellarESDK-1.8.0/Modules/Platform/Clock/include/sr5e1\clock.h **** /* Module constants.                                                         */
  31:C:/StellarStudio-7.1/SDKS/StellarESDK-1.8.0/Modules/Platform/Clock/include/sr5e1\clock.h **** /*===========================================================================*/
  32:C:/StellarStudio-7.1/SDKS/StellarESDK-1.8.0/Modules/Platform/Clock/include/sr5e1\clock.h **** 
  33:C:/StellarStudio-7.1/SDKS/StellarESDK-1.8.0/Modules/Platform/Clock/include/sr5e1\clock.h **** /**
  34:C:/StellarStudio-7.1/SDKS/StellarESDK-1.8.0/Modules/Platform/Clock/include/sr5e1\clock.h ****  * @name    RCC CFGR register
  35:C:/StellarStudio-7.1/SDKS/StellarESDK-1.8.0/Modules/Platform/Clock/include/sr5e1\clock.h ****  * @{
  36:C:/StellarStudio-7.1/SDKS/StellarESDK-1.8.0/Modules/Platform/Clock/include/sr5e1\clock.h ****  */
  37:C:/StellarStudio-7.1/SDKS/StellarESDK-1.8.0/Modules/Platform/Clock/include/sr5e1\clock.h **** #define CLOCK_SW_MASK               (3UL << 0U)
  38:C:/StellarStudio-7.1/SDKS/StellarESDK-1.8.0/Modules/Platform/Clock/include/sr5e1\clock.h **** #define CLOCK_SW_IRCOSC             (4UL << 0U) /* Internal 16 MHz   */
  39:C:/StellarStudio-7.1/SDKS/StellarESDK-1.8.0/Modules/Platform/Clock/include/sr5e1\clock.h **** #define CLOCK_SW_XOSC               (5UL << 0U) /* External 4-40 MHz */
  40:C:/StellarStudio-7.1/SDKS/StellarESDK-1.8.0/Modules/Platform/Clock/include/sr5e1\clock.h **** #define CLOCK_SW_PLL0PHI            (6UL << 0U)
  41:C:/StellarStudio-7.1/SDKS/StellarESDK-1.8.0/Modules/Platform/Clock/include/sr5e1\clock.h **** #define CLOCK_SW_PLL1PHI            (7UL << 0U)
  42:C:/StellarStudio-7.1/SDKS/StellarESDK-1.8.0/Modules/Platform/Clock/include/sr5e1\clock.h **** 
  43:C:/StellarStudio-7.1/SDKS/StellarESDK-1.8.0/Modules/Platform/Clock/include/sr5e1\clock.h **** #define CLOCK_SYSPRE_MASK           (511UL << 8U)
  44:C:/StellarStudio-7.1/SDKS/StellarESDK-1.8.0/Modules/Platform/Clock/include/sr5e1\clock.h **** #define CLOCK_SYSPRE_FIELD(n)       (((uint32_t)(n)) << 8U)
  45:C:/StellarStudio-7.1/SDKS/StellarESDK-1.8.0/Modules/Platform/Clock/include/sr5e1\clock.h **** 
  46:C:/StellarStudio-7.1/SDKS/StellarESDK-1.8.0/Modules/Platform/Clock/include/sr5e1\clock.h **** #define CLOCK_MCOSEL_MASK           (15UL << 20U)
  47:C:/StellarStudio-7.1/SDKS/StellarESDK-1.8.0/Modules/Platform/Clock/include/sr5e1\clock.h **** #define CLOCK_MCOSEL_NOCLOCK        (0UL << 20U)
  48:C:/StellarStudio-7.1/SDKS/StellarESDK-1.8.0/Modules/Platform/Clock/include/sr5e1\clock.h **** #define CLOCK_MCOSEL_LSI            (8UL << 20U)
  49:C:/StellarStudio-7.1/SDKS/StellarESDK-1.8.0/Modules/Platform/Clock/include/sr5e1\clock.h **** #define CLOCK_MCOSEL_IRCOSC         (9UL << 20U)
  50:C:/StellarStudio-7.1/SDKS/StellarESDK-1.8.0/Modules/Platform/Clock/include/sr5e1\clock.h **** #define CLOCK_MCOSEL_XOSC           (10UL << 20U)
  51:C:/StellarStudio-7.1/SDKS/StellarESDK-1.8.0/Modules/Platform/Clock/include/sr5e1\clock.h **** #define CLOCK_MCOSEL_PLL0PHI        (11UL << 20U)
  52:C:/StellarStudio-7.1/SDKS/StellarESDK-1.8.0/Modules/Platform/Clock/include/sr5e1\clock.h **** #define CLOCK_MCOSEL_PLL1PHI        (12UL << 20U)
  53:C:/StellarStudio-7.1/SDKS/StellarESDK-1.8.0/Modules/Platform/Clock/include/sr5e1\clock.h **** 
  54:C:/StellarStudio-7.1/SDKS/StellarESDK-1.8.0/Modules/Platform/Clock/include/sr5e1\clock.h **** #define CLOCK_MCOPRE_MASK           (63UL << 24U)
  55:C:/StellarStudio-7.1/SDKS/StellarESDK-1.8.0/Modules/Platform/Clock/include/sr5e1\clock.h **** #define CLOCK_MCOPRE_FIELD(n)       (((uint32_t)(n)) << 24U)
  56:C:/StellarStudio-7.1/SDKS/StellarESDK-1.8.0/Modules/Platform/Clock/include/sr5e1\clock.h **** /** @} */
  57:C:/StellarStudio-7.1/SDKS/StellarESDK-1.8.0/Modules/Platform/Clock/include/sr5e1\clock.h **** 
  58:C:/StellarStudio-7.1/SDKS/StellarESDK-1.8.0/Modules/Platform/Clock/include/sr5e1\clock.h **** /**
  59:C:/StellarStudio-7.1/SDKS/StellarESDK-1.8.0/Modules/Platform/Clock/include/sr5e1\clock.h ****  * @name    RCC PLLCFGR register
  60:C:/StellarStudio-7.1/SDKS/StellarESDK-1.8.0/Modules/Platform/Clock/include/sr5e1\clock.h ****  * @{
  61:C:/StellarStudio-7.1/SDKS/StellarESDK-1.8.0/Modules/Platform/Clock/include/sr5e1\clock.h ****  */
  62:C:/StellarStudio-7.1/SDKS/StellarESDK-1.8.0/Modules/Platform/Clock/include/sr5e1\clock.h **** #define CLOCK_PLL0SRC_MASK          (3UL << 0U)
  63:C:/StellarStudio-7.1/SDKS/StellarESDK-1.8.0/Modules/Platform/Clock/include/sr5e1\clock.h **** #define CLOCK_PLL0SRC_NOCLOCK       (0UL << 0U)
  64:C:/StellarStudio-7.1/SDKS/StellarESDK-1.8.0/Modules/Platform/Clock/include/sr5e1\clock.h **** #define CLOCK_PLL0SRC_IRCOSC        (2UL << 0U)
  65:C:/StellarStudio-7.1/SDKS/StellarESDK-1.8.0/Modules/Platform/Clock/include/sr5e1\clock.h **** #define CLOCK_PLL0SRC_XOSC          (3UL << 0U)
  66:C:/StellarStudio-7.1/SDKS/StellarESDK-1.8.0/Modules/Platform/Clock/include/sr5e1\clock.h **** 
  67:C:/StellarStudio-7.1/SDKS/StellarESDK-1.8.0/Modules/Platform/Clock/include/sr5e1\clock.h **** #define CLOCK_PLL1SRC_MASK          (3UL << 8U)
  68:C:/StellarStudio-7.1/SDKS/StellarESDK-1.8.0/Modules/Platform/Clock/include/sr5e1\clock.h **** #define CLOCK_PLL1SRC_NOCLOCK       (0UL << 8U)
  69:C:/StellarStudio-7.1/SDKS/StellarESDK-1.8.0/Modules/Platform/Clock/include/sr5e1\clock.h **** #define CLOCK_PLL1SRC_PLL0PHI1      (2UL << 8U)
  70:C:/StellarStudio-7.1/SDKS/StellarESDK-1.8.0/Modules/Platform/Clock/include/sr5e1\clock.h **** #define CLOCK_PLL1SRC_XOSC          (3UL << 8U)
  71:C:/StellarStudio-7.1/SDKS/StellarESDK-1.8.0/Modules/Platform/Clock/include/sr5e1\clock.h **** /** @} */
  72:C:/StellarStudio-7.1/SDKS/StellarESDK-1.8.0/Modules/Platform/Clock/include/sr5e1\clock.h **** 
  73:C:/StellarStudio-7.1/SDKS/StellarESDK-1.8.0/Modules/Platform/Clock/include/sr5e1\clock.h **** /**
  74:C:/StellarStudio-7.1/SDKS/StellarESDK-1.8.0/Modules/Platform/Clock/include/sr5e1\clock.h ****  * @name    RCC CCIPR1 register
  75:C:/StellarStudio-7.1/SDKS/StellarESDK-1.8.0/Modules/Platform/Clock/include/sr5e1\clock.h ****  * @{
  76:C:/StellarStudio-7.1/SDKS/StellarESDK-1.8.0/Modules/Platform/Clock/include/sr5e1\clock.h ****  */
  77:C:/StellarStudio-7.1/SDKS/StellarESDK-1.8.0/Modules/Platform/Clock/include/sr5e1\clock.h **** #define CLOCK_UARTSEL_MASK          (7UL << 0U)
  78:C:/StellarStudio-7.1/SDKS/StellarESDK-1.8.0/Modules/Platform/Clock/include/sr5e1\clock.h **** #define CLOCK_UARTSEL_NOCLOCK       (0UL << 0U)
  79:C:/StellarStudio-7.1/SDKS/StellarESDK-1.8.0/Modules/Platform/Clock/include/sr5e1\clock.h **** #define CLOCK_UARTSEL_IRCOSC        (4UL << 0U)
  80:C:/StellarStudio-7.1/SDKS/StellarESDK-1.8.0/Modules/Platform/Clock/include/sr5e1\clock.h **** #define CLOCK_UARTSEL_XOSC          (5UL << 0U)
  81:C:/StellarStudio-7.1/SDKS/StellarESDK-1.8.0/Modules/Platform/Clock/include/sr5e1\clock.h **** #define CLOCK_UARTSEL_PLL0PHI       (6UL << 0U)
  82:C:/StellarStudio-7.1/SDKS/StellarESDK-1.8.0/Modules/Platform/Clock/include/sr5e1\clock.h **** #define CLOCK_UARTSEL_LSI           (7UL << 0U)
  83:C:/StellarStudio-7.1/SDKS/StellarESDK-1.8.0/Modules/Platform/Clock/include/sr5e1\clock.h **** 
  84:C:/StellarStudio-7.1/SDKS/StellarESDK-1.8.0/Modules/Platform/Clock/include/sr5e1\clock.h **** #define CLOCK_I2CSEL_MASK           (7UL << 4U)
  85:C:/StellarStudio-7.1/SDKS/StellarESDK-1.8.0/Modules/Platform/Clock/include/sr5e1\clock.h **** #define CLOCK_I2CSEL_NOCLOCK        (0UL << 4U)
  86:C:/StellarStudio-7.1/SDKS/StellarESDK-1.8.0/Modules/Platform/Clock/include/sr5e1\clock.h **** #define CLOCK_I2CSEL_IRCOSC         (4UL << 4U)
  87:C:/StellarStudio-7.1/SDKS/StellarESDK-1.8.0/Modules/Platform/Clock/include/sr5e1\clock.h **** #define CLOCK_I2CSEL_XOSC           (5UL << 4U)
  88:C:/StellarStudio-7.1/SDKS/StellarESDK-1.8.0/Modules/Platform/Clock/include/sr5e1\clock.h **** #define CLOCK_I2CSEL_PLL0PHI        (6UL << 4U)
  89:C:/StellarStudio-7.1/SDKS/StellarESDK-1.8.0/Modules/Platform/Clock/include/sr5e1\clock.h **** 
  90:C:/StellarStudio-7.1/SDKS/StellarESDK-1.8.0/Modules/Platform/Clock/include/sr5e1\clock.h **** #define CLOCK_SPISEL_MASK           (7UL << 8U)
  91:C:/StellarStudio-7.1/SDKS/StellarESDK-1.8.0/Modules/Platform/Clock/include/sr5e1\clock.h **** #define CLOCK_SPISEL_NOCLOCK        (0UL << 8U)
  92:C:/StellarStudio-7.1/SDKS/StellarESDK-1.8.0/Modules/Platform/Clock/include/sr5e1\clock.h **** #define CLOCK_SPISEL_IRCOSC         (4UL << 8U)
  93:C:/StellarStudio-7.1/SDKS/StellarESDK-1.8.0/Modules/Platform/Clock/include/sr5e1\clock.h **** #define CLOCK_SPISEL_XOSC           (5UL << 8U)
  94:C:/StellarStudio-7.1/SDKS/StellarESDK-1.8.0/Modules/Platform/Clock/include/sr5e1\clock.h **** #define CLOCK_SPISEL_PLL0PHI        (6UL << 8U)
  95:C:/StellarStudio-7.1/SDKS/StellarESDK-1.8.0/Modules/Platform/Clock/include/sr5e1\clock.h **** #define CLOCK_SPISEL_I2S_CKIN       (7UL << 8U)
  96:C:/StellarStudio-7.1/SDKS/StellarESDK-1.8.0/Modules/Platform/Clock/include/sr5e1\clock.h **** 
  97:C:/StellarStudio-7.1/SDKS/StellarESDK-1.8.0/Modules/Platform/Clock/include/sr5e1\clock.h **** #define CLOCK_FDCANSEL_MASK         (7UL << 12U)
  98:C:/StellarStudio-7.1/SDKS/StellarESDK-1.8.0/Modules/Platform/Clock/include/sr5e1\clock.h **** #define CLOCK_FDCANSEL_NOCLOCK      (0UL << 12U)
  99:C:/StellarStudio-7.1/SDKS/StellarESDK-1.8.0/Modules/Platform/Clock/include/sr5e1\clock.h **** #define CLOCK_FDCANSEL_XOSC         (4UL << 12U)
 100:C:/StellarStudio-7.1/SDKS/StellarESDK-1.8.0/Modules/Platform/Clock/include/sr5e1\clock.h **** #define CLOCK_FDCANSEL_PLL0PHI      (5UL << 12U)
 101:C:/StellarStudio-7.1/SDKS/StellarESDK-1.8.0/Modules/Platform/Clock/include/sr5e1\clock.h **** 
 102:C:/StellarStudio-7.1/SDKS/StellarESDK-1.8.0/Modules/Platform/Clock/include/sr5e1\clock.h **** #define CLOCK_ADCSEL_MASK           (7UL << 16U)
 103:C:/StellarStudio-7.1/SDKS/StellarESDK-1.8.0/Modules/Platform/Clock/include/sr5e1\clock.h **** #define CLOCK_ADCSEL_NOCLOCK        (0UL << 16U)
 104:C:/StellarStudio-7.1/SDKS/StellarESDK-1.8.0/Modules/Platform/Clock/include/sr5e1\clock.h **** #define CLOCK_ADCSEL_XOSC           (4UL << 16U)
 105:C:/StellarStudio-7.1/SDKS/StellarESDK-1.8.0/Modules/Platform/Clock/include/sr5e1\clock.h **** #define CLOCK_ADCSEL_PLL0PHI        (5UL << 16U)
 106:C:/StellarStudio-7.1/SDKS/StellarESDK-1.8.0/Modules/Platform/Clock/include/sr5e1\clock.h **** #define CLOCK_ADCSEL_PLL1PHI        (6UL << 16U)
 107:C:/StellarStudio-7.1/SDKS/StellarESDK-1.8.0/Modules/Platform/Clock/include/sr5e1\clock.h **** 
 108:C:/StellarStudio-7.1/SDKS/StellarESDK-1.8.0/Modules/Platform/Clock/include/sr5e1\clock.h **** #define CLOCK_SDADCSEL_MASK         (7UL << 20U)
 109:C:/StellarStudio-7.1/SDKS/StellarESDK-1.8.0/Modules/Platform/Clock/include/sr5e1\clock.h **** #define CLOCK_SDADCSEL_NOCLOCK      (0UL << 20U)
 110:C:/StellarStudio-7.1/SDKS/StellarESDK-1.8.0/Modules/Platform/Clock/include/sr5e1\clock.h **** #define CLOCK_SDADCSEL_XOSC         (4UL << 20U)
 111:C:/StellarStudio-7.1/SDKS/StellarESDK-1.8.0/Modules/Platform/Clock/include/sr5e1\clock.h **** #define CLOCK_SDADCSEL_PLL0PHI      (5UL << 20U)
 112:C:/StellarStudio-7.1/SDKS/StellarESDK-1.8.0/Modules/Platform/Clock/include/sr5e1\clock.h **** #define CLOCK_SDADCSEL_PLL1PHI      (6UL << 20U)
 113:C:/StellarStudio-7.1/SDKS/StellarESDK-1.8.0/Modules/Platform/Clock/include/sr5e1\clock.h **** /** @} */
 114:C:/StellarStudio-7.1/SDKS/StellarESDK-1.8.0/Modules/Platform/Clock/include/sr5e1\clock.h **** 
 115:C:/StellarStudio-7.1/SDKS/StellarESDK-1.8.0/Modules/Platform/Clock/include/sr5e1\clock.h **** /**
 116:C:/StellarStudio-7.1/SDKS/StellarESDK-1.8.0/Modules/Platform/Clock/include/sr5e1\clock.h ****  * @name    RCC CCIPR2 register
 117:C:/StellarStudio-7.1/SDKS/StellarESDK-1.8.0/Modules/Platform/Clock/include/sr5e1\clock.h ****  * @{
 118:C:/StellarStudio-7.1/SDKS/StellarESDK-1.8.0/Modules/Platform/Clock/include/sr5e1\clock.h ****  */
 119:C:/StellarStudio-7.1/SDKS/StellarESDK-1.8.0/Modules/Platform/Clock/include/sr5e1\clock.h **** #define CLOCK_UARTPRE_MASK          (31U << 0U)
 120:C:/StellarStudio-7.1/SDKS/StellarESDK-1.8.0/Modules/Platform/Clock/include/sr5e1\clock.h **** #define CLOCK_UARTPRE_FIELD(n)      (((uint32_t)(n)) << 0U)
 121:C:/StellarStudio-7.1/SDKS/StellarESDK-1.8.0/Modules/Platform/Clock/include/sr5e1\clock.h **** 
 122:C:/StellarStudio-7.1/SDKS/StellarESDK-1.8.0/Modules/Platform/Clock/include/sr5e1\clock.h **** #define CLOCK_I2CPRE_MASK           (31U << 5U)
 123:C:/StellarStudio-7.1/SDKS/StellarESDK-1.8.0/Modules/Platform/Clock/include/sr5e1\clock.h **** #define CLOCK_I2CPRE_FIELD(n)       (((uint32_t)(n)) << 5U)
 124:C:/StellarStudio-7.1/SDKS/StellarESDK-1.8.0/Modules/Platform/Clock/include/sr5e1\clock.h **** 
 125:C:/StellarStudio-7.1/SDKS/StellarESDK-1.8.0/Modules/Platform/Clock/include/sr5e1\clock.h **** #define CLOCK_SPIPRE_MASK           (31U << 10U)
 126:C:/StellarStudio-7.1/SDKS/StellarESDK-1.8.0/Modules/Platform/Clock/include/sr5e1\clock.h **** #define CLOCK_SPIPRE_FIELD(n)       (((uint32_t)(n)) << 10U)
 127:C:/StellarStudio-7.1/SDKS/StellarESDK-1.8.0/Modules/Platform/Clock/include/sr5e1\clock.h **** 
 128:C:/StellarStudio-7.1/SDKS/StellarESDK-1.8.0/Modules/Platform/Clock/include/sr5e1\clock.h **** #define CLOCK_FDCANPRE_MASK         (31U << 15U)
 129:C:/StellarStudio-7.1/SDKS/StellarESDK-1.8.0/Modules/Platform/Clock/include/sr5e1\clock.h **** #define CLOCK_FDCANPRE_FIELD(n)     (((uint32_t)(n)) << 15U)
 130:C:/StellarStudio-7.1/SDKS/StellarESDK-1.8.0/Modules/Platform/Clock/include/sr5e1\clock.h **** 
 131:C:/StellarStudio-7.1/SDKS/StellarESDK-1.8.0/Modules/Platform/Clock/include/sr5e1\clock.h **** #define CLOCK_ADCPRE_MASK           (63U << 20U)
 132:C:/StellarStudio-7.1/SDKS/StellarESDK-1.8.0/Modules/Platform/Clock/include/sr5e1\clock.h **** #define CLOCK_ADCPRE_FIELD(n)       (((uint32_t)(n)) << 20U)
 133:C:/StellarStudio-7.1/SDKS/StellarESDK-1.8.0/Modules/Platform/Clock/include/sr5e1\clock.h **** 
 134:C:/StellarStudio-7.1/SDKS/StellarESDK-1.8.0/Modules/Platform/Clock/include/sr5e1\clock.h **** #define CLOCK_SDADCPRE_MASK         (63U << 26U)
 135:C:/StellarStudio-7.1/SDKS/StellarESDK-1.8.0/Modules/Platform/Clock/include/sr5e1\clock.h **** #define CLOCK_SDADCPRE_FIELD(n)     (((uint32_t)(n)) << 26U)
 136:C:/StellarStudio-7.1/SDKS/StellarESDK-1.8.0/Modules/Platform/Clock/include/sr5e1\clock.h **** /** @} */
 137:C:/StellarStudio-7.1/SDKS/StellarESDK-1.8.0/Modules/Platform/Clock/include/sr5e1\clock.h **** 
 138:C:/StellarStudio-7.1/SDKS/StellarESDK-1.8.0/Modules/Platform/Clock/include/sr5e1\clock.h **** /**
 139:C:/StellarStudio-7.1/SDKS/StellarESDK-1.8.0/Modules/Platform/Clock/include/sr5e1\clock.h ****  * @name    RCC LSCFGR register
 140:C:/StellarStudio-7.1/SDKS/StellarESDK-1.8.0/Modules/Platform/Clock/include/sr5e1\clock.h ****  * @{
 141:C:/StellarStudio-7.1/SDKS/StellarESDK-1.8.0/Modules/Platform/Clock/include/sr5e1\clock.h ****  */
 142:C:/StellarStudio-7.1/SDKS/StellarESDK-1.8.0/Modules/Platform/Clock/include/sr5e1\clock.h **** #define CLOCK_RTCSEL_MASK           (3UL << 9U)
 143:C:/StellarStudio-7.1/SDKS/StellarESDK-1.8.0/Modules/Platform/Clock/include/sr5e1\clock.h **** #define CLOCK_RTCSEL_NOCLOCK        (0UL << 9U)
 144:C:/StellarStudio-7.1/SDKS/StellarESDK-1.8.0/Modules/Platform/Clock/include/sr5e1\clock.h **** #define CLOCK_RTCSEL_LSI            (2UL << 9U)  /* LSI after LSIPRE prescaler division */
 145:C:/StellarStudio-7.1/SDKS/StellarESDK-1.8.0/Modules/Platform/Clock/include/sr5e1\clock.h **** #define CLOCK_RTCSEL_XOSC           (3UL << 9U)  /* XOSC divided by 32 */
 146:C:/StellarStudio-7.1/SDKS/StellarESDK-1.8.0/Modules/Platform/Clock/include/sr5e1\clock.h **** 
 147:C:/StellarStudio-7.1/SDKS/StellarESDK-1.8.0/Modules/Platform/Clock/include/sr5e1\clock.h **** #define CLOCK_LSIPRE_MASK           (31UL << 0U)
 148:C:/StellarStudio-7.1/SDKS/StellarESDK-1.8.0/Modules/Platform/Clock/include/sr5e1\clock.h **** #define CLOCK_LSIPRE_FIELD(n)       (((uint32_t)(n)) << 0U)
 149:C:/StellarStudio-7.1/SDKS/StellarESDK-1.8.0/Modules/Platform/Clock/include/sr5e1\clock.h **** /** @} */
 150:C:/StellarStudio-7.1/SDKS/StellarESDK-1.8.0/Modules/Platform/Clock/include/sr5e1\clock.h **** 
 151:C:/StellarStudio-7.1/SDKS/StellarESDK-1.8.0/Modules/Platform/Clock/include/sr5e1\clock.h **** /**
 152:C:/StellarStudio-7.1/SDKS/StellarESDK-1.8.0/Modules/Platform/Clock/include/sr5e1\clock.h ****  * @name    PLLDIG PLL0DV register
 153:C:/StellarStudio-7.1/SDKS/StellarESDK-1.8.0/Modules/Platform/Clock/include/sr5e1\clock.h ****  * @{
 154:C:/StellarStudio-7.1/SDKS/StellarESDK-1.8.0/Modules/Platform/Clock/include/sr5e1\clock.h ****  */
 155:C:/StellarStudio-7.1/SDKS/StellarESDK-1.8.0/Modules/Platform/Clock/include/sr5e1\clock.h **** #define CLOCK_PLL0MFD_MASK          (127UL << 0U)
 156:C:/StellarStudio-7.1/SDKS/StellarESDK-1.8.0/Modules/Platform/Clock/include/sr5e1\clock.h **** #define CLOCK_PLL0MFD_FIELD(n)      (((uint32_t)(n)) << 0U)
 157:C:/StellarStudio-7.1/SDKS/StellarESDK-1.8.0/Modules/Platform/Clock/include/sr5e1\clock.h **** 
 158:C:/StellarStudio-7.1/SDKS/StellarESDK-1.8.0/Modules/Platform/Clock/include/sr5e1\clock.h **** #define CLOCK_PLL0PREDIV_MASK       (7UL << 12U)
 159:C:/StellarStudio-7.1/SDKS/StellarESDK-1.8.0/Modules/Platform/Clock/include/sr5e1\clock.h **** #define CLOCK_PLL0PREDIV_FIELD(n)   (((uint32_t)(n)) << 12U)
 160:C:/StellarStudio-7.1/SDKS/StellarESDK-1.8.0/Modules/Platform/Clock/include/sr5e1\clock.h **** 
 161:C:/StellarStudio-7.1/SDKS/StellarESDK-1.8.0/Modules/Platform/Clock/include/sr5e1\clock.h **** #define CLOCK_PLL0RFDPHI_MASK       (63UL << 16U)
 162:C:/StellarStudio-7.1/SDKS/StellarESDK-1.8.0/Modules/Platform/Clock/include/sr5e1\clock.h **** #define CLOCK_PLL0RFDPHI_FIELD(n)   (((uint32_t)(n)) << 16U)
 163:C:/StellarStudio-7.1/SDKS/StellarESDK-1.8.0/Modules/Platform/Clock/include/sr5e1\clock.h **** 
 164:C:/StellarStudio-7.1/SDKS/StellarESDK-1.8.0/Modules/Platform/Clock/include/sr5e1\clock.h **** #define CLOCK_PLL0RFDPHI1_MASK      (15UL << 27U)
 165:C:/StellarStudio-7.1/SDKS/StellarESDK-1.8.0/Modules/Platform/Clock/include/sr5e1\clock.h **** #define CLOCK_PLL0RFDPHI1_FIELD(n)  (((uint32_t)(n)) << 27U)
 166:C:/StellarStudio-7.1/SDKS/StellarESDK-1.8.0/Modules/Platform/Clock/include/sr5e1\clock.h **** /** @} */
 167:C:/StellarStudio-7.1/SDKS/StellarESDK-1.8.0/Modules/Platform/Clock/include/sr5e1\clock.h **** 
 168:C:/StellarStudio-7.1/SDKS/StellarESDK-1.8.0/Modules/Platform/Clock/include/sr5e1\clock.h **** /**
 169:C:/StellarStudio-7.1/SDKS/StellarESDK-1.8.0/Modules/Platform/Clock/include/sr5e1\clock.h ****  * @name    PLLDIG PLL1DV register
 170:C:/StellarStudio-7.1/SDKS/StellarESDK-1.8.0/Modules/Platform/Clock/include/sr5e1\clock.h ****  * @{
 171:C:/StellarStudio-7.1/SDKS/StellarESDK-1.8.0/Modules/Platform/Clock/include/sr5e1\clock.h ****  */
 172:C:/StellarStudio-7.1/SDKS/StellarESDK-1.8.0/Modules/Platform/Clock/include/sr5e1\clock.h **** #define CLOCK_PLL1MFD_MASK          (127UL << 0U)
 173:C:/StellarStudio-7.1/SDKS/StellarESDK-1.8.0/Modules/Platform/Clock/include/sr5e1\clock.h **** #define CLOCK_PLL1MFD_FIELD(n)      (((uint32_t)(n)) << 0U)
 174:C:/StellarStudio-7.1/SDKS/StellarESDK-1.8.0/Modules/Platform/Clock/include/sr5e1\clock.h **** 
 175:C:/StellarStudio-7.1/SDKS/StellarESDK-1.8.0/Modules/Platform/Clock/include/sr5e1\clock.h **** #define CLOCK_PLL1RFDPHI_MASK       (63U << 16U)
 176:C:/StellarStudio-7.1/SDKS/StellarESDK-1.8.0/Modules/Platform/Clock/include/sr5e1\clock.h **** #define CLOCK_PLL1RFDPHI_FIELD(n)   (((uint32_t)(n)) << 16U)
 177:C:/StellarStudio-7.1/SDKS/StellarESDK-1.8.0/Modules/Platform/Clock/include/sr5e1\clock.h **** /** @} */
 178:C:/StellarStudio-7.1/SDKS/StellarESDK-1.8.0/Modules/Platform/Clock/include/sr5e1\clock.h **** 
 179:C:/StellarStudio-7.1/SDKS/StellarESDK-1.8.0/Modules/Platform/Clock/include/sr5e1\clock.h **** /**
 180:C:/StellarStudio-7.1/SDKS/StellarESDK-1.8.0/Modules/Platform/Clock/include/sr5e1\clock.h ****  * @name    NVMPC PFCR1 register
 181:C:/StellarStudio-7.1/SDKS/StellarESDK-1.8.0/Modules/Platform/Clock/include/sr5e1\clock.h ****  * @{
 182:C:/StellarStudio-7.1/SDKS/StellarESDK-1.8.0/Modules/Platform/Clock/include/sr5e1\clock.h ****  */
 183:C:/StellarStudio-7.1/SDKS/StellarESDK-1.8.0/Modules/Platform/Clock/include/sr5e1\clock.h **** 
 184:C:/StellarStudio-7.1/SDKS/StellarESDK-1.8.0/Modules/Platform/Clock/include/sr5e1\clock.h **** #define CLOCK_NVMCCBFEN_MASK        (1UL << 0U)
 185:C:/StellarStudio-7.1/SDKS/StellarESDK-1.8.0/Modules/Platform/Clock/include/sr5e1\clock.h **** #define CLOCK_NVMCCBFEN_FIELD(n)    (((uint32_t)(n)) << 0U)
 186:C:/StellarStudio-7.1/SDKS/StellarESDK-1.8.0/Modules/Platform/Clock/include/sr5e1\clock.h **** 
 187:C:/StellarStudio-7.1/SDKS/StellarESDK-1.8.0/Modules/Platform/Clock/include/sr5e1\clock.h **** #define CLOCK_NVMDCBFEN_MASK        (1UL << 1U)
 188:C:/StellarStudio-7.1/SDKS/StellarESDK-1.8.0/Modules/Platform/Clock/include/sr5e1\clock.h **** #define CLOCK_NVMDCBFEN_FIELD(n)    ((n) << 1U)
 189:C:/StellarStudio-7.1/SDKS/StellarESDK-1.8.0/Modules/Platform/Clock/include/sr5e1\clock.h **** 
 190:C:/StellarStudio-7.1/SDKS/StellarESDK-1.8.0/Modules/Platform/Clock/include/sr5e1\clock.h **** #define CLOCK_NVMRWSC_MASK          (1FUL << 8U)
 191:C:/StellarStudio-7.1/SDKS/StellarESDK-1.8.0/Modules/Platform/Clock/include/sr5e1\clock.h **** #define CLOCK_NVMRWSC_FIELD(n)      (((uint32_t)(n)) << 8U)
 192:C:/StellarStudio-7.1/SDKS/StellarESDK-1.8.0/Modules/Platform/Clock/include/sr5e1\clock.h **** 
 193:C:/StellarStudio-7.1/SDKS/StellarESDK-1.8.0/Modules/Platform/Clock/include/sr5e1\clock.h **** #define CLOCK_NVMAPC_MASK           (7UL << 13U)
 194:C:/StellarStudio-7.1/SDKS/StellarESDK-1.8.0/Modules/Platform/Clock/include/sr5e1\clock.h **** #define CLOCK_NVMAPC_FIELD(n)       (((uint32_t)(n)) << 13U)
 195:C:/StellarStudio-7.1/SDKS/StellarESDK-1.8.0/Modules/Platform/Clock/include/sr5e1\clock.h **** /** @} */
 196:C:/StellarStudio-7.1/SDKS/StellarESDK-1.8.0/Modules/Platform/Clock/include/sr5e1\clock.h **** 
 197:C:/StellarStudio-7.1/SDKS/StellarESDK-1.8.0/Modules/Platform/Clock/include/sr5e1\clock.h **** /**
 198:C:/StellarStudio-7.1/SDKS/StellarESDK-1.8.0/Modules/Platform/Clock/include/sr5e1\clock.h ****  * @name    Internal oscillators
 199:C:/StellarStudio-7.1/SDKS/StellarESDK-1.8.0/Modules/Platform/Clock/include/sr5e1\clock.h ****  * @{
 200:C:/StellarStudio-7.1/SDKS/StellarESDK-1.8.0/Modules/Platform/Clock/include/sr5e1\clock.h ****  */
 201:C:/StellarStudio-7.1/SDKS/StellarESDK-1.8.0/Modules/Platform/Clock/include/sr5e1\clock.h **** #define CLOCK_IRCOSCCLK             16000000UL
 202:C:/StellarStudio-7.1/SDKS/StellarESDK-1.8.0/Modules/Platform/Clock/include/sr5e1\clock.h **** #define CLOCK_LSICLK                1000000UL
 203:C:/StellarStudio-7.1/SDKS/StellarESDK-1.8.0/Modules/Platform/Clock/include/sr5e1\clock.h **** /** @} */
 204:C:/StellarStudio-7.1/SDKS/StellarESDK-1.8.0/Modules/Platform/Clock/include/sr5e1\clock.h **** 
 205:C:/StellarStudio-7.1/SDKS/StellarESDK-1.8.0/Modules/Platform/Clock/include/sr5e1\clock.h **** /*===========================================================================*/
 206:C:/StellarStudio-7.1/SDKS/StellarESDK-1.8.0/Modules/Platform/Clock/include/sr5e1\clock.h **** /* Module pre-compile time settings.                                         */
 207:C:/StellarStudio-7.1/SDKS/StellarESDK-1.8.0/Modules/Platform/Clock/include/sr5e1\clock.h **** /*===========================================================================*/
 208:C:/StellarStudio-7.1/SDKS/StellarESDK-1.8.0/Modules/Platform/Clock/include/sr5e1\clock.h **** 
 209:C:/StellarStudio-7.1/SDKS/StellarESDK-1.8.0/Modules/Platform/Clock/include/sr5e1\clock.h **** /*===========================================================================*/
 210:C:/StellarStudio-7.1/SDKS/StellarESDK-1.8.0/Modules/Platform/Clock/include/sr5e1\clock.h **** /* Derived constants and error checks.                                       */
 211:C:/StellarStudio-7.1/SDKS/StellarESDK-1.8.0/Modules/Platform/Clock/include/sr5e1\clock.h **** /*===========================================================================*/
 212:C:/StellarStudio-7.1/SDKS/StellarESDK-1.8.0/Modules/Platform/Clock/include/sr5e1\clock.h **** 
 213:C:/StellarStudio-7.1/SDKS/StellarESDK-1.8.0/Modules/Platform/Clock/include/sr5e1\clock.h **** /* Configuration file checks.*/
 214:C:/StellarStudio-7.1/SDKS/StellarESDK-1.8.0/Modules/Platform/Clock/include/sr5e1\clock.h **** #if !defined(SR5E1xxx_CLOCKCONF)
 215:C:/StellarStudio-7.1/SDKS/StellarESDK-1.8.0/Modules/Platform/Clock/include/sr5e1\clock.h **** #error "SR5E1xxx_CLOCKCONF not defined in clock_cfg.h"
 216:C:/StellarStudio-7.1/SDKS/StellarESDK-1.8.0/Modules/Platform/Clock/include/sr5e1\clock.h **** #endif
 217:C:/StellarStudio-7.1/SDKS/StellarESDK-1.8.0/Modules/Platform/Clock/include/sr5e1\clock.h **** 
 218:C:/StellarStudio-7.1/SDKS/StellarESDK-1.8.0/Modules/Platform/Clock/include/sr5e1\clock.h **** #if !defined(CLOCK_CFG_SMP_MODE) || defined(__DOXYGEN__)
 219:C:/StellarStudio-7.1/SDKS/StellarESDK-1.8.0/Modules/Platform/Clock/include/sr5e1\clock.h **** #error "CLOCK_CFG_SMP_MODE not defined in clock_cfg.h"
 220:C:/StellarStudio-7.1/SDKS/StellarESDK-1.8.0/Modules/Platform/Clock/include/sr5e1\clock.h **** #endif
 221:C:/StellarStudio-7.1/SDKS/StellarESDK-1.8.0/Modules/Platform/Clock/include/sr5e1\clock.h **** 
 222:C:/StellarStudio-7.1/SDKS/StellarESDK-1.8.0/Modules/Platform/Clock/include/sr5e1\clock.h **** #if !defined(CLOCK_CFG_XOSC_ENABLED) || defined(__DOXYGEN__)
 223:C:/StellarStudio-7.1/SDKS/StellarESDK-1.8.0/Modules/Platform/Clock/include/sr5e1\clock.h **** #error "CLOCK_CFG_XOSC_ENABLED not defined in clock_cfg.h"
 224:C:/StellarStudio-7.1/SDKS/StellarESDK-1.8.0/Modules/Platform/Clock/include/sr5e1\clock.h **** #endif
 225:C:/StellarStudio-7.1/SDKS/StellarESDK-1.8.0/Modules/Platform/Clock/include/sr5e1\clock.h **** 
 226:C:/StellarStudio-7.1/SDKS/StellarESDK-1.8.0/Modules/Platform/Clock/include/sr5e1\clock.h **** #if !defined(CLOCK_CFG_LSI_ENABLED) || defined(__DOXYGEN__)
 227:C:/StellarStudio-7.1/SDKS/StellarESDK-1.8.0/Modules/Platform/Clock/include/sr5e1\clock.h **** #error "CLOCK_CFG_LSI_ENABLED not defined in clock_cfg.h"
 228:C:/StellarStudio-7.1/SDKS/StellarESDK-1.8.0/Modules/Platform/Clock/include/sr5e1\clock.h **** #endif
 229:C:/StellarStudio-7.1/SDKS/StellarESDK-1.8.0/Modules/Platform/Clock/include/sr5e1\clock.h **** 
 230:C:/StellarStudio-7.1/SDKS/StellarESDK-1.8.0/Modules/Platform/Clock/include/sr5e1\clock.h **** #if !defined(CLOCK_CFG_XOSCCLK)
 231:C:/StellarStudio-7.1/SDKS/StellarESDK-1.8.0/Modules/Platform/Clock/include/sr5e1\clock.h **** #error "CLOCK_CFG_XOSCCLK not defined in clock_cfg.h"
 232:C:/StellarStudio-7.1/SDKS/StellarESDK-1.8.0/Modules/Platform/Clock/include/sr5e1\clock.h **** #endif
 233:C:/StellarStudio-7.1/SDKS/StellarESDK-1.8.0/Modules/Platform/Clock/include/sr5e1\clock.h **** 
 234:C:/StellarStudio-7.1/SDKS/StellarESDK-1.8.0/Modules/Platform/Clock/include/sr5e1\clock.h **** #if !defined(CLOCK_CFG_XOSC_BYPASS)
 235:C:/StellarStudio-7.1/SDKS/StellarESDK-1.8.0/Modules/Platform/Clock/include/sr5e1\clock.h **** #error "CLOCK_CFG_XOSC_BYPASS not defined in clock_cfg.h"
 236:C:/StellarStudio-7.1/SDKS/StellarESDK-1.8.0/Modules/Platform/Clock/include/sr5e1\clock.h **** #endif
 237:C:/StellarStudio-7.1/SDKS/StellarESDK-1.8.0/Modules/Platform/Clock/include/sr5e1\clock.h **** 
 238:C:/StellarStudio-7.1/SDKS/StellarESDK-1.8.0/Modules/Platform/Clock/include/sr5e1\clock.h **** #if !defined(CLOCK_CFG_PLL0SRC) || defined(__DOXYGEN__)
 239:C:/StellarStudio-7.1/SDKS/StellarESDK-1.8.0/Modules/Platform/Clock/include/sr5e1\clock.h **** #error "CLOCK_CFG_PLL0SRC not defined in clock_cfg.h"
 240:C:/StellarStudio-7.1/SDKS/StellarESDK-1.8.0/Modules/Platform/Clock/include/sr5e1\clock.h **** #endif
 241:C:/StellarStudio-7.1/SDKS/StellarESDK-1.8.0/Modules/Platform/Clock/include/sr5e1\clock.h **** 
 242:C:/StellarStudio-7.1/SDKS/StellarESDK-1.8.0/Modules/Platform/Clock/include/sr5e1\clock.h **** #if !defined(CLOCK_CFG_PLL0MFD_VALUE) || defined(__DOXYGEN__)
 243:C:/StellarStudio-7.1/SDKS/StellarESDK-1.8.0/Modules/Platform/Clock/include/sr5e1\clock.h **** #error "CLOCK_CFG_PLL0MFD_VALUE not defined in clock_cfg.h"
 244:C:/StellarStudio-7.1/SDKS/StellarESDK-1.8.0/Modules/Platform/Clock/include/sr5e1\clock.h **** #endif
 245:C:/StellarStudio-7.1/SDKS/StellarESDK-1.8.0/Modules/Platform/Clock/include/sr5e1\clock.h **** 
 246:C:/StellarStudio-7.1/SDKS/StellarESDK-1.8.0/Modules/Platform/Clock/include/sr5e1\clock.h **** #if !defined(CLOCK_CFG_PLL0PREDIV_VALUE) || defined(__DOXYGEN__)
 247:C:/StellarStudio-7.1/SDKS/StellarESDK-1.8.0/Modules/Platform/Clock/include/sr5e1\clock.h **** #error "CLOCK_CFG_PLL0PREDIV_VALUE not defined in clock_cfg.h"
 248:C:/StellarStudio-7.1/SDKS/StellarESDK-1.8.0/Modules/Platform/Clock/include/sr5e1\clock.h **** #endif
 249:C:/StellarStudio-7.1/SDKS/StellarESDK-1.8.0/Modules/Platform/Clock/include/sr5e1\clock.h **** 
 250:C:/StellarStudio-7.1/SDKS/StellarESDK-1.8.0/Modules/Platform/Clock/include/sr5e1\clock.h **** #if !defined(CLOCK_CFG_PLL0RFDPHI_VALUE) || defined(__DOXYGEN__)
 251:C:/StellarStudio-7.1/SDKS/StellarESDK-1.8.0/Modules/Platform/Clock/include/sr5e1\clock.h **** #error "CLOCK_CFG_PLL0RFDPHI_VALUE not defined in clock_cfg.h"
 252:C:/StellarStudio-7.1/SDKS/StellarESDK-1.8.0/Modules/Platform/Clock/include/sr5e1\clock.h **** #endif
 253:C:/StellarStudio-7.1/SDKS/StellarESDK-1.8.0/Modules/Platform/Clock/include/sr5e1\clock.h **** 
 254:C:/StellarStudio-7.1/SDKS/StellarESDK-1.8.0/Modules/Platform/Clock/include/sr5e1\clock.h **** #if !defined(CLOCK_CFG_PLL0RFDPHI1_VALUE) || defined(__DOXYGEN__)
 255:C:/StellarStudio-7.1/SDKS/StellarESDK-1.8.0/Modules/Platform/Clock/include/sr5e1\clock.h **** #error "CLOCK_CFG_PLL0RFDPHI1_VALUE not defined in clock_cfg.h"
 256:C:/StellarStudio-7.1/SDKS/StellarESDK-1.8.0/Modules/Platform/Clock/include/sr5e1\clock.h **** #endif
 257:C:/StellarStudio-7.1/SDKS/StellarESDK-1.8.0/Modules/Platform/Clock/include/sr5e1\clock.h **** 
 258:C:/StellarStudio-7.1/SDKS/StellarESDK-1.8.0/Modules/Platform/Clock/include/sr5e1\clock.h **** #if !defined(CLOCK_CFG_PLL1SRC) || defined(__DOXYGEN__)
 259:C:/StellarStudio-7.1/SDKS/StellarESDK-1.8.0/Modules/Platform/Clock/include/sr5e1\clock.h **** #error "CLOCK_CFG_PLL1SRC not defined in clock_cfg.h"
 260:C:/StellarStudio-7.1/SDKS/StellarESDK-1.8.0/Modules/Platform/Clock/include/sr5e1\clock.h **** #endif
 261:C:/StellarStudio-7.1/SDKS/StellarESDK-1.8.0/Modules/Platform/Clock/include/sr5e1\clock.h **** 
 262:C:/StellarStudio-7.1/SDKS/StellarESDK-1.8.0/Modules/Platform/Clock/include/sr5e1\clock.h **** #if !defined(CLOCK_CFG_PLL1MFD_VALUE) || defined(__DOXYGEN__)
 263:C:/StellarStudio-7.1/SDKS/StellarESDK-1.8.0/Modules/Platform/Clock/include/sr5e1\clock.h **** #error "CLOCK_CFG_PLL1MFD_VALUE not defined in clock_cfg.h"
 264:C:/StellarStudio-7.1/SDKS/StellarESDK-1.8.0/Modules/Platform/Clock/include/sr5e1\clock.h **** #endif
 265:C:/StellarStudio-7.1/SDKS/StellarESDK-1.8.0/Modules/Platform/Clock/include/sr5e1\clock.h **** 
 266:C:/StellarStudio-7.1/SDKS/StellarESDK-1.8.0/Modules/Platform/Clock/include/sr5e1\clock.h **** #if !defined(CLOCK_CFG_PLL1RFDPHI_VALUE) || defined(__DOXYGEN__)
 267:C:/StellarStudio-7.1/SDKS/StellarESDK-1.8.0/Modules/Platform/Clock/include/sr5e1\clock.h **** #error "CLOCK_CFG_PLL1RFDPHI_VALUE not defined in clock_cfg.h"
 268:C:/StellarStudio-7.1/SDKS/StellarESDK-1.8.0/Modules/Platform/Clock/include/sr5e1\clock.h **** #endif
 269:C:/StellarStudio-7.1/SDKS/StellarESDK-1.8.0/Modules/Platform/Clock/include/sr5e1\clock.h **** 
 270:C:/StellarStudio-7.1/SDKS/StellarESDK-1.8.0/Modules/Platform/Clock/include/sr5e1\clock.h **** #if !defined(CLOCK_CFG_SW) || defined(__DOXYGEN__)
 271:C:/StellarStudio-7.1/SDKS/StellarESDK-1.8.0/Modules/Platform/Clock/include/sr5e1\clock.h **** #error "CLOCK_CFG_SW not defined in clock_cfg.h"
 272:C:/StellarStudio-7.1/SDKS/StellarESDK-1.8.0/Modules/Platform/Clock/include/sr5e1\clock.h **** #endif
 273:C:/StellarStudio-7.1/SDKS/StellarESDK-1.8.0/Modules/Platform/Clock/include/sr5e1\clock.h **** 
 274:C:/StellarStudio-7.1/SDKS/StellarESDK-1.8.0/Modules/Platform/Clock/include/sr5e1\clock.h **** #if !defined(CLOCK_CFG_SYSPRE_VALUE) || defined(__DOXYGEN__)
 275:C:/StellarStudio-7.1/SDKS/StellarESDK-1.8.0/Modules/Platform/Clock/include/sr5e1\clock.h **** #error "CLOCK_CFG_SYSPRE_VALUE not defined in clock_cfg.h"
 276:C:/StellarStudio-7.1/SDKS/StellarESDK-1.8.0/Modules/Platform/Clock/include/sr5e1\clock.h **** #endif
 277:C:/StellarStudio-7.1/SDKS/StellarESDK-1.8.0/Modules/Platform/Clock/include/sr5e1\clock.h **** 
 278:C:/StellarStudio-7.1/SDKS/StellarESDK-1.8.0/Modules/Platform/Clock/include/sr5e1\clock.h **** #if !defined(CLOCK_CFG_UARTSEL) || defined(__DOXYGEN__)
 279:C:/StellarStudio-7.1/SDKS/StellarESDK-1.8.0/Modules/Platform/Clock/include/sr5e1\clock.h **** #error "CLOCK_CFG_UARTSEL not defined in clock_cfg.h"
 280:C:/StellarStudio-7.1/SDKS/StellarESDK-1.8.0/Modules/Platform/Clock/include/sr5e1\clock.h **** #endif
 281:C:/StellarStudio-7.1/SDKS/StellarESDK-1.8.0/Modules/Platform/Clock/include/sr5e1\clock.h **** 
 282:C:/StellarStudio-7.1/SDKS/StellarESDK-1.8.0/Modules/Platform/Clock/include/sr5e1\clock.h **** #if !defined(CLOCK_CFG_I2CSEL) || defined(__DOXYGEN__)
 283:C:/StellarStudio-7.1/SDKS/StellarESDK-1.8.0/Modules/Platform/Clock/include/sr5e1\clock.h **** #error "CLOCK_CFG_I2CSEL not defined in clock_cfg.h"
 284:C:/StellarStudio-7.1/SDKS/StellarESDK-1.8.0/Modules/Platform/Clock/include/sr5e1\clock.h **** #endif
 285:C:/StellarStudio-7.1/SDKS/StellarESDK-1.8.0/Modules/Platform/Clock/include/sr5e1\clock.h **** 
 286:C:/StellarStudio-7.1/SDKS/StellarESDK-1.8.0/Modules/Platform/Clock/include/sr5e1\clock.h **** #if !defined(CLOCK_CFG_SPISEL) || defined(__DOXYGEN__)
 287:C:/StellarStudio-7.1/SDKS/StellarESDK-1.8.0/Modules/Platform/Clock/include/sr5e1\clock.h **** #error "CLOCK_CFG_SPISEL not defined in clock_cfg.h"
 288:C:/StellarStudio-7.1/SDKS/StellarESDK-1.8.0/Modules/Platform/Clock/include/sr5e1\clock.h **** #endif
 289:C:/StellarStudio-7.1/SDKS/StellarESDK-1.8.0/Modules/Platform/Clock/include/sr5e1\clock.h **** 
 290:C:/StellarStudio-7.1/SDKS/StellarESDK-1.8.0/Modules/Platform/Clock/include/sr5e1\clock.h **** #if !defined(CLOCK_CFG_FDCANSEL) || defined(__DOXYGEN__)
 291:C:/StellarStudio-7.1/SDKS/StellarESDK-1.8.0/Modules/Platform/Clock/include/sr5e1\clock.h **** #error "CLOCK_CFG_FDCANSEL not defined in clock_cfg.h"
 292:C:/StellarStudio-7.1/SDKS/StellarESDK-1.8.0/Modules/Platform/Clock/include/sr5e1\clock.h **** #endif
 293:C:/StellarStudio-7.1/SDKS/StellarESDK-1.8.0/Modules/Platform/Clock/include/sr5e1\clock.h **** 
 294:C:/StellarStudio-7.1/SDKS/StellarESDK-1.8.0/Modules/Platform/Clock/include/sr5e1\clock.h **** #if !defined(CLOCK_CFG_ADCSEL) || defined(__DOXYGEN__)
 295:C:/StellarStudio-7.1/SDKS/StellarESDK-1.8.0/Modules/Platform/Clock/include/sr5e1\clock.h **** #error "CLOCK_CFG_ADCSEL not defined in clock_cfg.h"
 296:C:/StellarStudio-7.1/SDKS/StellarESDK-1.8.0/Modules/Platform/Clock/include/sr5e1\clock.h **** #endif
 297:C:/StellarStudio-7.1/SDKS/StellarESDK-1.8.0/Modules/Platform/Clock/include/sr5e1\clock.h **** 
 298:C:/StellarStudio-7.1/SDKS/StellarESDK-1.8.0/Modules/Platform/Clock/include/sr5e1\clock.h **** #if !defined(CLOCK_CFG_SDADCSEL) || defined(__DOXYGEN__)
 299:C:/StellarStudio-7.1/SDKS/StellarESDK-1.8.0/Modules/Platform/Clock/include/sr5e1\clock.h **** #error "CLOCK_CFG_SDADCSEL not defined in clock_cfg.h"
 300:C:/StellarStudio-7.1/SDKS/StellarESDK-1.8.0/Modules/Platform/Clock/include/sr5e1\clock.h **** #endif
 301:C:/StellarStudio-7.1/SDKS/StellarESDK-1.8.0/Modules/Platform/Clock/include/sr5e1\clock.h **** 
 302:C:/StellarStudio-7.1/SDKS/StellarESDK-1.8.0/Modules/Platform/Clock/include/sr5e1\clock.h **** #if !defined(CLOCK_CFG_MCOSEL) || defined(__DOXYGEN__)
 303:C:/StellarStudio-7.1/SDKS/StellarESDK-1.8.0/Modules/Platform/Clock/include/sr5e1\clock.h **** #error "CLOCK_CFG_MCOSEL not defined in clock_cfg.h"
 304:C:/StellarStudio-7.1/SDKS/StellarESDK-1.8.0/Modules/Platform/Clock/include/sr5e1\clock.h **** #endif
 305:C:/StellarStudio-7.1/SDKS/StellarESDK-1.8.0/Modules/Platform/Clock/include/sr5e1\clock.h **** 
 306:C:/StellarStudio-7.1/SDKS/StellarESDK-1.8.0/Modules/Platform/Clock/include/sr5e1\clock.h **** #if !defined(CLOCK_CFG_RTCSEL) || defined(__DOXYGEN__)
 307:C:/StellarStudio-7.1/SDKS/StellarESDK-1.8.0/Modules/Platform/Clock/include/sr5e1\clock.h **** #error "CLOCK_CFG_RTCSEL not defined in clock_cfg.h"
 308:C:/StellarStudio-7.1/SDKS/StellarESDK-1.8.0/Modules/Platform/Clock/include/sr5e1\clock.h **** #endif
 309:C:/StellarStudio-7.1/SDKS/StellarESDK-1.8.0/Modules/Platform/Clock/include/sr5e1\clock.h **** 
 310:C:/StellarStudio-7.1/SDKS/StellarESDK-1.8.0/Modules/Platform/Clock/include/sr5e1\clock.h **** #if !defined(CLOCK_CFG_UARTPRE_VALUE) || defined(__DOXYGEN__)
 311:C:/StellarStudio-7.1/SDKS/StellarESDK-1.8.0/Modules/Platform/Clock/include/sr5e1\clock.h **** #error "CLOCK_CFG_UARTPRE_VALUE not defined in clock_cfg.h"
 312:C:/StellarStudio-7.1/SDKS/StellarESDK-1.8.0/Modules/Platform/Clock/include/sr5e1\clock.h **** #endif
 313:C:/StellarStudio-7.1/SDKS/StellarESDK-1.8.0/Modules/Platform/Clock/include/sr5e1\clock.h **** 
 314:C:/StellarStudio-7.1/SDKS/StellarESDK-1.8.0/Modules/Platform/Clock/include/sr5e1\clock.h **** #if !defined(CLOCK_CFG_I2CPRE_VALUE) || defined(__DOXYGEN__)
 315:C:/StellarStudio-7.1/SDKS/StellarESDK-1.8.0/Modules/Platform/Clock/include/sr5e1\clock.h **** #error "CLOCK_CFG_I2CPRE_VALUE not defined in clock_cfg.h"
 316:C:/StellarStudio-7.1/SDKS/StellarESDK-1.8.0/Modules/Platform/Clock/include/sr5e1\clock.h **** #endif
 317:C:/StellarStudio-7.1/SDKS/StellarESDK-1.8.0/Modules/Platform/Clock/include/sr5e1\clock.h **** 
 318:C:/StellarStudio-7.1/SDKS/StellarESDK-1.8.0/Modules/Platform/Clock/include/sr5e1\clock.h **** #if !defined(CLOCK_CFG_SPIPRE_VALUE) || defined(__DOXYGEN__)
 319:C:/StellarStudio-7.1/SDKS/StellarESDK-1.8.0/Modules/Platform/Clock/include/sr5e1\clock.h **** #error "CLOCK_CFG_SPIPRE_VALUE not defined in clock_cfg.h"
 320:C:/StellarStudio-7.1/SDKS/StellarESDK-1.8.0/Modules/Platform/Clock/include/sr5e1\clock.h **** #endif
 321:C:/StellarStudio-7.1/SDKS/StellarESDK-1.8.0/Modules/Platform/Clock/include/sr5e1\clock.h **** 
 322:C:/StellarStudio-7.1/SDKS/StellarESDK-1.8.0/Modules/Platform/Clock/include/sr5e1\clock.h **** #if !defined(CLOCK_CFG_FDCANPRE_VALUE) || defined(__DOXYGEN__)
 323:C:/StellarStudio-7.1/SDKS/StellarESDK-1.8.0/Modules/Platform/Clock/include/sr5e1\clock.h **** #error "CLOCK_CFG_FDCANPRE_VALUE not defined in clock_cfg.h"
 324:C:/StellarStudio-7.1/SDKS/StellarESDK-1.8.0/Modules/Platform/Clock/include/sr5e1\clock.h **** #endif
 325:C:/StellarStudio-7.1/SDKS/StellarESDK-1.8.0/Modules/Platform/Clock/include/sr5e1\clock.h **** 
 326:C:/StellarStudio-7.1/SDKS/StellarESDK-1.8.0/Modules/Platform/Clock/include/sr5e1\clock.h **** #if !defined(CLOCK_CFG_ADCPRE_VALUE) || defined(__DOXYGEN__)
 327:C:/StellarStudio-7.1/SDKS/StellarESDK-1.8.0/Modules/Platform/Clock/include/sr5e1\clock.h **** #error "CLOCK_CFG_ADCPRE_VALUE not defined in clock_cfg.h"
 328:C:/StellarStudio-7.1/SDKS/StellarESDK-1.8.0/Modules/Platform/Clock/include/sr5e1\clock.h **** #endif
 329:C:/StellarStudio-7.1/SDKS/StellarESDK-1.8.0/Modules/Platform/Clock/include/sr5e1\clock.h **** 
 330:C:/StellarStudio-7.1/SDKS/StellarESDK-1.8.0/Modules/Platform/Clock/include/sr5e1\clock.h **** #if !defined(CLOCK_CFG_SDADCPRE_VALUE) || defined(__DOXYGEN__)
 331:C:/StellarStudio-7.1/SDKS/StellarESDK-1.8.0/Modules/Platform/Clock/include/sr5e1\clock.h **** #error "CLOCK_CFG_SDADCPRE_VALUE not defined in clock_cfg.h"
 332:C:/StellarStudio-7.1/SDKS/StellarESDK-1.8.0/Modules/Platform/Clock/include/sr5e1\clock.h **** #endif
 333:C:/StellarStudio-7.1/SDKS/StellarESDK-1.8.0/Modules/Platform/Clock/include/sr5e1\clock.h **** 
 334:C:/StellarStudio-7.1/SDKS/StellarESDK-1.8.0/Modules/Platform/Clock/include/sr5e1\clock.h **** #if !defined(CLOCK_CFG_MCOPRE_VALUE) || defined(__DOXYGEN__)
 335:C:/StellarStudio-7.1/SDKS/StellarESDK-1.8.0/Modules/Platform/Clock/include/sr5e1\clock.h **** #error "CLOCK_CFG_MCOPRE_VALUE not defined in clock_cfg.h"
 336:C:/StellarStudio-7.1/SDKS/StellarESDK-1.8.0/Modules/Platform/Clock/include/sr5e1\clock.h **** #endif
 337:C:/StellarStudio-7.1/SDKS/StellarESDK-1.8.0/Modules/Platform/Clock/include/sr5e1\clock.h **** 
 338:C:/StellarStudio-7.1/SDKS/StellarESDK-1.8.0/Modules/Platform/Clock/include/sr5e1\clock.h **** #if !defined(CLOCK_CFG_LSIPRE_VALUE) || defined(__DOXYGEN__)
 339:C:/StellarStudio-7.1/SDKS/StellarESDK-1.8.0/Modules/Platform/Clock/include/sr5e1\clock.h **** #error "CLOCK_CFG_LSIPRE_VALUE not defined in clock_cfg.h"
 340:C:/StellarStudio-7.1/SDKS/StellarESDK-1.8.0/Modules/Platform/Clock/include/sr5e1\clock.h **** #endif
 341:C:/StellarStudio-7.1/SDKS/StellarESDK-1.8.0/Modules/Platform/Clock/include/sr5e1\clock.h **** 
 342:C:/StellarStudio-7.1/SDKS/StellarESDK-1.8.0/Modules/Platform/Clock/include/sr5e1\clock.h **** /* If SPISEL = I2S_CKIN, the value of I2S clock on the CKIN pin must be
 343:C:/StellarStudio-7.1/SDKS/StellarESDK-1.8.0/Modules/Platform/Clock/include/sr5e1\clock.h ****    specified in the clock configuration file.*/
 344:C:/StellarStudio-7.1/SDKS/StellarESDK-1.8.0/Modules/Platform/Clock/include/sr5e1\clock.h **** #if (CLOCK_CFG_SPISEL == CLOCK_SPISEL_I2S_CKIN)
 345:C:/StellarStudio-7.1/SDKS/StellarESDK-1.8.0/Modules/Platform/Clock/include/sr5e1\clock.h **** #if !defined(CLOCK_CFG_I2S_CKIN) || defined(__DOXYGEN__)
 346:C:/StellarStudio-7.1/SDKS/StellarESDK-1.8.0/Modules/Platform/Clock/include/sr5e1\clock.h **** #error "CLOCK_CFG_I2S_CKIN not defined in clock_cfg.h"
 347:C:/StellarStudio-7.1/SDKS/StellarESDK-1.8.0/Modules/Platform/Clock/include/sr5e1\clock.h **** #endif
 348:C:/StellarStudio-7.1/SDKS/StellarESDK-1.8.0/Modules/Platform/Clock/include/sr5e1\clock.h **** #endif
 349:C:/StellarStudio-7.1/SDKS/StellarESDK-1.8.0/Modules/Platform/Clock/include/sr5e1\clock.h **** 
 350:C:/StellarStudio-7.1/SDKS/StellarESDK-1.8.0/Modules/Platform/Clock/include/sr5e1\clock.h **** /* Clock Limits */
 351:C:/StellarStudio-7.1/SDKS/StellarESDK-1.8.0/Modules/Platform/Clock/include/sr5e1\clock.h **** #define CLOCK_SYSCLK_MAX            306700000UL
 352:C:/StellarStudio-7.1/SDKS/StellarESDK-1.8.0/Modules/Platform/Clock/include/sr5e1\clock.h **** 
 353:C:/StellarStudio-7.1/SDKS/StellarESDK-1.8.0/Modules/Platform/Clock/include/sr5e1\clock.h **** #define CLOCK_XOSCCLK_MAX           40000000UL
 354:C:/StellarStudio-7.1/SDKS/StellarESDK-1.8.0/Modules/Platform/Clock/include/sr5e1\clock.h **** #define CLOCK_XOSCCLK_BYP_MAX       100000000UL
 355:C:/StellarStudio-7.1/SDKS/StellarESDK-1.8.0/Modules/Platform/Clock/include/sr5e1\clock.h **** #define CLOCK_XOSCCLK_MIN           4000000UL
 356:C:/StellarStudio-7.1/SDKS/StellarESDK-1.8.0/Modules/Platform/Clock/include/sr5e1\clock.h **** #define CLOCK_XOSCCLK_BYP_MIN       4000000UL
 357:C:/StellarStudio-7.1/SDKS/StellarESDK-1.8.0/Modules/Platform/Clock/include/sr5e1\clock.h **** 
 358:C:/StellarStudio-7.1/SDKS/StellarESDK-1.8.0/Modules/Platform/Clock/include/sr5e1\clock.h **** #define CLOCK_PLL0IN_MAX            56000000UL
 359:C:/StellarStudio-7.1/SDKS/StellarESDK-1.8.0/Modules/Platform/Clock/include/sr5e1\clock.h **** #define CLOCK_PLL0IN_MIN            8000000UL
 360:C:/StellarStudio-7.1/SDKS/StellarESDK-1.8.0/Modules/Platform/Clock/include/sr5e1\clock.h **** #define CLOCK_PLL0PFD_MAX           20000000UL
 361:C:/StellarStudio-7.1/SDKS/StellarESDK-1.8.0/Modules/Platform/Clock/include/sr5e1\clock.h **** #define CLOCK_PLL0PFD_MIN           8000000UL
 362:C:/StellarStudio-7.1/SDKS/StellarESDK-1.8.0/Modules/Platform/Clock/include/sr5e1\clock.h **** #define CLOCK_PLL0VCO_MAX           1400000000UL
 363:C:/StellarStudio-7.1/SDKS/StellarESDK-1.8.0/Modules/Platform/Clock/include/sr5e1\clock.h **** #define CLOCK_PLL0VCO_MIN           600000000UL
 364:C:/StellarStudio-7.1/SDKS/StellarESDK-1.8.0/Modules/Platform/Clock/include/sr5e1\clock.h **** #define CLOCK_PLL0PHI_MAX           700000000UL
 365:C:/StellarStudio-7.1/SDKS/StellarESDK-1.8.0/Modules/Platform/Clock/include/sr5e1\clock.h **** #define CLOCK_PLL0PHI_MIN           4762000UL
 366:C:/StellarStudio-7.1/SDKS/StellarESDK-1.8.0/Modules/Platform/Clock/include/sr5e1\clock.h **** #define CLOCK_PLL0PHI1_MAX          175000000UL
 367:C:/StellarStudio-7.1/SDKS/StellarESDK-1.8.0/Modules/Platform/Clock/include/sr5e1\clock.h **** #define CLOCK_PLL0PHI1_MIN          20000000UL
 368:C:/StellarStudio-7.1/SDKS/StellarESDK-1.8.0/Modules/Platform/Clock/include/sr5e1\clock.h **** #define CLOCK_PLL1IN_MAX            87500000UL
 369:C:/StellarStudio-7.1/SDKS/StellarESDK-1.8.0/Modules/Platform/Clock/include/sr5e1\clock.h **** #define CLOCK_PLL1IN_MIN            37500000UL
 370:C:/StellarStudio-7.1/SDKS/StellarESDK-1.8.0/Modules/Platform/Clock/include/sr5e1\clock.h **** #define CLOCK_PLL1VCO_MAX           1400000000UL
 371:C:/StellarStudio-7.1/SDKS/StellarESDK-1.8.0/Modules/Platform/Clock/include/sr5e1\clock.h **** #define CLOCK_PLL1VCO_MIN           600000000UL
 372:C:/StellarStudio-7.1/SDKS/StellarESDK-1.8.0/Modules/Platform/Clock/include/sr5e1\clock.h **** #define CLOCK_PLL1PHI_MAX           700000000UL
 373:C:/StellarStudio-7.1/SDKS/StellarESDK-1.8.0/Modules/Platform/Clock/include/sr5e1\clock.h **** #define CLOCK_PLL1PHI_MIN           4762000UL
 374:C:/StellarStudio-7.1/SDKS/StellarESDK-1.8.0/Modules/Platform/Clock/include/sr5e1\clock.h **** 
 375:C:/StellarStudio-7.1/SDKS/StellarESDK-1.8.0/Modules/Platform/Clock/include/sr5e1\clock.h **** #define CLOCK_UARTCLK_MAX           100000000UL
 376:C:/StellarStudio-7.1/SDKS/StellarESDK-1.8.0/Modules/Platform/Clock/include/sr5e1\clock.h **** #define CLOCK_I2CCLK_MAX            100000000UL
 377:C:/StellarStudio-7.1/SDKS/StellarESDK-1.8.0/Modules/Platform/Clock/include/sr5e1\clock.h **** #define CLOCK_SPICLK_MS_SPI1_4_MAX  50000000UL
 378:C:/StellarStudio-7.1/SDKS/StellarESDK-1.8.0/Modules/Platform/Clock/include/sr5e1\clock.h **** #define CLOCK_SPICLK_MS_SPI2_3_MAX  37500000UL
 379:C:/StellarStudio-7.1/SDKS/StellarESDK-1.8.0/Modules/Platform/Clock/include/sr5e1\clock.h **** #define CLOCK_SPICLK_SL_MAX         50000000UL
 380:C:/StellarStudio-7.1/SDKS/StellarESDK-1.8.0/Modules/Platform/Clock/include/sr5e1\clock.h **** #define CLOCK_I2SCLK_MAX            100000000UL
 381:C:/StellarStudio-7.1/SDKS/StellarESDK-1.8.0/Modules/Platform/Clock/include/sr5e1\clock.h **** #define CLOCK_FDCANCLK_MAX          80000000UL
 382:C:/StellarStudio-7.1/SDKS/StellarESDK-1.8.0/Modules/Platform/Clock/include/sr5e1\clock.h **** #define CLOCK_ADCCLK_MAX            40000000UL
 383:C:/StellarStudio-7.1/SDKS/StellarESDK-1.8.0/Modules/Platform/Clock/include/sr5e1\clock.h **** #define CLOCK_SDADCCLK_MAX          16000000UL
 384:C:/StellarStudio-7.1/SDKS/StellarESDK-1.8.0/Modules/Platform/Clock/include/sr5e1\clock.h **** 
 385:C:/StellarStudio-7.1/SDKS/StellarESDK-1.8.0/Modules/Platform/Clock/include/sr5e1\clock.h **** /*Checks on XOSC.*/
 386:C:/StellarStudio-7.1/SDKS/StellarESDK-1.8.0/Modules/Platform/Clock/include/sr5e1\clock.h **** #if CLOCK_CFG_XOSC_ENABLED
 387:C:/StellarStudio-7.1/SDKS/StellarESDK-1.8.0/Modules/Platform/Clock/include/sr5e1\clock.h **** 
 388:C:/StellarStudio-7.1/SDKS/StellarESDK-1.8.0/Modules/Platform/Clock/include/sr5e1\clock.h **** #if CLOCK_CFG_XOSCCLK == 0U
 389:C:/StellarStudio-7.1/SDKS/StellarESDK-1.8.0/Modules/Platform/Clock/include/sr5e1\clock.h **** #error "CLOCK_CFG_XOSCCLK is zero in clock_cfg.h"
 390:C:/StellarStudio-7.1/SDKS/StellarESDK-1.8.0/Modules/Platform/Clock/include/sr5e1\clock.h **** #else /* CLOCK_CFG_XOSCCLK != 0 */
 391:C:/StellarStudio-7.1/SDKS/StellarESDK-1.8.0/Modules/Platform/Clock/include/sr5e1\clock.h **** #if CLOCK_CFG_XOSC_BYPASS
 392:C:/StellarStudio-7.1/SDKS/StellarESDK-1.8.0/Modules/Platform/Clock/include/sr5e1\clock.h **** 
 393:C:/StellarStudio-7.1/SDKS/StellarESDK-1.8.0/Modules/Platform/Clock/include/sr5e1\clock.h **** #if (CLOCK_CFG_XOSCCLK < CLOCK_XOSCCLK_BYP_MIN) ||                          \
 394:C:/StellarStudio-7.1/SDKS/StellarESDK-1.8.0/Modules/Platform/Clock/include/sr5e1\clock.h ****     (CLOCK_CFG_XOSCCLK > CLOCK_XOSCCLK_BYP_MAX)
 395:C:/StellarStudio-7.1/SDKS/StellarESDK-1.8.0/Modules/Platform/Clock/include/sr5e1\clock.h **** #error "out of limits  CLOCK_XOSCCLK value"
 396:C:/StellarStudio-7.1/SDKS/StellarESDK-1.8.0/Modules/Platform/Clock/include/sr5e1\clock.h **** #endif
 397:C:/StellarStudio-7.1/SDKS/StellarESDK-1.8.0/Modules/Platform/Clock/include/sr5e1\clock.h **** 
 398:C:/StellarStudio-7.1/SDKS/StellarESDK-1.8.0/Modules/Platform/Clock/include/sr5e1\clock.h **** #else /* !CLOCK_CFG_XOSC_BYPASS */
 399:C:/StellarStudio-7.1/SDKS/StellarESDK-1.8.0/Modules/Platform/Clock/include/sr5e1\clock.h **** 
 400:C:/StellarStudio-7.1/SDKS/StellarESDK-1.8.0/Modules/Platform/Clock/include/sr5e1\clock.h **** #if (CLOCK_CFG_XOSCCLK < CLOCK_XOSCCLK_MIN) ||                              \
 401:C:/StellarStudio-7.1/SDKS/StellarESDK-1.8.0/Modules/Platform/Clock/include/sr5e1\clock.h ****     (CLOCK_CFG_XOSCCLK > CLOCK_XOSCCLK_MAX)
 402:C:/StellarStudio-7.1/SDKS/StellarESDK-1.8.0/Modules/Platform/Clock/include/sr5e1\clock.h **** #error "out of limits  CLOCK_XOSCCLK value"
 403:C:/StellarStudio-7.1/SDKS/StellarESDK-1.8.0/Modules/Platform/Clock/include/sr5e1\clock.h **** #endif
 404:C:/StellarStudio-7.1/SDKS/StellarESDK-1.8.0/Modules/Platform/Clock/include/sr5e1\clock.h **** 
 405:C:/StellarStudio-7.1/SDKS/StellarESDK-1.8.0/Modules/Platform/Clock/include/sr5e1\clock.h **** #endif /* !CLOCK_CFG_XOSC_BYPASS */
 406:C:/StellarStudio-7.1/SDKS/StellarESDK-1.8.0/Modules/Platform/Clock/include/sr5e1\clock.h **** #endif /* CLOCK_CFG_XOSCCLK != 0 */
 407:C:/StellarStudio-7.1/SDKS/StellarESDK-1.8.0/Modules/Platform/Clock/include/sr5e1\clock.h **** 
 408:C:/StellarStudio-7.1/SDKS/StellarESDK-1.8.0/Modules/Platform/Clock/include/sr5e1\clock.h **** #else /* !CLOCK_CFG_XOSC_ENABLED */
 409:C:/StellarStudio-7.1/SDKS/StellarESDK-1.8.0/Modules/Platform/Clock/include/sr5e1\clock.h **** 
 410:C:/StellarStudio-7.1/SDKS/StellarESDK-1.8.0/Modules/Platform/Clock/include/sr5e1\clock.h **** #if CLOCK_CFG_SW == CLOCK_SW_XOSC
 411:C:/StellarStudio-7.1/SDKS/StellarESDK-1.8.0/Modules/Platform/Clock/include/sr5e1\clock.h **** #error "CLOCK_SW requires XOSC"
 412:C:/StellarStudio-7.1/SDKS/StellarESDK-1.8.0/Modules/Platform/Clock/include/sr5e1\clock.h **** #endif
 413:C:/StellarStudio-7.1/SDKS/StellarESDK-1.8.0/Modules/Platform/Clock/include/sr5e1\clock.h **** 
 414:C:/StellarStudio-7.1/SDKS/StellarESDK-1.8.0/Modules/Platform/Clock/include/sr5e1\clock.h **** #if (CLOCK_CFG_SW == CLOCK_SW_PLL0PHI) &&                                   \
 415:C:/StellarStudio-7.1/SDKS/StellarESDK-1.8.0/Modules/Platform/Clock/include/sr5e1\clock.h ****     (CLOCK_CFG_PLL0SRC == CLOCK_PLL0SRC_XOSC)
 416:C:/StellarStudio-7.1/SDKS/StellarESDK-1.8.0/Modules/Platform/Clock/include/sr5e1\clock.h **** #error "CLOCK_CFG_SW or CLOCK_CFG_PLL0SRC require XOSC"
 417:C:/StellarStudio-7.1/SDKS/StellarESDK-1.8.0/Modules/Platform/Clock/include/sr5e1\clock.h **** #endif
 418:C:/StellarStudio-7.1/SDKS/StellarESDK-1.8.0/Modules/Platform/Clock/include/sr5e1\clock.h **** 
 419:C:/StellarStudio-7.1/SDKS/StellarESDK-1.8.0/Modules/Platform/Clock/include/sr5e1\clock.h **** #if (CLOCK_CFG_SW == CLOCK_SW_PLL1PHI) &&                                   \
 420:C:/StellarStudio-7.1/SDKS/StellarESDK-1.8.0/Modules/Platform/Clock/include/sr5e1\clock.h ****     (CLOCK_CFG_PLL1SRC == CLOCK_PLL1SRC_XOSC)
 421:C:/StellarStudio-7.1/SDKS/StellarESDK-1.8.0/Modules/Platform/Clock/include/sr5e1\clock.h **** #error "CLOCK_CFG_SW or CLOCK_CFG_PLL1SRC require XOSC"
 422:C:/StellarStudio-7.1/SDKS/StellarESDK-1.8.0/Modules/Platform/Clock/include/sr5e1\clock.h **** #endif
 423:C:/StellarStudio-7.1/SDKS/StellarESDK-1.8.0/Modules/Platform/Clock/include/sr5e1\clock.h **** 
 424:C:/StellarStudio-7.1/SDKS/StellarESDK-1.8.0/Modules/Platform/Clock/include/sr5e1\clock.h **** #if (CLOCK_CFG_SW == CLOCK_SW_PLL1PHI) &&                                   \
 425:C:/StellarStudio-7.1/SDKS/StellarESDK-1.8.0/Modules/Platform/Clock/include/sr5e1\clock.h ****     (CLOCK_CFG_PLL1SRC == CLOCK_PLL1SRC_PLL0PHI1) &&                        \
 426:C:/StellarStudio-7.1/SDKS/StellarESDK-1.8.0/Modules/Platform/Clock/include/sr5e1\clock.h ****     (CLOCK_CFG_PLL0SRC == CLOCK_PLL0SRC_XOSC)
 427:C:/StellarStudio-7.1/SDKS/StellarESDK-1.8.0/Modules/Platform/Clock/include/sr5e1\clock.h **** #error "CLOCK_CFG_SW or CLOCK_CFG_PLL1SRC require XOSC"
 428:C:/StellarStudio-7.1/SDKS/StellarESDK-1.8.0/Modules/Platform/Clock/include/sr5e1\clock.h **** #endif
 429:C:/StellarStudio-7.1/SDKS/StellarESDK-1.8.0/Modules/Platform/Clock/include/sr5e1\clock.h **** 
 430:C:/StellarStudio-7.1/SDKS/StellarESDK-1.8.0/Modules/Platform/Clock/include/sr5e1\clock.h **** #if (CLOCK_CFG_MCOSEL == CLOCK_MCOSEL_XOSC) ||                              \
 431:C:/StellarStudio-7.1/SDKS/StellarESDK-1.8.0/Modules/Platform/Clock/include/sr5e1\clock.h ****     ((CLOCK_CFG_MCOSEL == CLOCK_MCOSEL_PLL0PHI) &&                          \
 432:C:/StellarStudio-7.1/SDKS/StellarESDK-1.8.0/Modules/Platform/Clock/include/sr5e1\clock.h ****      (CLOCK_CFG_PLL0SRC == CLOCK_PLL0SRC_XOSC)) ||                          \
 433:C:/StellarStudio-7.1/SDKS/StellarESDK-1.8.0/Modules/Platform/Clock/include/sr5e1\clock.h ****     ((CLOCK_CFG_MCOSEL == CLOCK_MCOSEL_PLL1PHI) &&                          \
 434:C:/StellarStudio-7.1/SDKS/StellarESDK-1.8.0/Modules/Platform/Clock/include/sr5e1\clock.h ****      (CLOCK_CFG_PLL1SRC == CLOCK_PLL1SRC_XOSC)) 
 435:C:/StellarStudio-7.1/SDKS/StellarESDK-1.8.0/Modules/Platform/Clock/include/sr5e1\clock.h **** #error "CLOCK_CFG_MCOSEL requires XOSC"
 436:C:/StellarStudio-7.1/SDKS/StellarESDK-1.8.0/Modules/Platform/Clock/include/sr5e1\clock.h **** #endif
 437:C:/StellarStudio-7.1/SDKS/StellarESDK-1.8.0/Modules/Platform/Clock/include/sr5e1\clock.h **** 
 438:C:/StellarStudio-7.1/SDKS/StellarESDK-1.8.0/Modules/Platform/Clock/include/sr5e1\clock.h **** #if (CLOCK_CFG_UARTSEL == CLOCK_UARTSEL_XOSC) ||                            \
 439:C:/StellarStudio-7.1/SDKS/StellarESDK-1.8.0/Modules/Platform/Clock/include/sr5e1\clock.h ****     ((CLOCK_CFG_UARTSEL == CLOCK_UARTSEL_PLL0PHI) &&                        \
 440:C:/StellarStudio-7.1/SDKS/StellarESDK-1.8.0/Modules/Platform/Clock/include/sr5e1\clock.h ****      (CLOCK_CFG_PLL0SRC == CLOCK_PLL0SRC_XOSC))
 441:C:/StellarStudio-7.1/SDKS/StellarESDK-1.8.0/Modules/Platform/Clock/include/sr5e1\clock.h **** #error "CLOCK_CFG_UARTSEL requires XOSC"
 442:C:/StellarStudio-7.1/SDKS/StellarESDK-1.8.0/Modules/Platform/Clock/include/sr5e1\clock.h **** #endif
 443:C:/StellarStudio-7.1/SDKS/StellarESDK-1.8.0/Modules/Platform/Clock/include/sr5e1\clock.h **** 
 444:C:/StellarStudio-7.1/SDKS/StellarESDK-1.8.0/Modules/Platform/Clock/include/sr5e1\clock.h **** #if (CLOCK_CFG_I2CSEL == CLOCK_I2CSEL_XOSC) ||                              \
 445:C:/StellarStudio-7.1/SDKS/StellarESDK-1.8.0/Modules/Platform/Clock/include/sr5e1\clock.h ****     ((CLOCK_CFG_I2CSEL == CLOCK_I2CSEL_PLL0PHI) &&                          \
 446:C:/StellarStudio-7.1/SDKS/StellarESDK-1.8.0/Modules/Platform/Clock/include/sr5e1\clock.h ****      (CLOCK_CFG_PLL0SRC == CLOCK_PLL0SRC_XOSC))
 447:C:/StellarStudio-7.1/SDKS/StellarESDK-1.8.0/Modules/Platform/Clock/include/sr5e1\clock.h **** #error "CLOCK_CFG_I2CSEL requires XOSC"
 448:C:/StellarStudio-7.1/SDKS/StellarESDK-1.8.0/Modules/Platform/Clock/include/sr5e1\clock.h **** #endif
 449:C:/StellarStudio-7.1/SDKS/StellarESDK-1.8.0/Modules/Platform/Clock/include/sr5e1\clock.h **** 
 450:C:/StellarStudio-7.1/SDKS/StellarESDK-1.8.0/Modules/Platform/Clock/include/sr5e1\clock.h **** #if (CLOCK_CFG_SPISEL == CLOCK_SPISEL_XOSC) ||                              \
 451:C:/StellarStudio-7.1/SDKS/StellarESDK-1.8.0/Modules/Platform/Clock/include/sr5e1\clock.h ****     ((CLOCK_CFG_SPISEL == CLOCK_SPISEL_PLL0PHI) &&                          \
 452:C:/StellarStudio-7.1/SDKS/StellarESDK-1.8.0/Modules/Platform/Clock/include/sr5e1\clock.h ****      (CLOCK_CFG_PLL0SRC == CLOCK_PLL0SRC_XOSC))
 453:C:/StellarStudio-7.1/SDKS/StellarESDK-1.8.0/Modules/Platform/Clock/include/sr5e1\clock.h **** #error "CLOCK_CFG_SPISEL requires XOSC"
 454:C:/StellarStudio-7.1/SDKS/StellarESDK-1.8.0/Modules/Platform/Clock/include/sr5e1\clock.h **** #endif
 455:C:/StellarStudio-7.1/SDKS/StellarESDK-1.8.0/Modules/Platform/Clock/include/sr5e1\clock.h **** 
 456:C:/StellarStudio-7.1/SDKS/StellarESDK-1.8.0/Modules/Platform/Clock/include/sr5e1\clock.h **** #if (CLOCK_CFG_FDCANSEL == CLOCK_FDCANSEL_XOSC) ||                          \
 457:C:/StellarStudio-7.1/SDKS/StellarESDK-1.8.0/Modules/Platform/Clock/include/sr5e1\clock.h ****     ((CLOCK_CFG_FDCANSEL == CLOCK_FDCANSEL_PLL0PHI) &&                      \
 458:C:/StellarStudio-7.1/SDKS/StellarESDK-1.8.0/Modules/Platform/Clock/include/sr5e1\clock.h ****      (CLOCK_CFG_PLL0SRC == CLOCK_PLL0SRC_XOSC))
 459:C:/StellarStudio-7.1/SDKS/StellarESDK-1.8.0/Modules/Platform/Clock/include/sr5e1\clock.h **** #error "CLOCK_CFG_FDCANSEL requires XOSC"
 460:C:/StellarStudio-7.1/SDKS/StellarESDK-1.8.0/Modules/Platform/Clock/include/sr5e1\clock.h **** #endif
 461:C:/StellarStudio-7.1/SDKS/StellarESDK-1.8.0/Modules/Platform/Clock/include/sr5e1\clock.h **** 
 462:C:/StellarStudio-7.1/SDKS/StellarESDK-1.8.0/Modules/Platform/Clock/include/sr5e1\clock.h **** #if (CLOCK_CFG_ADCSEL == CLOCK_ADCSEL_XOSC) ||                              \
 463:C:/StellarStudio-7.1/SDKS/StellarESDK-1.8.0/Modules/Platform/Clock/include/sr5e1\clock.h ****     ((CLOCK_CFG_ADCSEL == CLOCK_ADCSEL_PLL0PHI) &&                          \
 464:C:/StellarStudio-7.1/SDKS/StellarESDK-1.8.0/Modules/Platform/Clock/include/sr5e1\clock.h ****      (CLOCK_CFG_PLL0SRC == CLOCK_PLL0SRC_XOSC)) ||                          \
 465:C:/StellarStudio-7.1/SDKS/StellarESDK-1.8.0/Modules/Platform/Clock/include/sr5e1\clock.h ****     ((CLOCK_CFG_ADCSEL == CLOCK_ADCSEL_PLL1PHI) &&                          \
 466:C:/StellarStudio-7.1/SDKS/StellarESDK-1.8.0/Modules/Platform/Clock/include/sr5e1\clock.h ****      (CLOCK_CFG_PLL1SRC == CLOCK_PLL1SRC_XOSC)) 
 467:C:/StellarStudio-7.1/SDKS/StellarESDK-1.8.0/Modules/Platform/Clock/include/sr5e1\clock.h **** #error "CLOCK_CFG_ADCSEL requires XOSC"
 468:C:/StellarStudio-7.1/SDKS/StellarESDK-1.8.0/Modules/Platform/Clock/include/sr5e1\clock.h **** #endif
 469:C:/StellarStudio-7.1/SDKS/StellarESDK-1.8.0/Modules/Platform/Clock/include/sr5e1\clock.h **** 
 470:C:/StellarStudio-7.1/SDKS/StellarESDK-1.8.0/Modules/Platform/Clock/include/sr5e1\clock.h **** #if (CLOCK_CFG_SDADCSEL == CLOCK_SDADCSEL_XOSC) ||                          \
 471:C:/StellarStudio-7.1/SDKS/StellarESDK-1.8.0/Modules/Platform/Clock/include/sr5e1\clock.h ****     ((CLOCK_CFG_SDADCSEL == CLOCK_SDADCSEL_PLL0PHI) &&                      \
 472:C:/StellarStudio-7.1/SDKS/StellarESDK-1.8.0/Modules/Platform/Clock/include/sr5e1\clock.h ****      (CLOCK_CFG_PLL0SRC == CLOCK_PLL0SRC_XOSC)) ||                          \
 473:C:/StellarStudio-7.1/SDKS/StellarESDK-1.8.0/Modules/Platform/Clock/include/sr5e1\clock.h ****     ((CLOCK_CFG_SDADCSEL == CLOCK_SDADCSEL_PLL1PHI) &&                      \
 474:C:/StellarStudio-7.1/SDKS/StellarESDK-1.8.0/Modules/Platform/Clock/include/sr5e1\clock.h ****      (CLOCK_CFG_PLL1SRC == CLOCK_PLL1SRC_XOSC)) 
 475:C:/StellarStudio-7.1/SDKS/StellarESDK-1.8.0/Modules/Platform/Clock/include/sr5e1\clock.h **** #error "CLOCK_CFG_SDADCSEL requires XOSC"
 476:C:/StellarStudio-7.1/SDKS/StellarESDK-1.8.0/Modules/Platform/Clock/include/sr5e1\clock.h **** #endif
 477:C:/StellarStudio-7.1/SDKS/StellarESDK-1.8.0/Modules/Platform/Clock/include/sr5e1\clock.h **** 
 478:C:/StellarStudio-7.1/SDKS/StellarESDK-1.8.0/Modules/Platform/Clock/include/sr5e1\clock.h **** #if CLOCK_CFG_RTCSEL == CLOCK_RTCSEL_XOSC
 479:C:/StellarStudio-7.1/SDKS/StellarESDK-1.8.0/Modules/Platform/Clock/include/sr5e1\clock.h **** #error "CLOCK_CFG_RTCSEL requires XOSC"
 480:C:/StellarStudio-7.1/SDKS/StellarESDK-1.8.0/Modules/Platform/Clock/include/sr5e1\clock.h **** #endif
 481:C:/StellarStudio-7.1/SDKS/StellarESDK-1.8.0/Modules/Platform/Clock/include/sr5e1\clock.h **** 
 482:C:/StellarStudio-7.1/SDKS/StellarESDK-1.8.0/Modules/Platform/Clock/include/sr5e1\clock.h **** #endif /* CLOCK_CFG_XOSC_ENABLED */
 483:C:/StellarStudio-7.1/SDKS/StellarESDK-1.8.0/Modules/Platform/Clock/include/sr5e1\clock.h **** 
 484:C:/StellarStudio-7.1/SDKS/StellarESDK-1.8.0/Modules/Platform/Clock/include/sr5e1\clock.h **** /*
 485:C:/StellarStudio-7.1/SDKS/StellarESDK-1.8.0/Modules/Platform/Clock/include/sr5e1\clock.h ****  * LSI related checks.
 486:C:/StellarStudio-7.1/SDKS/StellarESDK-1.8.0/Modules/Platform/Clock/include/sr5e1\clock.h ****  */
 487:C:/StellarStudio-7.1/SDKS/StellarESDK-1.8.0/Modules/Platform/Clock/include/sr5e1\clock.h **** #if !CLOCK_CFG_LSI_ENABLED
 488:C:/StellarStudio-7.1/SDKS/StellarESDK-1.8.0/Modules/Platform/Clock/include/sr5e1\clock.h **** 
 489:C:/StellarStudio-7.1/SDKS/StellarESDK-1.8.0/Modules/Platform/Clock/include/sr5e1\clock.h **** #if CLOCK_CFG_UARTSEL == CLOCK_UARTSEL_LSI
 490:C:/StellarStudio-7.1/SDKS/StellarESDK-1.8.0/Modules/Platform/Clock/include/sr5e1\clock.h **** #error "CLOCK_CFG_UARTSEL requires LSI"
 491:C:/StellarStudio-7.1/SDKS/StellarESDK-1.8.0/Modules/Platform/Clock/include/sr5e1\clock.h **** #endif
 492:C:/StellarStudio-7.1/SDKS/StellarESDK-1.8.0/Modules/Platform/Clock/include/sr5e1\clock.h **** 
 493:C:/StellarStudio-7.1/SDKS/StellarESDK-1.8.0/Modules/Platform/Clock/include/sr5e1\clock.h **** #if CLOCK_CFG_MCOSEL == CLOCK_MCOSEL_LSI
 494:C:/StellarStudio-7.1/SDKS/StellarESDK-1.8.0/Modules/Platform/Clock/include/sr5e1\clock.h **** #error "CLOCK_CFG_MCOSEL requires LSI"
 495:C:/StellarStudio-7.1/SDKS/StellarESDK-1.8.0/Modules/Platform/Clock/include/sr5e1\clock.h **** #endif
 496:C:/StellarStudio-7.1/SDKS/StellarESDK-1.8.0/Modules/Platform/Clock/include/sr5e1\clock.h **** 
 497:C:/StellarStudio-7.1/SDKS/StellarESDK-1.8.0/Modules/Platform/Clock/include/sr5e1\clock.h **** #if CLOCK_CFG_RTCSEL == CLOCK_RTCSEL_LSI
 498:C:/StellarStudio-7.1/SDKS/StellarESDK-1.8.0/Modules/Platform/Clock/include/sr5e1\clock.h **** #error "CLOCK_CFG_RTCSEL requires LSI"
 499:C:/StellarStudio-7.1/SDKS/StellarESDK-1.8.0/Modules/Platform/Clock/include/sr5e1\clock.h **** #endif
 500:C:/StellarStudio-7.1/SDKS/StellarESDK-1.8.0/Modules/Platform/Clock/include/sr5e1\clock.h **** 
 501:C:/StellarStudio-7.1/SDKS/StellarESDK-1.8.0/Modules/Platform/Clock/include/sr5e1\clock.h **** #endif /* !CLOCK_CFG_LSI_ENABLED */
 502:C:/StellarStudio-7.1/SDKS/StellarESDK-1.8.0/Modules/Platform/Clock/include/sr5e1\clock.h **** 
 503:C:/StellarStudio-7.1/SDKS/StellarESDK-1.8.0/Modules/Platform/Clock/include/sr5e1\clock.h **** /* PLL0 enable check.*/
 504:C:/StellarStudio-7.1/SDKS/StellarESDK-1.8.0/Modules/Platform/Clock/include/sr5e1\clock.h **** #if (CLOCK_CFG_SW == CLOCK_SW_PLL0PHI) ||                                   \
 505:C:/StellarStudio-7.1/SDKS/StellarESDK-1.8.0/Modules/Platform/Clock/include/sr5e1\clock.h ****     (CLOCK_CFG_PLL1SRC == CLOCK_PLL1SRC_PLL0PHI1) ||                        \
 506:C:/StellarStudio-7.1/SDKS/StellarESDK-1.8.0/Modules/Platform/Clock/include/sr5e1\clock.h ****     (CLOCK_CFG_MCOSEL == CLOCK_MCOSEL_PLL0PHI) ||                           \
 507:C:/StellarStudio-7.1/SDKS/StellarESDK-1.8.0/Modules/Platform/Clock/include/sr5e1\clock.h ****     (CLOCK_CFG_UARTSEL == CLOCK_UARTSEL_PLL0PHI) ||                         \
 508:C:/StellarStudio-7.1/SDKS/StellarESDK-1.8.0/Modules/Platform/Clock/include/sr5e1\clock.h ****     (CLOCK_CFG_I2CSEL == CLOCK_I2CSEL_PLL0PHI) ||                           \
 509:C:/StellarStudio-7.1/SDKS/StellarESDK-1.8.0/Modules/Platform/Clock/include/sr5e1\clock.h ****     (CLOCK_CFG_SPISEL == CLOCK_SPISEL_PLL0PHI) ||                           \
 510:C:/StellarStudio-7.1/SDKS/StellarESDK-1.8.0/Modules/Platform/Clock/include/sr5e1\clock.h ****     (CLOCK_CFG_FDCANSEL == CLOCK_FDCANSEL_PLL0PHI) ||                       \
 511:C:/StellarStudio-7.1/SDKS/StellarESDK-1.8.0/Modules/Platform/Clock/include/sr5e1\clock.h ****     (CLOCK_CFG_ADCSEL == CLOCK_ADCSEL_PLL0PHI) ||                           \
 512:C:/StellarStudio-7.1/SDKS/StellarESDK-1.8.0/Modules/Platform/Clock/include/sr5e1\clock.h ****     (CLOCK_CFG_SDADCSEL == CLOCK_SDADCSEL_PLL0PHI)
 513:C:/StellarStudio-7.1/SDKS/StellarESDK-1.8.0/Modules/Platform/Clock/include/sr5e1\clock.h **** #define CLOCK_ACTIVATE_PLL0         TRUE
 514:C:/StellarStudio-7.1/SDKS/StellarESDK-1.8.0/Modules/Platform/Clock/include/sr5e1\clock.h **** #else
 515:C:/StellarStudio-7.1/SDKS/StellarESDK-1.8.0/Modules/Platform/Clock/include/sr5e1\clock.h **** #define CLOCK_ACTIVATE_PLL0         FALSE
 516:C:/StellarStudio-7.1/SDKS/StellarESDK-1.8.0/Modules/Platform/Clock/include/sr5e1\clock.h **** #endif
 517:C:/StellarStudio-7.1/SDKS/StellarESDK-1.8.0/Modules/Platform/Clock/include/sr5e1\clock.h **** 
 518:C:/StellarStudio-7.1/SDKS/StellarESDK-1.8.0/Modules/Platform/Clock/include/sr5e1\clock.h **** /* PLL0 fields.*/
 519:C:/StellarStudio-7.1/SDKS/StellarESDK-1.8.0/Modules/Platform/Clock/include/sr5e1\clock.h **** #if !((CLOCK_CFG_PLL0MFD_VALUE >= 8U) && (CLOCK_CFG_PLL0MFD_VALUE <= 127U))
 520:C:/StellarStudio-7.1/SDKS/StellarESDK-1.8.0/Modules/Platform/Clock/include/sr5e1\clock.h **** #error "invalid CLOCK_CFG_PLL0MFD_VALUE value in clock_cfg.h"
 521:C:/StellarStudio-7.1/SDKS/StellarESDK-1.8.0/Modules/Platform/Clock/include/sr5e1\clock.h **** #endif
 522:C:/StellarStudio-7.1/SDKS/StellarESDK-1.8.0/Modules/Platform/Clock/include/sr5e1\clock.h **** 
 523:C:/StellarStudio-7.1/SDKS/StellarESDK-1.8.0/Modules/Platform/Clock/include/sr5e1\clock.h **** #if !((CLOCK_CFG_PLL0PREDIV_VALUE >= 0U) && (CLOCK_CFG_PLL0PREDIV_VALUE <= 7U))
 524:C:/StellarStudio-7.1/SDKS/StellarESDK-1.8.0/Modules/Platform/Clock/include/sr5e1\clock.h **** #error "invalid CLOCK_CFG_PLL0PREDIV_VALUE value in clock_cfg.h"
 525:C:/StellarStudio-7.1/SDKS/StellarESDK-1.8.0/Modules/Platform/Clock/include/sr5e1\clock.h **** #endif
 526:C:/StellarStudio-7.1/SDKS/StellarESDK-1.8.0/Modules/Platform/Clock/include/sr5e1\clock.h **** 
 527:C:/StellarStudio-7.1/SDKS/StellarESDK-1.8.0/Modules/Platform/Clock/include/sr5e1\clock.h **** #if !((CLOCK_CFG_PLL0RFDPHI_VALUE >= 1U) && (CLOCK_CFG_PLL0RFDPHI_VALUE <= 63U))
 528:C:/StellarStudio-7.1/SDKS/StellarESDK-1.8.0/Modules/Platform/Clock/include/sr5e1\clock.h **** #error "invalid CLOCK_CFG_PLL0RFDPHI_VALUE value in clock_cfg.h"
 529:C:/StellarStudio-7.1/SDKS/StellarESDK-1.8.0/Modules/Platform/Clock/include/sr5e1\clock.h **** #endif
 530:C:/StellarStudio-7.1/SDKS/StellarESDK-1.8.0/Modules/Platform/Clock/include/sr5e1\clock.h **** 
 531:C:/StellarStudio-7.1/SDKS/StellarESDK-1.8.0/Modules/Platform/Clock/include/sr5e1\clock.h **** #if !((CLOCK_CFG_PLL0RFDPHI1_VALUE >= 4U) && (CLOCK_CFG_PLL0RFDPHI1_VALUE <= 15U))
 532:C:/StellarStudio-7.1/SDKS/StellarESDK-1.8.0/Modules/Platform/Clock/include/sr5e1\clock.h **** #error "invalid CLOCK_CFG_PLL0RFDPHI1_VALUE value in clock_cfg.h"
 533:C:/StellarStudio-7.1/SDKS/StellarESDK-1.8.0/Modules/Platform/Clock/include/sr5e1\clock.h **** #endif
 534:C:/StellarStudio-7.1/SDKS/StellarESDK-1.8.0/Modules/Platform/Clock/include/sr5e1\clock.h **** 
 535:C:/StellarStudio-7.1/SDKS/StellarESDK-1.8.0/Modules/Platform/Clock/include/sr5e1\clock.h **** /* PLL0 input clock.*/
 536:C:/StellarStudio-7.1/SDKS/StellarESDK-1.8.0/Modules/Platform/Clock/include/sr5e1\clock.h **** #if (CLOCK_CFG_PLL0SRC == CLOCK_PLL0SRC_XOSC) || defined(__DOXYGEN__)
 537:C:/StellarStudio-7.1/SDKS/StellarESDK-1.8.0/Modules/Platform/Clock/include/sr5e1\clock.h **** #define CLOCK_PLL0IN                CLOCK_CFG_XOSCCLK
 538:C:/StellarStudio-7.1/SDKS/StellarESDK-1.8.0/Modules/Platform/Clock/include/sr5e1\clock.h **** 
 539:C:/StellarStudio-7.1/SDKS/StellarESDK-1.8.0/Modules/Platform/Clock/include/sr5e1\clock.h **** #elif CLOCK_CFG_PLL0SRC == CLOCK_PLL0SRC_IRCOSC
 540:C:/StellarStudio-7.1/SDKS/StellarESDK-1.8.0/Modules/Platform/Clock/include/sr5e1\clock.h **** #define CLOCK_PLL0IN                CLOCK_IRCOSCCLK
 541:C:/StellarStudio-7.1/SDKS/StellarESDK-1.8.0/Modules/Platform/Clock/include/sr5e1\clock.h **** 
 542:C:/StellarStudio-7.1/SDKS/StellarESDK-1.8.0/Modules/Platform/Clock/include/sr5e1\clock.h **** #elif CLOCK_CFG_PLL0SRC == CLOCK_PLL0SRC_NOCLOCK
 543:C:/StellarStudio-7.1/SDKS/StellarESDK-1.8.0/Modules/Platform/Clock/include/sr5e1\clock.h **** #define CLOCK_PLL0IN                0U
 544:C:/StellarStudio-7.1/SDKS/StellarESDK-1.8.0/Modules/Platform/Clock/include/sr5e1\clock.h **** 
 545:C:/StellarStudio-7.1/SDKS/StellarESDK-1.8.0/Modules/Platform/Clock/include/sr5e1\clock.h **** #else
 546:C:/StellarStudio-7.1/SDKS/StellarESDK-1.8.0/Modules/Platform/Clock/include/sr5e1\clock.h **** #error "invalid CLOCK_CFG_PLL0SRC value in clock_cfg.h"
 547:C:/StellarStudio-7.1/SDKS/StellarESDK-1.8.0/Modules/Platform/Clock/include/sr5e1\clock.h **** #endif
 548:C:/StellarStudio-7.1/SDKS/StellarESDK-1.8.0/Modules/Platform/Clock/include/sr5e1\clock.h **** 
 549:C:/StellarStudio-7.1/SDKS/StellarESDK-1.8.0/Modules/Platform/Clock/include/sr5e1\clock.h **** #if (CLOCK_PLL0IN == 0U) && (CLOCK_ACTIVATE_PLL0 == TRUE)
 550:C:/StellarStudio-7.1/SDKS/StellarESDK-1.8.0/Modules/Platform/Clock/include/sr5e1\clock.h **** #error "no PLL input clock"
 551:C:/StellarStudio-7.1/SDKS/StellarESDK-1.8.0/Modules/Platform/Clock/include/sr5e1\clock.h **** #endif
 552:C:/StellarStudio-7.1/SDKS/StellarESDK-1.8.0/Modules/Platform/Clock/include/sr5e1\clock.h **** 
 553:C:/StellarStudio-7.1/SDKS/StellarESDK-1.8.0/Modules/Platform/Clock/include/sr5e1\clock.h **** #if ((CLOCK_PLL0IN != 0U) && (CLOCK_ACTIVATE_PLL0 == TRUE)) &&              \
 554:C:/StellarStudio-7.1/SDKS/StellarESDK-1.8.0/Modules/Platform/Clock/include/sr5e1\clock.h ****     ((CLOCK_PLL0IN < CLOCK_PLL0IN_MIN) || (CLOCK_PLL0IN > CLOCK_PLL0IN_MAX))
 555:C:/StellarStudio-7.1/SDKS/StellarESDK-1.8.0/Modules/Platform/Clock/include/sr5e1\clock.h **** #error "out of limits CLOCK_PLL0IN value"
 556:C:/StellarStudio-7.1/SDKS/StellarESDK-1.8.0/Modules/Platform/Clock/include/sr5e1\clock.h **** #endif
 557:C:/StellarStudio-7.1/SDKS/StellarESDK-1.8.0/Modules/Platform/Clock/include/sr5e1\clock.h **** 
 558:C:/StellarStudio-7.1/SDKS/StellarESDK-1.8.0/Modules/Platform/Clock/include/sr5e1\clock.h **** /* PLL0 PFD clock.*/
 559:C:/StellarStudio-7.1/SDKS/StellarESDK-1.8.0/Modules/Platform/Clock/include/sr5e1\clock.h **** #if (CLOCK_CFG_PLL0PREDIV_VALUE == 0U)
 560:C:/StellarStudio-7.1/SDKS/StellarESDK-1.8.0/Modules/Platform/Clock/include/sr5e1\clock.h **** #define CLOCK_PLL0PFD               0U
 561:C:/StellarStudio-7.1/SDKS/StellarESDK-1.8.0/Modules/Platform/Clock/include/sr5e1\clock.h **** #else
 562:C:/StellarStudio-7.1/SDKS/StellarESDK-1.8.0/Modules/Platform/Clock/include/sr5e1\clock.h **** #define CLOCK_PLL0PFD                                                       \
 563:C:/StellarStudio-7.1/SDKS/StellarESDK-1.8.0/Modules/Platform/Clock/include/sr5e1\clock.h ****   (CLOCK_PLL0IN / CLOCK_CFG_PLL0PREDIV_VALUE)
 564:C:/StellarStudio-7.1/SDKS/StellarESDK-1.8.0/Modules/Platform/Clock/include/sr5e1\clock.h **** #endif
 565:C:/StellarStudio-7.1/SDKS/StellarESDK-1.8.0/Modules/Platform/Clock/include/sr5e1\clock.h **** 
 566:C:/StellarStudio-7.1/SDKS/StellarESDK-1.8.0/Modules/Platform/Clock/include/sr5e1\clock.h **** #if (CLOCK_PLL0PFD != 0U) && (CLOCK_ACTIVATE_PLL0 == TRUE) &&               \
 567:C:/StellarStudio-7.1/SDKS/StellarESDK-1.8.0/Modules/Platform/Clock/include/sr5e1\clock.h ****     ((CLOCK_PLL0PFD < CLOCK_PLL0PFD_MIN) || (CLOCK_PLL0PFD > CLOCK_PLL0PFD_MAX))
 568:C:/StellarStudio-7.1/SDKS/StellarESDK-1.8.0/Modules/Platform/Clock/include/sr5e1\clock.h **** #error "out of limits CLOCK_PLL0PFD value"
 569:C:/StellarStudio-7.1/SDKS/StellarESDK-1.8.0/Modules/Platform/Clock/include/sr5e1\clock.h **** #endif
 570:C:/StellarStudio-7.1/SDKS/StellarESDK-1.8.0/Modules/Platform/Clock/include/sr5e1\clock.h **** 
 571:C:/StellarStudio-7.1/SDKS/StellarESDK-1.8.0/Modules/Platform/Clock/include/sr5e1\clock.h **** /* PLL0 VCO clock.*/
 572:C:/StellarStudio-7.1/SDKS/StellarESDK-1.8.0/Modules/Platform/Clock/include/sr5e1\clock.h **** #define CLOCK_PLL0VCO                                                       \
 573:C:/StellarStudio-7.1/SDKS/StellarESDK-1.8.0/Modules/Platform/Clock/include/sr5e1\clock.h ****   (2U * CLOCK_CFG_PLL0MFD_VALUE * CLOCK_PLL0PFD)
 574:C:/StellarStudio-7.1/SDKS/StellarESDK-1.8.0/Modules/Platform/Clock/include/sr5e1\clock.h **** 
 575:C:/StellarStudio-7.1/SDKS/StellarESDK-1.8.0/Modules/Platform/Clock/include/sr5e1\clock.h **** #if (CLOCK_PLL0VCO != 0U) && (CLOCK_ACTIVATE_PLL0 == TRUE) &&               \
 576:C:/StellarStudio-7.1/SDKS/StellarESDK-1.8.0/Modules/Platform/Clock/include/sr5e1\clock.h ****     ((CLOCK_PLL0VCO < CLOCK_PLL0VCO_MIN) || (CLOCK_PLL0VCO > CLOCK_PLL0VCO_MAX))
 577:C:/StellarStudio-7.1/SDKS/StellarESDK-1.8.0/Modules/Platform/Clock/include/sr5e1\clock.h **** #error "out of limits CLOCK_PLL0VCO value"
 578:C:/StellarStudio-7.1/SDKS/StellarESDK-1.8.0/Modules/Platform/Clock/include/sr5e1\clock.h **** #endif
 579:C:/StellarStudio-7.1/SDKS/StellarESDK-1.8.0/Modules/Platform/Clock/include/sr5e1\clock.h **** 
 580:C:/StellarStudio-7.1/SDKS/StellarESDK-1.8.0/Modules/Platform/Clock/include/sr5e1\clock.h **** /* PLL0 output clocks.*/
 581:C:/StellarStudio-7.1/SDKS/StellarESDK-1.8.0/Modules/Platform/Clock/include/sr5e1\clock.h **** #define CLOCK_PLL0PHI                                                       \
 582:C:/StellarStudio-7.1/SDKS/StellarESDK-1.8.0/Modules/Platform/Clock/include/sr5e1\clock.h ****   ((CLOCK_PLL0VCO / CLOCK_CFG_PLL0RFDPHI_VALUE) / 2U)
 583:C:/StellarStudio-7.1/SDKS/StellarESDK-1.8.0/Modules/Platform/Clock/include/sr5e1\clock.h **** 
 584:C:/StellarStudio-7.1/SDKS/StellarESDK-1.8.0/Modules/Platform/Clock/include/sr5e1\clock.h **** #if (CLOCK_ACTIVATE_PLL0 == TRUE) &&                                        \
 585:C:/StellarStudio-7.1/SDKS/StellarESDK-1.8.0/Modules/Platform/Clock/include/sr5e1\clock.h ****     ((CLOCK_PLL0PHI < CLOCK_PLL0PHI_MIN) || (CLOCK_PLL0PHI > CLOCK_PLL0PHI_MAX))
 586:C:/StellarStudio-7.1/SDKS/StellarESDK-1.8.0/Modules/Platform/Clock/include/sr5e1\clock.h **** #error "out of limits CLOCK_PLL0PHI value"
 587:C:/StellarStudio-7.1/SDKS/StellarESDK-1.8.0/Modules/Platform/Clock/include/sr5e1\clock.h **** #endif
 588:C:/StellarStudio-7.1/SDKS/StellarESDK-1.8.0/Modules/Platform/Clock/include/sr5e1\clock.h **** 
 589:C:/StellarStudio-7.1/SDKS/StellarESDK-1.8.0/Modules/Platform/Clock/include/sr5e1\clock.h **** #define CLOCK_PLL0PHI1                                                      \
 590:C:/StellarStudio-7.1/SDKS/StellarESDK-1.8.0/Modules/Platform/Clock/include/sr5e1\clock.h ****   ((CLOCK_PLL0VCO / CLOCK_CFG_PLL0RFDPHI1_VALUE) / 2U)
 591:C:/StellarStudio-7.1/SDKS/StellarESDK-1.8.0/Modules/Platform/Clock/include/sr5e1\clock.h **** 
 592:C:/StellarStudio-7.1/SDKS/StellarESDK-1.8.0/Modules/Platform/Clock/include/sr5e1\clock.h **** #if (CLOCK_ACTIVATE_PLL0 == TRUE) &&                                        \
 593:C:/StellarStudio-7.1/SDKS/StellarESDK-1.8.0/Modules/Platform/Clock/include/sr5e1\clock.h ****     ((CLOCK_PLL0PHI1 < CLOCK_PLL0PHI1_MIN) || (CLOCK_PLL0PHI1 > CLOCK_PLL0PHI1_MAX))
 594:C:/StellarStudio-7.1/SDKS/StellarESDK-1.8.0/Modules/Platform/Clock/include/sr5e1\clock.h **** #error "out of limits CLOCK_PLL0PHI1 value"
 595:C:/StellarStudio-7.1/SDKS/StellarESDK-1.8.0/Modules/Platform/Clock/include/sr5e1\clock.h **** #endif
 596:C:/StellarStudio-7.1/SDKS/StellarESDK-1.8.0/Modules/Platform/Clock/include/sr5e1\clock.h **** 
 597:C:/StellarStudio-7.1/SDKS/StellarESDK-1.8.0/Modules/Platform/Clock/include/sr5e1\clock.h **** /* PLL1 enable check.*/
 598:C:/StellarStudio-7.1/SDKS/StellarESDK-1.8.0/Modules/Platform/Clock/include/sr5e1\clock.h **** #if (CLOCK_CFG_SW == CLOCK_SW_PLL1PHI) ||                                   \
 599:C:/StellarStudio-7.1/SDKS/StellarESDK-1.8.0/Modules/Platform/Clock/include/sr5e1\clock.h ****     (CLOCK_CFG_MCOSEL == CLOCK_MCOSEL_PLL1PHI) ||                           \
 600:C:/StellarStudio-7.1/SDKS/StellarESDK-1.8.0/Modules/Platform/Clock/include/sr5e1\clock.h ****     (CLOCK_CFG_ADCSEL == CLOCK_ADCSEL_PLL1PHI) ||                           \
 601:C:/StellarStudio-7.1/SDKS/StellarESDK-1.8.0/Modules/Platform/Clock/include/sr5e1\clock.h ****     (CLOCK_CFG_SDADCSEL == CLOCK_SDADCSEL_PLL1PHI)
 602:C:/StellarStudio-7.1/SDKS/StellarESDK-1.8.0/Modules/Platform/Clock/include/sr5e1\clock.h **** #define CLOCK_ACTIVATE_PLL1         TRUE
 603:C:/StellarStudio-7.1/SDKS/StellarESDK-1.8.0/Modules/Platform/Clock/include/sr5e1\clock.h **** #else
 604:C:/StellarStudio-7.1/SDKS/StellarESDK-1.8.0/Modules/Platform/Clock/include/sr5e1\clock.h **** #define CLOCK_ACTIVATE_PLL1         FALSE
 605:C:/StellarStudio-7.1/SDKS/StellarESDK-1.8.0/Modules/Platform/Clock/include/sr5e1\clock.h **** #endif
 606:C:/StellarStudio-7.1/SDKS/StellarESDK-1.8.0/Modules/Platform/Clock/include/sr5e1\clock.h **** 
 607:C:/StellarStudio-7.1/SDKS/StellarESDK-1.8.0/Modules/Platform/Clock/include/sr5e1\clock.h **** /* PLL1 fields.*/
 608:C:/StellarStudio-7.1/SDKS/StellarESDK-1.8.0/Modules/Platform/Clock/include/sr5e1\clock.h **** #if !((CLOCK_CFG_PLL1MFD_VALUE >= 16U) && (CLOCK_CFG_PLL1MFD_VALUE <= 34U))
 609:C:/StellarStudio-7.1/SDKS/StellarESDK-1.8.0/Modules/Platform/Clock/include/sr5e1\clock.h **** #error "invalid CLOCK_CFG_PLL1MFD_VALUE value in clock_cfg.h"
 610:C:/StellarStudio-7.1/SDKS/StellarESDK-1.8.0/Modules/Platform/Clock/include/sr5e1\clock.h **** #endif
 611:C:/StellarStudio-7.1/SDKS/StellarESDK-1.8.0/Modules/Platform/Clock/include/sr5e1\clock.h **** 
 612:C:/StellarStudio-7.1/SDKS/StellarESDK-1.8.0/Modules/Platform/Clock/include/sr5e1\clock.h **** #if !((CLOCK_CFG_PLL1RFDPHI_VALUE >= 1U) && (CLOCK_CFG_PLL1RFDPHI_VALUE <= 63U))
 613:C:/StellarStudio-7.1/SDKS/StellarESDK-1.8.0/Modules/Platform/Clock/include/sr5e1\clock.h **** #error "invalid CLOCK_CFG_PLL1RFDPHI_VALUE value in clock_cfg.h"
 614:C:/StellarStudio-7.1/SDKS/StellarESDK-1.8.0/Modules/Platform/Clock/include/sr5e1\clock.h **** #endif
 615:C:/StellarStudio-7.1/SDKS/StellarESDK-1.8.0/Modules/Platform/Clock/include/sr5e1\clock.h **** 
 616:C:/StellarStudio-7.1/SDKS/StellarESDK-1.8.0/Modules/Platform/Clock/include/sr5e1\clock.h **** /* PLL1 input clock.*/
 617:C:/StellarStudio-7.1/SDKS/StellarESDK-1.8.0/Modules/Platform/Clock/include/sr5e1\clock.h **** #if (CLOCK_CFG_PLL1SRC == CLOCK_PLL1SRC_PLL0PHI1) || defined(__DOXYGEN__)
 618:C:/StellarStudio-7.1/SDKS/StellarESDK-1.8.0/Modules/Platform/Clock/include/sr5e1\clock.h **** #define CLOCK_PLL1IN                CLOCK_PLL0PHI1
 619:C:/StellarStudio-7.1/SDKS/StellarESDK-1.8.0/Modules/Platform/Clock/include/sr5e1\clock.h **** 
 620:C:/StellarStudio-7.1/SDKS/StellarESDK-1.8.0/Modules/Platform/Clock/include/sr5e1\clock.h **** #elif CLOCK_CFG_PLL1SRC == CLOCK_PLL1SRC_XOSC
 621:C:/StellarStudio-7.1/SDKS/StellarESDK-1.8.0/Modules/Platform/Clock/include/sr5e1\clock.h **** #define CLOCK_PLL1IN                CLOCK_CFG_XOSCCLK
 622:C:/StellarStudio-7.1/SDKS/StellarESDK-1.8.0/Modules/Platform/Clock/include/sr5e1\clock.h **** 
 623:C:/StellarStudio-7.1/SDKS/StellarESDK-1.8.0/Modules/Platform/Clock/include/sr5e1\clock.h **** #elif CLOCK_CFG_PLL1SRC == CLOCK_PLL1SRC_NOCLOCK
 624:C:/StellarStudio-7.1/SDKS/StellarESDK-1.8.0/Modules/Platform/Clock/include/sr5e1\clock.h **** #define CLOCK_PLL1IN                0U
 625:C:/StellarStudio-7.1/SDKS/StellarESDK-1.8.0/Modules/Platform/Clock/include/sr5e1\clock.h **** 
 626:C:/StellarStudio-7.1/SDKS/StellarESDK-1.8.0/Modules/Platform/Clock/include/sr5e1\clock.h **** #else
 627:C:/StellarStudio-7.1/SDKS/StellarESDK-1.8.0/Modules/Platform/Clock/include/sr5e1\clock.h **** #error "invalid CLOCK_CFG_PLL1SRC value in clock_cfg.h"
 628:C:/StellarStudio-7.1/SDKS/StellarESDK-1.8.0/Modules/Platform/Clock/include/sr5e1\clock.h **** #endif
 629:C:/StellarStudio-7.1/SDKS/StellarESDK-1.8.0/Modules/Platform/Clock/include/sr5e1\clock.h **** 
 630:C:/StellarStudio-7.1/SDKS/StellarESDK-1.8.0/Modules/Platform/Clock/include/sr5e1\clock.h **** #if (CLOCK_PLL1IN == 0U && CLOCK_ACTIVATE_PLL1 == TRUE)
 631:C:/StellarStudio-7.1/SDKS/StellarESDK-1.8.0/Modules/Platform/Clock/include/sr5e1\clock.h **** #error "no PLL input clock"
 632:C:/StellarStudio-7.1/SDKS/StellarESDK-1.8.0/Modules/Platform/Clock/include/sr5e1\clock.h **** #endif
 633:C:/StellarStudio-7.1/SDKS/StellarESDK-1.8.0/Modules/Platform/Clock/include/sr5e1\clock.h **** 
 634:C:/StellarStudio-7.1/SDKS/StellarESDK-1.8.0/Modules/Platform/Clock/include/sr5e1\clock.h **** #if ((CLOCK_PLL1IN != 0U) && (CLOCK_ACTIVATE_PLL1 == TRUE)) &&              \
 635:C:/StellarStudio-7.1/SDKS/StellarESDK-1.8.0/Modules/Platform/Clock/include/sr5e1\clock.h ****     ((CLOCK_PLL1IN < CLOCK_PLL1IN_MIN) || (CLOCK_PLL1IN > CLOCK_PLL1IN_MAX))
 636:C:/StellarStudio-7.1/SDKS/StellarESDK-1.8.0/Modules/Platform/Clock/include/sr5e1\clock.h **** #error "out of limits CLOCK_PLL1IN value"
 637:C:/StellarStudio-7.1/SDKS/StellarESDK-1.8.0/Modules/Platform/Clock/include/sr5e1\clock.h **** #endif
 638:C:/StellarStudio-7.1/SDKS/StellarESDK-1.8.0/Modules/Platform/Clock/include/sr5e1\clock.h **** 
 639:C:/StellarStudio-7.1/SDKS/StellarESDK-1.8.0/Modules/Platform/Clock/include/sr5e1\clock.h **** /* PLL1 VCO clock.*/
 640:C:/StellarStudio-7.1/SDKS/StellarESDK-1.8.0/Modules/Platform/Clock/include/sr5e1\clock.h **** #define CLOCK_PLL1VCO                                                       \
 641:C:/StellarStudio-7.1/SDKS/StellarESDK-1.8.0/Modules/Platform/Clock/include/sr5e1\clock.h ****   (CLOCK_PLL1IN * CLOCK_CFG_PLL1MFD_VALUE)
 642:C:/StellarStudio-7.1/SDKS/StellarESDK-1.8.0/Modules/Platform/Clock/include/sr5e1\clock.h **** 
 643:C:/StellarStudio-7.1/SDKS/StellarESDK-1.8.0/Modules/Platform/Clock/include/sr5e1\clock.h **** #if (CLOCK_ACTIVATE_PLL1 == TRUE) &&                                        \
 644:C:/StellarStudio-7.1/SDKS/StellarESDK-1.8.0/Modules/Platform/Clock/include/sr5e1\clock.h ****     ((CLOCK_PLL1VCO < CLOCK_PLL1VCO_MIN) || (CLOCK_PLL1VCO > CLOCK_PLL1VCO_MAX))
 645:C:/StellarStudio-7.1/SDKS/StellarESDK-1.8.0/Modules/Platform/Clock/include/sr5e1\clock.h **** #error "out of limits CLOCK_PLL1VCO value"
 646:C:/StellarStudio-7.1/SDKS/StellarESDK-1.8.0/Modules/Platform/Clock/include/sr5e1\clock.h **** #endif
 647:C:/StellarStudio-7.1/SDKS/StellarESDK-1.8.0/Modules/Platform/Clock/include/sr5e1\clock.h **** 
 648:C:/StellarStudio-7.1/SDKS/StellarESDK-1.8.0/Modules/Platform/Clock/include/sr5e1\clock.h **** /* PLL1 output clock.*/
 649:C:/StellarStudio-7.1/SDKS/StellarESDK-1.8.0/Modules/Platform/Clock/include/sr5e1\clock.h **** #define CLOCK_PLL1PHI                                                       \
 650:C:/StellarStudio-7.1/SDKS/StellarESDK-1.8.0/Modules/Platform/Clock/include/sr5e1\clock.h ****   ((CLOCK_PLL1VCO / CLOCK_CFG_PLL1RFDPHI_VALUE) / 2U)
 651:C:/StellarStudio-7.1/SDKS/StellarESDK-1.8.0/Modules/Platform/Clock/include/sr5e1\clock.h **** 
 652:C:/StellarStudio-7.1/SDKS/StellarESDK-1.8.0/Modules/Platform/Clock/include/sr5e1\clock.h **** #if (CLOCK_ACTIVATE_PLL1 == TRUE) &&                                        \
 653:C:/StellarStudio-7.1/SDKS/StellarESDK-1.8.0/Modules/Platform/Clock/include/sr5e1\clock.h ****     ((CLOCK_PLL1PHI < CLOCK_PLL1PHI_MIN) || (CLOCK_PLL1PHI > CLOCK_PLL1PHI_MAX))
 654:C:/StellarStudio-7.1/SDKS/StellarESDK-1.8.0/Modules/Platform/Clock/include/sr5e1\clock.h **** #error "out of limits CLOCK_PLL1PHI value"
 655:C:/StellarStudio-7.1/SDKS/StellarESDK-1.8.0/Modules/Platform/Clock/include/sr5e1\clock.h **** #endif
 656:C:/StellarStudio-7.1/SDKS/StellarESDK-1.8.0/Modules/Platform/Clock/include/sr5e1\clock.h **** 
 657:C:/StellarStudio-7.1/SDKS/StellarESDK-1.8.0/Modules/Platform/Clock/include/sr5e1\clock.h **** /* SYSCLK source.*/
 658:C:/StellarStudio-7.1/SDKS/StellarESDK-1.8.0/Modules/Platform/Clock/include/sr5e1\clock.h **** #if (CLOCK_CFG_SW == CLOCK_SW_IRCOSC) || defined(__DOXYGEN__)
 659:C:/StellarStudio-7.1/SDKS/StellarESDK-1.8.0/Modules/Platform/Clock/include/sr5e1\clock.h **** #define CLOCK_SYSCLK                CLOCK_IRCOSCCLK
 660:C:/StellarStudio-7.1/SDKS/StellarESDK-1.8.0/Modules/Platform/Clock/include/sr5e1\clock.h **** 
 661:C:/StellarStudio-7.1/SDKS/StellarESDK-1.8.0/Modules/Platform/Clock/include/sr5e1\clock.h **** #elif (CLOCK_CFG_SW == CLOCK_SW_XOSC)
 662:C:/StellarStudio-7.1/SDKS/StellarESDK-1.8.0/Modules/Platform/Clock/include/sr5e1\clock.h **** #define CLOCK_SYSCLK                CLOCK_CFG_XOSCCLK
 663:C:/StellarStudio-7.1/SDKS/StellarESDK-1.8.0/Modules/Platform/Clock/include/sr5e1\clock.h **** 
 664:C:/StellarStudio-7.1/SDKS/StellarESDK-1.8.0/Modules/Platform/Clock/include/sr5e1\clock.h **** #elif (CLOCK_CFG_SW == CLOCK_SW_PLL0PHI)
 665:C:/StellarStudio-7.1/SDKS/StellarESDK-1.8.0/Modules/Platform/Clock/include/sr5e1\clock.h **** #define CLOCK_SYSCLK                CLOCK_PLL0PHI
 666:C:/StellarStudio-7.1/SDKS/StellarESDK-1.8.0/Modules/Platform/Clock/include/sr5e1\clock.h **** 
 667:C:/StellarStudio-7.1/SDKS/StellarESDK-1.8.0/Modules/Platform/Clock/include/sr5e1\clock.h **** #elif (CLOCK_CFG_SW == CLOCK_SW_PLL1PHI)
 668:C:/StellarStudio-7.1/SDKS/StellarESDK-1.8.0/Modules/Platform/Clock/include/sr5e1\clock.h **** #define CLOCK_SYSCLK                CLOCK_PLL1PHI
 669:C:/StellarStudio-7.1/SDKS/StellarESDK-1.8.0/Modules/Platform/Clock/include/sr5e1\clock.h **** 
 670:C:/StellarStudio-7.1/SDKS/StellarESDK-1.8.0/Modules/Platform/Clock/include/sr5e1\clock.h **** #else
 671:C:/StellarStudio-7.1/SDKS/StellarESDK-1.8.0/Modules/Platform/Clock/include/sr5e1\clock.h **** #error "invalid CLOCK_CFG_SW value in clock_cfg.h"
 672:C:/StellarStudio-7.1/SDKS/StellarESDK-1.8.0/Modules/Platform/Clock/include/sr5e1\clock.h **** #endif
 673:C:/StellarStudio-7.1/SDKS/StellarESDK-1.8.0/Modules/Platform/Clock/include/sr5e1\clock.h **** 
 674:C:/StellarStudio-7.1/SDKS/StellarESDK-1.8.0/Modules/Platform/Clock/include/sr5e1\clock.h **** /* SYSCLK check.*/
 675:C:/StellarStudio-7.1/SDKS/StellarESDK-1.8.0/Modules/Platform/Clock/include/sr5e1\clock.h **** #if CLOCK_SYSCLK > CLOCK_SYSCLK_MAX
 676:C:/StellarStudio-7.1/SDKS/StellarESDK-1.8.0/Modules/Platform/Clock/include/sr5e1\clock.h **** #error "out of limits CLOCK_SYSCLK value"
 677:C:/StellarStudio-7.1/SDKS/StellarESDK-1.8.0/Modules/Platform/Clock/include/sr5e1\clock.h **** #endif
 678:C:/StellarStudio-7.1/SDKS/StellarESDK-1.8.0/Modules/Platform/Clock/include/sr5e1\clock.h **** 
 679:C:/StellarStudio-7.1/SDKS/StellarESDK-1.8.0/Modules/Platform/Clock/include/sr5e1\clock.h **** /* SYSCLKDIV source.*/
 680:C:/StellarStudio-7.1/SDKS/StellarESDK-1.8.0/Modules/Platform/Clock/include/sr5e1\clock.h **** #if ((CLOCK_CFG_SYSPRE_VALUE >= 0U) && (CLOCK_CFG_SYSPRE_VALUE <= 511U))
 681:C:/StellarStudio-7.1/SDKS/StellarESDK-1.8.0/Modules/Platform/Clock/include/sr5e1\clock.h **** #define CLOCK_SYSCLKDIV             (CLOCK_SYSCLK / (CLOCK_CFG_SYSPRE_VALUE + 1U))
 682:C:/StellarStudio-7.1/SDKS/StellarESDK-1.8.0/Modules/Platform/Clock/include/sr5e1\clock.h **** #else
 683:C:/StellarStudio-7.1/SDKS/StellarESDK-1.8.0/Modules/Platform/Clock/include/sr5e1\clock.h **** #error "invalid CLOCK_CFG_SYSPRE_VALUE value in clock_cfg.h"
 684:C:/StellarStudio-7.1/SDKS/StellarESDK-1.8.0/Modules/Platform/Clock/include/sr5e1\clock.h **** #endif
 685:C:/StellarStudio-7.1/SDKS/StellarESDK-1.8.0/Modules/Platform/Clock/include/sr5e1\clock.h **** 
 686:C:/StellarStudio-7.1/SDKS/StellarESDK-1.8.0/Modules/Platform/Clock/include/sr5e1\clock.h **** /* APB1 frequency.*/
 687:C:/StellarStudio-7.1/SDKS/StellarESDK-1.8.0/Modules/Platform/Clock/include/sr5e1\clock.h **** #define CLOCK_PCLK1                 (CLOCK_SYSCLKDIV / 4U)
 688:C:/StellarStudio-7.1/SDKS/StellarESDK-1.8.0/Modules/Platform/Clock/include/sr5e1\clock.h **** 
 689:C:/StellarStudio-7.1/SDKS/StellarESDK-1.8.0/Modules/Platform/Clock/include/sr5e1\clock.h **** /* APB2 frequency.*/
 690:C:/StellarStudio-7.1/SDKS/StellarESDK-1.8.0/Modules/Platform/Clock/include/sr5e1\clock.h **** #define CLOCK_PCLK2                 (CLOCK_SYSCLKDIV / 2U)
 691:C:/StellarStudio-7.1/SDKS/StellarESDK-1.8.0/Modules/Platform/Clock/include/sr5e1\clock.h **** 
 692:C:/StellarStudio-7.1/SDKS/StellarESDK-1.8.0/Modules/Platform/Clock/include/sr5e1\clock.h **** /**
 693:C:/StellarStudio-7.1/SDKS/StellarESDK-1.8.0/Modules/Platform/Clock/include/sr5e1\clock.h ****  * @brief   TIM clock.
 694:C:/StellarStudio-7.1/SDKS/StellarESDK-1.8.0/Modules/Platform/Clock/include/sr5e1\clock.h ****  */
 695:C:/StellarStudio-7.1/SDKS/StellarESDK-1.8.0/Modules/Platform/Clock/include/sr5e1\clock.h **** #define CLOCK_TIMCLK1               (CLOCK_PCLK2 * 2U)
 696:C:/StellarStudio-7.1/SDKS/StellarESDK-1.8.0/Modules/Platform/Clock/include/sr5e1\clock.h **** #define CLOCK_TIMCLK2               (CLOCK_PCLK1 * 2U)
 697:C:/StellarStudio-7.1/SDKS/StellarESDK-1.8.0/Modules/Platform/Clock/include/sr5e1\clock.h **** #define CLOCK_TIMCLK3               (CLOCK_PCLK1 * 2U)
 698:C:/StellarStudio-7.1/SDKS/StellarESDK-1.8.0/Modules/Platform/Clock/include/sr5e1\clock.h **** #define CLOCK_TIMCLK4               (CLOCK_PCLK2 * 2U)
 699:C:/StellarStudio-7.1/SDKS/StellarESDK-1.8.0/Modules/Platform/Clock/include/sr5e1\clock.h **** #define CLOCK_TIMCLK5               (CLOCK_PCLK2 * 2U)
 700:C:/StellarStudio-7.1/SDKS/StellarESDK-1.8.0/Modules/Platform/Clock/include/sr5e1\clock.h **** #define CLOCK_TIMCLK6               (CLOCK_PCLK1 * 2U)
 701:C:/StellarStudio-7.1/SDKS/StellarESDK-1.8.0/Modules/Platform/Clock/include/sr5e1\clock.h **** #define CLOCK_TIMCLK7               (CLOCK_PCLK1 * 2U)
 702:C:/StellarStudio-7.1/SDKS/StellarESDK-1.8.0/Modules/Platform/Clock/include/sr5e1\clock.h **** #define CLOCK_TIMCLK8               (CLOCK_PCLK2 * 2U)
 703:C:/StellarStudio-7.1/SDKS/StellarESDK-1.8.0/Modules/Platform/Clock/include/sr5e1\clock.h **** #define CLOCK_TIMCLK15              (CLOCK_PCLK2 * 2U)
 704:C:/StellarStudio-7.1/SDKS/StellarESDK-1.8.0/Modules/Platform/Clock/include/sr5e1\clock.h **** #define CLOCK_TIMCLK16              (CLOCK_PCLK2 * 2U)
 705:C:/StellarStudio-7.1/SDKS/StellarESDK-1.8.0/Modules/Platform/Clock/include/sr5e1\clock.h **** #define CLOCK_TIMTSCLK              (CLOCK_PCLK1 * 2U)
 706:C:/StellarStudio-7.1/SDKS/StellarESDK-1.8.0/Modules/Platform/Clock/include/sr5e1\clock.h **** 
 707:C:/StellarStudio-7.1/SDKS/StellarESDK-1.8.0/Modules/Platform/Clock/include/sr5e1\clock.h **** /**
 708:C:/StellarStudio-7.1/SDKS/StellarESDK-1.8.0/Modules/Platform/Clock/include/sr5e1\clock.h ****  * @brief   MCO divider clock frequency.
 709:C:/StellarStudio-7.1/SDKS/StellarESDK-1.8.0/Modules/Platform/Clock/include/sr5e1\clock.h ****  */
 710:C:/StellarStudio-7.1/SDKS/StellarESDK-1.8.0/Modules/Platform/Clock/include/sr5e1\clock.h **** #if (CLOCK_CFG_MCOSEL == CLOCK_MCOSEL_NOCLOCK) || defined(__DOXYGEN__)
 711:C:/StellarStudio-7.1/SDKS/StellarESDK-1.8.0/Modules/Platform/Clock/include/sr5e1\clock.h **** #define CLOCK_MCODIVCLK             0U
 712:C:/StellarStudio-7.1/SDKS/StellarESDK-1.8.0/Modules/Platform/Clock/include/sr5e1\clock.h **** 
 713:C:/StellarStudio-7.1/SDKS/StellarESDK-1.8.0/Modules/Platform/Clock/include/sr5e1\clock.h **** #elif CLOCK_CFG_MCOSEL == CLOCK_MCOSEL_LSI
 714:C:/StellarStudio-7.1/SDKS/StellarESDK-1.8.0/Modules/Platform/Clock/include/sr5e1\clock.h **** #define CLOCK_MCODIVCLK             CLOCK_LSICLK
 715:C:/StellarStudio-7.1/SDKS/StellarESDK-1.8.0/Modules/Platform/Clock/include/sr5e1\clock.h **** 
 716:C:/StellarStudio-7.1/SDKS/StellarESDK-1.8.0/Modules/Platform/Clock/include/sr5e1\clock.h **** #elif CLOCK_CFG_MCOSEL == CLOCK_MCOSEL_IRCOSC
 717:C:/StellarStudio-7.1/SDKS/StellarESDK-1.8.0/Modules/Platform/Clock/include/sr5e1\clock.h **** #define CLOCK_MCODIVCLK             CLOCK_IRCOSCCLK
 718:C:/StellarStudio-7.1/SDKS/StellarESDK-1.8.0/Modules/Platform/Clock/include/sr5e1\clock.h **** 
 719:C:/StellarStudio-7.1/SDKS/StellarESDK-1.8.0/Modules/Platform/Clock/include/sr5e1\clock.h **** #elif CLOCK_CFG_MCOSEL == CLOCK_MCOSEL_XOSC
 720:C:/StellarStudio-7.1/SDKS/StellarESDK-1.8.0/Modules/Platform/Clock/include/sr5e1\clock.h **** #define CLOCK_MCODIVCLK             CLOCK_CFG_XOSCCLK
 721:C:/StellarStudio-7.1/SDKS/StellarESDK-1.8.0/Modules/Platform/Clock/include/sr5e1\clock.h **** 
 722:C:/StellarStudio-7.1/SDKS/StellarESDK-1.8.0/Modules/Platform/Clock/include/sr5e1\clock.h **** #elif CLOCK_CFG_MCOSEL == CLOCK_MCOSEL_PLL0PHI
 723:C:/StellarStudio-7.1/SDKS/StellarESDK-1.8.0/Modules/Platform/Clock/include/sr5e1\clock.h **** #define CLOCK_MCODIVCLK             CLOCK_PLL0PHI
 724:C:/StellarStudio-7.1/SDKS/StellarESDK-1.8.0/Modules/Platform/Clock/include/sr5e1\clock.h **** 
 725:C:/StellarStudio-7.1/SDKS/StellarESDK-1.8.0/Modules/Platform/Clock/include/sr5e1\clock.h **** #elif CLOCK_CFG_MCOSEL == CLOCK_MCOSEL_PLL1PHI
 726:C:/StellarStudio-7.1/SDKS/StellarESDK-1.8.0/Modules/Platform/Clock/include/sr5e1\clock.h **** #define CLOCK_MCODIVCLK             CLOCK_PLL1PHI
 727:C:/StellarStudio-7.1/SDKS/StellarESDK-1.8.0/Modules/Platform/Clock/include/sr5e1\clock.h **** 
 728:C:/StellarStudio-7.1/SDKS/StellarESDK-1.8.0/Modules/Platform/Clock/include/sr5e1\clock.h **** #else
 729:C:/StellarStudio-7.1/SDKS/StellarESDK-1.8.0/Modules/Platform/Clock/include/sr5e1\clock.h **** #error "invalid CLOCK_CFG_MCOSEL value in clock_cfg.h"
 730:C:/StellarStudio-7.1/SDKS/StellarESDK-1.8.0/Modules/Platform/Clock/include/sr5e1\clock.h **** #endif
 731:C:/StellarStudio-7.1/SDKS/StellarESDK-1.8.0/Modules/Platform/Clock/include/sr5e1\clock.h **** 
 732:C:/StellarStudio-7.1/SDKS/StellarESDK-1.8.0/Modules/Platform/Clock/include/sr5e1\clock.h **** /**
 733:C:/StellarStudio-7.1/SDKS/StellarESDK-1.8.0/Modules/Platform/Clock/include/sr5e1\clock.h ****  * @brief   MCO output pin clock frequency.
 734:C:/StellarStudio-7.1/SDKS/StellarESDK-1.8.0/Modules/Platform/Clock/include/sr5e1\clock.h ****  */
 735:C:/StellarStudio-7.1/SDKS/StellarESDK-1.8.0/Modules/Platform/Clock/include/sr5e1\clock.h **** #if (CLOCK_CFG_MCOPRE_VALUE == 0U)
 736:C:/StellarStudio-7.1/SDKS/StellarESDK-1.8.0/Modules/Platform/Clock/include/sr5e1\clock.h **** #define CLOCK_MCOCLK                CLOCK_MCODIVCLK
 737:C:/StellarStudio-7.1/SDKS/StellarESDK-1.8.0/Modules/Platform/Clock/include/sr5e1\clock.h **** #elif ((CLOCK_CFG_MCOPRE_VALUE > 0U) && (CLOCK_CFG_MCOPRE_VALUE <= 63U))
 738:C:/StellarStudio-7.1/SDKS/StellarESDK-1.8.0/Modules/Platform/Clock/include/sr5e1\clock.h **** #define CLOCK_MCOCLK                (CLOCK_MCODIVCLK / (2U * CLOCK_CFG_MCOPRE_VALUE))
 739:C:/StellarStudio-7.1/SDKS/StellarESDK-1.8.0/Modules/Platform/Clock/include/sr5e1\clock.h **** #else
 740:C:/StellarStudio-7.1/SDKS/StellarESDK-1.8.0/Modules/Platform/Clock/include/sr5e1\clock.h **** #error "invalid CLOCK_CFG_MCOPRE_VALUE value in clock_cfg.h"
 741:C:/StellarStudio-7.1/SDKS/StellarESDK-1.8.0/Modules/Platform/Clock/include/sr5e1\clock.h **** #endif
 742:C:/StellarStudio-7.1/SDKS/StellarESDK-1.8.0/Modules/Platform/Clock/include/sr5e1\clock.h **** 
 743:C:/StellarStudio-7.1/SDKS/StellarESDK-1.8.0/Modules/Platform/Clock/include/sr5e1\clock.h **** /**
 744:C:/StellarStudio-7.1/SDKS/StellarESDK-1.8.0/Modules/Platform/Clock/include/sr5e1\clock.h ****  * @brief   RTC clock.
 745:C:/StellarStudio-7.1/SDKS/StellarESDK-1.8.0/Modules/Platform/Clock/include/sr5e1\clock.h ****  */
 746:C:/StellarStudio-7.1/SDKS/StellarESDK-1.8.0/Modules/Platform/Clock/include/sr5e1\clock.h **** #if (CLOCK_CFG_LSIPRE_VALUE == 0U)
 747:C:/StellarStudio-7.1/SDKS/StellarESDK-1.8.0/Modules/Platform/Clock/include/sr5e1\clock.h **** #define CLOCK_LSIDIVCLK             CLOCK_LSICLK
 748:C:/StellarStudio-7.1/SDKS/StellarESDK-1.8.0/Modules/Platform/Clock/include/sr5e1\clock.h **** #elif ((CLOCK_CFG_LSIPRE_VALUE > 0U) && (CLOCK_CFG_LSIPRE_VALUE <= 31U))
 749:C:/StellarStudio-7.1/SDKS/StellarESDK-1.8.0/Modules/Platform/Clock/include/sr5e1\clock.h **** #define CLOCK_LSIDIVCLK             (CLOCK_LSICLK / (2U * CLOCK_CFG_LSIPRE_VALUE))
 750:C:/StellarStudio-7.1/SDKS/StellarESDK-1.8.0/Modules/Platform/Clock/include/sr5e1\clock.h **** #else
 751:C:/StellarStudio-7.1/SDKS/StellarESDK-1.8.0/Modules/Platform/Clock/include/sr5e1\clock.h **** #error "invalid CLOCK_CFG_LSIPRE_VALUE value in clock_cfg.h"
 752:C:/StellarStudio-7.1/SDKS/StellarESDK-1.8.0/Modules/Platform/Clock/include/sr5e1\clock.h **** #endif
 753:C:/StellarStudio-7.1/SDKS/StellarESDK-1.8.0/Modules/Platform/Clock/include/sr5e1\clock.h **** 
 754:C:/StellarStudio-7.1/SDKS/StellarESDK-1.8.0/Modules/Platform/Clock/include/sr5e1\clock.h **** #if (CLOCK_CFG_RTCSEL == CLOCK_RTCSEL_NOCLOCK) || defined(__DOXYGEN__)
 755:C:/StellarStudio-7.1/SDKS/StellarESDK-1.8.0/Modules/Platform/Clock/include/sr5e1\clock.h **** #define CLOCK_RTCSELCLK             0U
 756:C:/StellarStudio-7.1/SDKS/StellarESDK-1.8.0/Modules/Platform/Clock/include/sr5e1\clock.h **** 
 757:C:/StellarStudio-7.1/SDKS/StellarESDK-1.8.0/Modules/Platform/Clock/include/sr5e1\clock.h **** #elif CLOCK_CFG_RTCSEL == CLOCK_RTCSEL_LSI
 758:C:/StellarStudio-7.1/SDKS/StellarESDK-1.8.0/Modules/Platform/Clock/include/sr5e1\clock.h **** #define CLOCK_RTCSELCLK             CLOCK_LSIDIVCLK
 759:C:/StellarStudio-7.1/SDKS/StellarESDK-1.8.0/Modules/Platform/Clock/include/sr5e1\clock.h **** 
 760:C:/StellarStudio-7.1/SDKS/StellarESDK-1.8.0/Modules/Platform/Clock/include/sr5e1\clock.h **** #elif CLOCK_CFG_RTCSEL == CLOCK_RTCSEL_XOSC
 761:C:/StellarStudio-7.1/SDKS/StellarESDK-1.8.0/Modules/Platform/Clock/include/sr5e1\clock.h **** #define CLOCK_RTCSELCLK             CLOCK_CFG_XOSCCLK
 762:C:/StellarStudio-7.1/SDKS/StellarESDK-1.8.0/Modules/Platform/Clock/include/sr5e1\clock.h **** 
 763:C:/StellarStudio-7.1/SDKS/StellarESDK-1.8.0/Modules/Platform/Clock/include/sr5e1\clock.h **** #else
 764:C:/StellarStudio-7.1/SDKS/StellarESDK-1.8.0/Modules/Platform/Clock/include/sr5e1\clock.h **** #error "invalid CLOCK_CFG_RTCSEL value in clock_cfg.h"
 765:C:/StellarStudio-7.1/SDKS/StellarESDK-1.8.0/Modules/Platform/Clock/include/sr5e1\clock.h **** #endif
 766:C:/StellarStudio-7.1/SDKS/StellarESDK-1.8.0/Modules/Platform/Clock/include/sr5e1\clock.h **** 
 767:C:/StellarStudio-7.1/SDKS/StellarESDK-1.8.0/Modules/Platform/Clock/include/sr5e1\clock.h **** /**
 768:C:/StellarStudio-7.1/SDKS/StellarESDK-1.8.0/Modules/Platform/Clock/include/sr5e1\clock.h ****  * @brief   UART clock.
 769:C:/StellarStudio-7.1/SDKS/StellarESDK-1.8.0/Modules/Platform/Clock/include/sr5e1\clock.h ****  */
 770:C:/StellarStudio-7.1/SDKS/StellarESDK-1.8.0/Modules/Platform/Clock/include/sr5e1\clock.h **** #if (CLOCK_CFG_UARTSEL == CLOCK_UARTSEL_NOCLOCK) || defined(__DOXYGEN__)
 771:C:/StellarStudio-7.1/SDKS/StellarESDK-1.8.0/Modules/Platform/Clock/include/sr5e1\clock.h **** #define CLOCK_UARTSELCLK            0U
 772:C:/StellarStudio-7.1/SDKS/StellarESDK-1.8.0/Modules/Platform/Clock/include/sr5e1\clock.h **** 
 773:C:/StellarStudio-7.1/SDKS/StellarESDK-1.8.0/Modules/Platform/Clock/include/sr5e1\clock.h **** #elif CLOCK_CFG_UARTSEL == CLOCK_UARTSEL_IRCOSC
 774:C:/StellarStudio-7.1/SDKS/StellarESDK-1.8.0/Modules/Platform/Clock/include/sr5e1\clock.h **** #define CLOCK_UARTSELCLK            CLOCK_IRCOSCCLK
 775:C:/StellarStudio-7.1/SDKS/StellarESDK-1.8.0/Modules/Platform/Clock/include/sr5e1\clock.h **** 
 776:C:/StellarStudio-7.1/SDKS/StellarESDK-1.8.0/Modules/Platform/Clock/include/sr5e1\clock.h **** #elif CLOCK_CFG_UARTSEL == CLOCK_UARTSEL_XOSC
 777:C:/StellarStudio-7.1/SDKS/StellarESDK-1.8.0/Modules/Platform/Clock/include/sr5e1\clock.h **** #define CLOCK_UARTSELCLK            CLOCK_CFG_XOSCCLK
 778:C:/StellarStudio-7.1/SDKS/StellarESDK-1.8.0/Modules/Platform/Clock/include/sr5e1\clock.h **** 
 779:C:/StellarStudio-7.1/SDKS/StellarESDK-1.8.0/Modules/Platform/Clock/include/sr5e1\clock.h **** #elif CLOCK_CFG_UARTSEL == CLOCK_UARTSEL_PLL0PHI
 780:C:/StellarStudio-7.1/SDKS/StellarESDK-1.8.0/Modules/Platform/Clock/include/sr5e1\clock.h **** #define CLOCK_UARTSELCLK            CLOCK_PLL0PHI
 781:C:/StellarStudio-7.1/SDKS/StellarESDK-1.8.0/Modules/Platform/Clock/include/sr5e1\clock.h **** 
 782:C:/StellarStudio-7.1/SDKS/StellarESDK-1.8.0/Modules/Platform/Clock/include/sr5e1\clock.h **** #elif CLOCK_CFG_UARTSEL == CLOCK_UARTSEL_LSI
 783:C:/StellarStudio-7.1/SDKS/StellarESDK-1.8.0/Modules/Platform/Clock/include/sr5e1\clock.h **** #define CLOCK_UARTSELCLK            CLOCK_LSICLK
 784:C:/StellarStudio-7.1/SDKS/StellarESDK-1.8.0/Modules/Platform/Clock/include/sr5e1\clock.h **** 
 785:C:/StellarStudio-7.1/SDKS/StellarESDK-1.8.0/Modules/Platform/Clock/include/sr5e1\clock.h **** #else
 786:C:/StellarStudio-7.1/SDKS/StellarESDK-1.8.0/Modules/Platform/Clock/include/sr5e1\clock.h **** #error "invalid CLOCK_CFG_UARTSEL value in clock_cfg.h"
 787:C:/StellarStudio-7.1/SDKS/StellarESDK-1.8.0/Modules/Platform/Clock/include/sr5e1\clock.h **** #endif
 788:C:/StellarStudio-7.1/SDKS/StellarESDK-1.8.0/Modules/Platform/Clock/include/sr5e1\clock.h **** 
 789:C:/StellarStudio-7.1/SDKS/StellarESDK-1.8.0/Modules/Platform/Clock/include/sr5e1\clock.h **** #if ((CLOCK_CFG_UARTPRE_VALUE >= 0U) && (CLOCK_CFG_UARTPRE_VALUE <= 31U))
 790:C:/StellarStudio-7.1/SDKS/StellarESDK-1.8.0/Modules/Platform/Clock/include/sr5e1\clock.h **** #define CLOCK_UARTCLK               (CLOCK_UARTSELCLK / (CLOCK_CFG_UARTPRE_VALUE + 1U))
 791:C:/StellarStudio-7.1/SDKS/StellarESDK-1.8.0/Modules/Platform/Clock/include/sr5e1\clock.h **** #else
 792:C:/StellarStudio-7.1/SDKS/StellarESDK-1.8.0/Modules/Platform/Clock/include/sr5e1\clock.h **** #error "invalid CLOCK_CFG_UARTPRE_VALUE value in clock_cfg.h"
 793:C:/StellarStudio-7.1/SDKS/StellarESDK-1.8.0/Modules/Platform/Clock/include/sr5e1\clock.h **** #endif
 794:C:/StellarStudio-7.1/SDKS/StellarESDK-1.8.0/Modules/Platform/Clock/include/sr5e1\clock.h **** 
 795:C:/StellarStudio-7.1/SDKS/StellarESDK-1.8.0/Modules/Platform/Clock/include/sr5e1\clock.h **** #if CLOCK_UARTCLK > CLOCK_UARTCLK_MAX
 796:C:/StellarStudio-7.1/SDKS/StellarESDK-1.8.0/Modules/Platform/Clock/include/sr5e1\clock.h **** #error "out of limits CLOCK_UARTCLK value"
 797:C:/StellarStudio-7.1/SDKS/StellarESDK-1.8.0/Modules/Platform/Clock/include/sr5e1\clock.h **** #endif
 798:C:/StellarStudio-7.1/SDKS/StellarESDK-1.8.0/Modules/Platform/Clock/include/sr5e1\clock.h **** 
 799:C:/StellarStudio-7.1/SDKS/StellarESDK-1.8.0/Modules/Platform/Clock/include/sr5e1\clock.h **** #define CLOCK_UART1CLK              CLOCK_UARTCLK
 800:C:/StellarStudio-7.1/SDKS/StellarESDK-1.8.0/Modules/Platform/Clock/include/sr5e1\clock.h **** #define CLOCK_UART2CLK              CLOCK_UARTCLK
 801:C:/StellarStudio-7.1/SDKS/StellarESDK-1.8.0/Modules/Platform/Clock/include/sr5e1\clock.h **** #define CLOCK_UART3CLK              CLOCK_UARTCLK
 802:C:/StellarStudio-7.1/SDKS/StellarESDK-1.8.0/Modules/Platform/Clock/include/sr5e1\clock.h **** 
 803:C:/StellarStudio-7.1/SDKS/StellarESDK-1.8.0/Modules/Platform/Clock/include/sr5e1\clock.h **** /**
 804:C:/StellarStudio-7.1/SDKS/StellarESDK-1.8.0/Modules/Platform/Clock/include/sr5e1\clock.h ****  * @brief   I2C clock.
 805:C:/StellarStudio-7.1/SDKS/StellarESDK-1.8.0/Modules/Platform/Clock/include/sr5e1\clock.h ****  */
 806:C:/StellarStudio-7.1/SDKS/StellarESDK-1.8.0/Modules/Platform/Clock/include/sr5e1\clock.h **** #if (CLOCK_CFG_I2CSEL == CLOCK_I2CSEL_NOCLOCK) || defined(__DOXYGEN__)
 807:C:/StellarStudio-7.1/SDKS/StellarESDK-1.8.0/Modules/Platform/Clock/include/sr5e1\clock.h **** #define CLOCK_I2CSELCLK             0U
 808:C:/StellarStudio-7.1/SDKS/StellarESDK-1.8.0/Modules/Platform/Clock/include/sr5e1\clock.h **** 
 809:C:/StellarStudio-7.1/SDKS/StellarESDK-1.8.0/Modules/Platform/Clock/include/sr5e1\clock.h **** #elif CLOCK_CFG_I2CSEL == CLOCK_I2CSEL_IRCOSC
 810:C:/StellarStudio-7.1/SDKS/StellarESDK-1.8.0/Modules/Platform/Clock/include/sr5e1\clock.h **** #define CLOCK_I2CSELCLK             CLOCK_IRCOSCCLK
 811:C:/StellarStudio-7.1/SDKS/StellarESDK-1.8.0/Modules/Platform/Clock/include/sr5e1\clock.h **** 
 812:C:/StellarStudio-7.1/SDKS/StellarESDK-1.8.0/Modules/Platform/Clock/include/sr5e1\clock.h **** #elif CLOCK_CFG_I2CSEL == CLOCK_I2CSEL_XOSC
 813:C:/StellarStudio-7.1/SDKS/StellarESDK-1.8.0/Modules/Platform/Clock/include/sr5e1\clock.h **** #define CLOCK_I2CSELCLK             CLOCK_CFG_XOSCCLK
 814:C:/StellarStudio-7.1/SDKS/StellarESDK-1.8.0/Modules/Platform/Clock/include/sr5e1\clock.h **** 
 815:C:/StellarStudio-7.1/SDKS/StellarESDK-1.8.0/Modules/Platform/Clock/include/sr5e1\clock.h **** #elif CLOCK_CFG_I2CSEL == CLOCK_I2CSEL_PLL0PHI
 816:C:/StellarStudio-7.1/SDKS/StellarESDK-1.8.0/Modules/Platform/Clock/include/sr5e1\clock.h **** #define CLOCK_I2CSELCLK             CLOCK_PLL0PHI
 817:C:/StellarStudio-7.1/SDKS/StellarESDK-1.8.0/Modules/Platform/Clock/include/sr5e1\clock.h **** 
 818:C:/StellarStudio-7.1/SDKS/StellarESDK-1.8.0/Modules/Platform/Clock/include/sr5e1\clock.h **** #else
 819:C:/StellarStudio-7.1/SDKS/StellarESDK-1.8.0/Modules/Platform/Clock/include/sr5e1\clock.h **** #error "invalid CLOCK_CFG_I2CSEL value in clock_cfg.h"
 820:C:/StellarStudio-7.1/SDKS/StellarESDK-1.8.0/Modules/Platform/Clock/include/sr5e1\clock.h **** #endif
 821:C:/StellarStudio-7.1/SDKS/StellarESDK-1.8.0/Modules/Platform/Clock/include/sr5e1\clock.h **** 
 822:C:/StellarStudio-7.1/SDKS/StellarESDK-1.8.0/Modules/Platform/Clock/include/sr5e1\clock.h **** #if ((CLOCK_CFG_I2CPRE_VALUE >= 0U) && (CLOCK_CFG_I2CPRE_VALUE <= 31U))
 823:C:/StellarStudio-7.1/SDKS/StellarESDK-1.8.0/Modules/Platform/Clock/include/sr5e1\clock.h **** #define CLOCK_I2CCLK                (CLOCK_I2CSELCLK / (CLOCK_CFG_I2CPRE_VALUE + 1U))
 824:C:/StellarStudio-7.1/SDKS/StellarESDK-1.8.0/Modules/Platform/Clock/include/sr5e1\clock.h **** #else
 825:C:/StellarStudio-7.1/SDKS/StellarESDK-1.8.0/Modules/Platform/Clock/include/sr5e1\clock.h **** #error "invalid CLOCK_CFG_I2CPRE_VALUE value in clock_cfg.h"
 826:C:/StellarStudio-7.1/SDKS/StellarESDK-1.8.0/Modules/Platform/Clock/include/sr5e1\clock.h **** #endif
 827:C:/StellarStudio-7.1/SDKS/StellarESDK-1.8.0/Modules/Platform/Clock/include/sr5e1\clock.h **** 
 828:C:/StellarStudio-7.1/SDKS/StellarESDK-1.8.0/Modules/Platform/Clock/include/sr5e1\clock.h **** #if CLOCK_I2CCLK > CLOCK_I2CCLK_MAX
 829:C:/StellarStudio-7.1/SDKS/StellarESDK-1.8.0/Modules/Platform/Clock/include/sr5e1\clock.h **** #error "out of limits CLOCK_I2CCLK value"
 830:C:/StellarStudio-7.1/SDKS/StellarESDK-1.8.0/Modules/Platform/Clock/include/sr5e1\clock.h **** #endif
 831:C:/StellarStudio-7.1/SDKS/StellarESDK-1.8.0/Modules/Platform/Clock/include/sr5e1\clock.h **** 
 832:C:/StellarStudio-7.1/SDKS/StellarESDK-1.8.0/Modules/Platform/Clock/include/sr5e1\clock.h **** /**
 833:C:/StellarStudio-7.1/SDKS/StellarESDK-1.8.0/Modules/Platform/Clock/include/sr5e1\clock.h ****  * @brief   SPI/I2S clock.
 834:C:/StellarStudio-7.1/SDKS/StellarESDK-1.8.0/Modules/Platform/Clock/include/sr5e1\clock.h ****  */
 835:C:/StellarStudio-7.1/SDKS/StellarESDK-1.8.0/Modules/Platform/Clock/include/sr5e1\clock.h **** #if (CLOCK_CFG_SPISEL == CLOCK_SPISEL_NOCLOCK) || defined(__DOXYGEN__)
 836:C:/StellarStudio-7.1/SDKS/StellarESDK-1.8.0/Modules/Platform/Clock/include/sr5e1\clock.h **** #define CLOCK_SPISELCLK             0U
 837:C:/StellarStudio-7.1/SDKS/StellarESDK-1.8.0/Modules/Platform/Clock/include/sr5e1\clock.h **** 
 838:C:/StellarStudio-7.1/SDKS/StellarESDK-1.8.0/Modules/Platform/Clock/include/sr5e1\clock.h **** #elif CLOCK_CFG_SPISEL == CLOCK_SPISEL_IRCOSC
 839:C:/StellarStudio-7.1/SDKS/StellarESDK-1.8.0/Modules/Platform/Clock/include/sr5e1\clock.h **** #define CLOCK_SPISELCLK             CLOCK_IRCOSCCLK
 840:C:/StellarStudio-7.1/SDKS/StellarESDK-1.8.0/Modules/Platform/Clock/include/sr5e1\clock.h **** 
 841:C:/StellarStudio-7.1/SDKS/StellarESDK-1.8.0/Modules/Platform/Clock/include/sr5e1\clock.h **** #elif CLOCK_CFG_SPISEL == CLOCK_SPISEL_XOSC
 842:C:/StellarStudio-7.1/SDKS/StellarESDK-1.8.0/Modules/Platform/Clock/include/sr5e1\clock.h **** #define CLOCK_SPISELCLK             CLOCK_CFG_XOSCCLK
 843:C:/StellarStudio-7.1/SDKS/StellarESDK-1.8.0/Modules/Platform/Clock/include/sr5e1\clock.h **** 
 844:C:/StellarStudio-7.1/SDKS/StellarESDK-1.8.0/Modules/Platform/Clock/include/sr5e1\clock.h **** #elif CLOCK_CFG_SPISEL == CLOCK_SPISEL_PLL0PHI
 845:C:/StellarStudio-7.1/SDKS/StellarESDK-1.8.0/Modules/Platform/Clock/include/sr5e1\clock.h **** #define CLOCK_SPISELCLK             CLOCK_PLL0PHI
 846:C:/StellarStudio-7.1/SDKS/StellarESDK-1.8.0/Modules/Platform/Clock/include/sr5e1\clock.h **** 
 847:C:/StellarStudio-7.1/SDKS/StellarESDK-1.8.0/Modules/Platform/Clock/include/sr5e1\clock.h **** #elif CLOCK_CFG_SPISEL == CLOCK_SPISEL_I2S_CKIN
 848:C:/StellarStudio-7.1/SDKS/StellarESDK-1.8.0/Modules/Platform/Clock/include/sr5e1\clock.h **** #define CLOCK_SPISELCLK             CLOCK_CFG_I2S_CKIN
 849:C:/StellarStudio-7.1/SDKS/StellarESDK-1.8.0/Modules/Platform/Clock/include/sr5e1\clock.h **** 
 850:C:/StellarStudio-7.1/SDKS/StellarESDK-1.8.0/Modules/Platform/Clock/include/sr5e1\clock.h **** #else
 851:C:/StellarStudio-7.1/SDKS/StellarESDK-1.8.0/Modules/Platform/Clock/include/sr5e1\clock.h **** #error "invalid CLOCK_CFG_SPISEL value in clock_cfg.h"
 852:C:/StellarStudio-7.1/SDKS/StellarESDK-1.8.0/Modules/Platform/Clock/include/sr5e1\clock.h **** #endif
 853:C:/StellarStudio-7.1/SDKS/StellarESDK-1.8.0/Modules/Platform/Clock/include/sr5e1\clock.h **** 
 854:C:/StellarStudio-7.1/SDKS/StellarESDK-1.8.0/Modules/Platform/Clock/include/sr5e1\clock.h **** #if ((CLOCK_CFG_SPIPRE_VALUE >= 0U) && (CLOCK_CFG_SPIPRE_VALUE <= 31U))
 855:C:/StellarStudio-7.1/SDKS/StellarESDK-1.8.0/Modules/Platform/Clock/include/sr5e1\clock.h **** #define CLOCK_SPICLK                (CLOCK_SPISELCLK / (CLOCK_CFG_SPIPRE_VALUE + 1U))
 856:C:/StellarStudio-7.1/SDKS/StellarESDK-1.8.0/Modules/Platform/Clock/include/sr5e1\clock.h **** #else
 857:C:/StellarStudio-7.1/SDKS/StellarESDK-1.8.0/Modules/Platform/Clock/include/sr5e1\clock.h **** #error "invalid CLOCK_CFG_SPIPRE_VALUE value in clock_cfg.h"
 858:C:/StellarStudio-7.1/SDKS/StellarESDK-1.8.0/Modules/Platform/Clock/include/sr5e1\clock.h **** #endif
 859:C:/StellarStudio-7.1/SDKS/StellarESDK-1.8.0/Modules/Platform/Clock/include/sr5e1\clock.h **** 
 860:C:/StellarStudio-7.1/SDKS/StellarESDK-1.8.0/Modules/Platform/Clock/include/sr5e1\clock.h **** #define CLOCK_SPI1CLK               CLOCK_PCLK2
 861:C:/StellarStudio-7.1/SDKS/StellarESDK-1.8.0/Modules/Platform/Clock/include/sr5e1\clock.h **** #define CLOCK_SPI2CLK               CLOCK_PCLK1
 862:C:/StellarStudio-7.1/SDKS/StellarESDK-1.8.0/Modules/Platform/Clock/include/sr5e1\clock.h **** #define CLOCK_SPI3CLK               CLOCK_PCLK1
 863:C:/StellarStudio-7.1/SDKS/StellarESDK-1.8.0/Modules/Platform/Clock/include/sr5e1\clock.h **** #define CLOCK_SPI4CLK               CLOCK_PCLK2
 864:C:/StellarStudio-7.1/SDKS/StellarESDK-1.8.0/Modules/Platform/Clock/include/sr5e1\clock.h **** #define CLOCK_I2S2CLK               CLOCK_SPICLK
 865:C:/StellarStudio-7.1/SDKS/StellarESDK-1.8.0/Modules/Platform/Clock/include/sr5e1\clock.h **** #define CLOCK_I2S3CLK               CLOCK_SPICLK
 866:C:/StellarStudio-7.1/SDKS/StellarESDK-1.8.0/Modules/Platform/Clock/include/sr5e1\clock.h **** 
 867:C:/StellarStudio-7.1/SDKS/StellarESDK-1.8.0/Modules/Platform/Clock/include/sr5e1\clock.h **** /**
 868:C:/StellarStudio-7.1/SDKS/StellarESDK-1.8.0/Modules/Platform/Clock/include/sr5e1\clock.h ****  * @brief   FDCAN clock.
 869:C:/StellarStudio-7.1/SDKS/StellarESDK-1.8.0/Modules/Platform/Clock/include/sr5e1\clock.h ****  */
 870:C:/StellarStudio-7.1/SDKS/StellarESDK-1.8.0/Modules/Platform/Clock/include/sr5e1\clock.h **** #if (CLOCK_CFG_FDCANSEL == CLOCK_FDCANSEL_NOCLOCK) || defined(__DOXYGEN__)
 871:C:/StellarStudio-7.1/SDKS/StellarESDK-1.8.0/Modules/Platform/Clock/include/sr5e1\clock.h **** #define CLOCK_FDCANSELCLK           0U
 872:C:/StellarStudio-7.1/SDKS/StellarESDK-1.8.0/Modules/Platform/Clock/include/sr5e1\clock.h **** 
 873:C:/StellarStudio-7.1/SDKS/StellarESDK-1.8.0/Modules/Platform/Clock/include/sr5e1\clock.h **** #elif CLOCK_CFG_FDCANSEL == CLOCK_FDCANSEL_XOSC
 874:C:/StellarStudio-7.1/SDKS/StellarESDK-1.8.0/Modules/Platform/Clock/include/sr5e1\clock.h **** #define CLOCK_FDCANSELCLK           CLOCK_CFG_XOSCCLK
 875:C:/StellarStudio-7.1/SDKS/StellarESDK-1.8.0/Modules/Platform/Clock/include/sr5e1\clock.h **** 
 876:C:/StellarStudio-7.1/SDKS/StellarESDK-1.8.0/Modules/Platform/Clock/include/sr5e1\clock.h **** #elif CLOCK_CFG_FDCANSEL == CLOCK_FDCANSEL_PLL0PHI
 877:C:/StellarStudio-7.1/SDKS/StellarESDK-1.8.0/Modules/Platform/Clock/include/sr5e1\clock.h **** #define CLOCK_FDCANSELCLK           CLOCK_PLL0PHI
 878:C:/StellarStudio-7.1/SDKS/StellarESDK-1.8.0/Modules/Platform/Clock/include/sr5e1\clock.h **** 
 879:C:/StellarStudio-7.1/SDKS/StellarESDK-1.8.0/Modules/Platform/Clock/include/sr5e1\clock.h **** #else
 880:C:/StellarStudio-7.1/SDKS/StellarESDK-1.8.0/Modules/Platform/Clock/include/sr5e1\clock.h **** #error "invalid CLOCK_CFG_FDCANSEL value in clock_cfg.h"
 881:C:/StellarStudio-7.1/SDKS/StellarESDK-1.8.0/Modules/Platform/Clock/include/sr5e1\clock.h **** #endif
 882:C:/StellarStudio-7.1/SDKS/StellarESDK-1.8.0/Modules/Platform/Clock/include/sr5e1\clock.h **** 
 883:C:/StellarStudio-7.1/SDKS/StellarESDK-1.8.0/Modules/Platform/Clock/include/sr5e1\clock.h **** #if ((CLOCK_CFG_FDCANPRE_VALUE >= 0U) && (CLOCK_CFG_FDCANPRE_VALUE <= 31U))
 884:C:/StellarStudio-7.1/SDKS/StellarESDK-1.8.0/Modules/Platform/Clock/include/sr5e1\clock.h **** #define CLOCK_FDCANCLK              (CLOCK_FDCANSELCLK / (CLOCK_CFG_FDCANPRE_VALUE + 1U))
 885:C:/StellarStudio-7.1/SDKS/StellarESDK-1.8.0/Modules/Platform/Clock/include/sr5e1\clock.h **** #else
 886:C:/StellarStudio-7.1/SDKS/StellarESDK-1.8.0/Modules/Platform/Clock/include/sr5e1\clock.h **** #error "invalid CLOCK_CFG_FDCANPRE_VALUE value in clock_cfg.h"
 887:C:/StellarStudio-7.1/SDKS/StellarESDK-1.8.0/Modules/Platform/Clock/include/sr5e1\clock.h **** #endif
 888:C:/StellarStudio-7.1/SDKS/StellarESDK-1.8.0/Modules/Platform/Clock/include/sr5e1\clock.h **** 
 889:C:/StellarStudio-7.1/SDKS/StellarESDK-1.8.0/Modules/Platform/Clock/include/sr5e1\clock.h **** #if CLOCK_FDCANCLK > CLOCK_FDCANCLK_MAX
 890:C:/StellarStudio-7.1/SDKS/StellarESDK-1.8.0/Modules/Platform/Clock/include/sr5e1\clock.h **** #error "out of limits CLOCK_FDCANCLK value"
 891:C:/StellarStudio-7.1/SDKS/StellarESDK-1.8.0/Modules/Platform/Clock/include/sr5e1\clock.h **** #endif
 892:C:/StellarStudio-7.1/SDKS/StellarESDK-1.8.0/Modules/Platform/Clock/include/sr5e1\clock.h **** 
 893:C:/StellarStudio-7.1/SDKS/StellarESDK-1.8.0/Modules/Platform/Clock/include/sr5e1\clock.h **** /**
 894:C:/StellarStudio-7.1/SDKS/StellarESDK-1.8.0/Modules/Platform/Clock/include/sr5e1\clock.h ****  * @brief   ADC clock.
 895:C:/StellarStudio-7.1/SDKS/StellarESDK-1.8.0/Modules/Platform/Clock/include/sr5e1\clock.h ****  */
 896:C:/StellarStudio-7.1/SDKS/StellarESDK-1.8.0/Modules/Platform/Clock/include/sr5e1\clock.h **** #if (CLOCK_CFG_ADCSEL == CLOCK_ADCSEL_NOCLOCK) || defined(__DOXYGEN__)
 897:C:/StellarStudio-7.1/SDKS/StellarESDK-1.8.0/Modules/Platform/Clock/include/sr5e1\clock.h **** #define CLOCK_ADCSELCLK             0U
 898:C:/StellarStudio-7.1/SDKS/StellarESDK-1.8.0/Modules/Platform/Clock/include/sr5e1\clock.h **** 
 899:C:/StellarStudio-7.1/SDKS/StellarESDK-1.8.0/Modules/Platform/Clock/include/sr5e1\clock.h **** #elif CLOCK_CFG_ADCSEL == CLOCK_ADCSEL_XOSC
 900:C:/StellarStudio-7.1/SDKS/StellarESDK-1.8.0/Modules/Platform/Clock/include/sr5e1\clock.h **** #define CLOCK_ADCSELCLK             CLOCK_CFG_XOSCCLK
 901:C:/StellarStudio-7.1/SDKS/StellarESDK-1.8.0/Modules/Platform/Clock/include/sr5e1\clock.h **** 
 902:C:/StellarStudio-7.1/SDKS/StellarESDK-1.8.0/Modules/Platform/Clock/include/sr5e1\clock.h **** #elif CLOCK_CFG_ADCSEL == CLOCK_ADCSEL_PLL0PHI
 903:C:/StellarStudio-7.1/SDKS/StellarESDK-1.8.0/Modules/Platform/Clock/include/sr5e1\clock.h **** #define CLOCK_ADCSELCLK             CLOCK_PLL0PHI
 904:C:/StellarStudio-7.1/SDKS/StellarESDK-1.8.0/Modules/Platform/Clock/include/sr5e1\clock.h **** 
 905:C:/StellarStudio-7.1/SDKS/StellarESDK-1.8.0/Modules/Platform/Clock/include/sr5e1\clock.h **** #elif CLOCK_CFG_ADCSEL == CLOCK_ADCSEL_PLL1PHI
 906:C:/StellarStudio-7.1/SDKS/StellarESDK-1.8.0/Modules/Platform/Clock/include/sr5e1\clock.h **** #define CLOCK_ADCSELCLK             CLOCK_PLL1PHI
 907:C:/StellarStudio-7.1/SDKS/StellarESDK-1.8.0/Modules/Platform/Clock/include/sr5e1\clock.h **** 
 908:C:/StellarStudio-7.1/SDKS/StellarESDK-1.8.0/Modules/Platform/Clock/include/sr5e1\clock.h **** #else
 909:C:/StellarStudio-7.1/SDKS/StellarESDK-1.8.0/Modules/Platform/Clock/include/sr5e1\clock.h **** #error "invalid CLOCK_CFG_ADCSEL value in clock_cfg.h"
 910:C:/StellarStudio-7.1/SDKS/StellarESDK-1.8.0/Modules/Platform/Clock/include/sr5e1\clock.h **** #endif
 911:C:/StellarStudio-7.1/SDKS/StellarESDK-1.8.0/Modules/Platform/Clock/include/sr5e1\clock.h **** /* The range of values of ADCPRE must be verified */
 912:C:/StellarStudio-7.1/SDKS/StellarESDK-1.8.0/Modules/Platform/Clock/include/sr5e1\clock.h **** #if (CLOCK_CFG_ADCPRE_VALUE == 0U)
 913:C:/StellarStudio-7.1/SDKS/StellarESDK-1.8.0/Modules/Platform/Clock/include/sr5e1\clock.h **** #define CLOCK_ADCCLK                CLOCK_ADCSELCLK
 914:C:/StellarStudio-7.1/SDKS/StellarESDK-1.8.0/Modules/Platform/Clock/include/sr5e1\clock.h **** #elif ((CLOCK_CFG_ADCPRE_VALUE > 0U) && (CLOCK_CFG_ADCPRE_VALUE <= 63U))
 915:C:/StellarStudio-7.1/SDKS/StellarESDK-1.8.0/Modules/Platform/Clock/include/sr5e1\clock.h **** #define CLOCK_ADCCLK                (CLOCK_ADCSELCLK / (2U * CLOCK_CFG_ADCPRE_VALUE))
 916:C:/StellarStudio-7.1/SDKS/StellarESDK-1.8.0/Modules/Platform/Clock/include/sr5e1\clock.h **** #else
 917:C:/StellarStudio-7.1/SDKS/StellarESDK-1.8.0/Modules/Platform/Clock/include/sr5e1\clock.h **** #error "invalid CLOCK_CFG_ADCPRE_VALUE value in clock_cfg.h"
 918:C:/StellarStudio-7.1/SDKS/StellarESDK-1.8.0/Modules/Platform/Clock/include/sr5e1\clock.h **** #endif
 919:C:/StellarStudio-7.1/SDKS/StellarESDK-1.8.0/Modules/Platform/Clock/include/sr5e1\clock.h **** 
 920:C:/StellarStudio-7.1/SDKS/StellarESDK-1.8.0/Modules/Platform/Clock/include/sr5e1\clock.h **** #if CLOCK_ADCCLK > CLOCK_ADCCLK_MAX
 921:C:/StellarStudio-7.1/SDKS/StellarESDK-1.8.0/Modules/Platform/Clock/include/sr5e1\clock.h **** #error "out of limits CLOCK_ADCCLK value"
 922:C:/StellarStudio-7.1/SDKS/StellarESDK-1.8.0/Modules/Platform/Clock/include/sr5e1\clock.h **** #endif
 923:C:/StellarStudio-7.1/SDKS/StellarESDK-1.8.0/Modules/Platform/Clock/include/sr5e1\clock.h **** 
 924:C:/StellarStudio-7.1/SDKS/StellarESDK-1.8.0/Modules/Platform/Clock/include/sr5e1\clock.h **** #define CLOCK_ADC12CLK              CLOCK_ADCCLK
 925:C:/StellarStudio-7.1/SDKS/StellarESDK-1.8.0/Modules/Platform/Clock/include/sr5e1\clock.h **** #define CLOCK_ADC345CLK             CLOCK_ADCCLK
 926:C:/StellarStudio-7.1/SDKS/StellarESDK-1.8.0/Modules/Platform/Clock/include/sr5e1\clock.h **** 
 927:C:/StellarStudio-7.1/SDKS/StellarESDK-1.8.0/Modules/Platform/Clock/include/sr5e1\clock.h **** /**
 928:C:/StellarStudio-7.1/SDKS/StellarESDK-1.8.0/Modules/Platform/Clock/include/sr5e1\clock.h ****  * @brief   SDADC clock.
 929:C:/StellarStudio-7.1/SDKS/StellarESDK-1.8.0/Modules/Platform/Clock/include/sr5e1\clock.h ****  */
 930:C:/StellarStudio-7.1/SDKS/StellarESDK-1.8.0/Modules/Platform/Clock/include/sr5e1\clock.h **** #if (CLOCK_CFG_SDADCSEL == CLOCK_SDADCSEL_NOCLOCK) || defined(__DOXYGEN__)
 931:C:/StellarStudio-7.1/SDKS/StellarESDK-1.8.0/Modules/Platform/Clock/include/sr5e1\clock.h **** #define CLOCK_SDADCSELCLK           0U
 932:C:/StellarStudio-7.1/SDKS/StellarESDK-1.8.0/Modules/Platform/Clock/include/sr5e1\clock.h **** 
 933:C:/StellarStudio-7.1/SDKS/StellarESDK-1.8.0/Modules/Platform/Clock/include/sr5e1\clock.h **** #elif CLOCK_CFG_SDADCSEL == CLOCK_SDADCSEL_XOSC
 934:C:/StellarStudio-7.1/SDKS/StellarESDK-1.8.0/Modules/Platform/Clock/include/sr5e1\clock.h **** #define CLOCK_SDADCSELCLK           CLOCK_CFG_XOSCCLK
 935:C:/StellarStudio-7.1/SDKS/StellarESDK-1.8.0/Modules/Platform/Clock/include/sr5e1\clock.h **** 
 936:C:/StellarStudio-7.1/SDKS/StellarESDK-1.8.0/Modules/Platform/Clock/include/sr5e1\clock.h **** #elif CLOCK_CFG_SDADCSEL == CLOCK_SDADCSEL_PLL0PHI
 937:C:/StellarStudio-7.1/SDKS/StellarESDK-1.8.0/Modules/Platform/Clock/include/sr5e1\clock.h **** #define CLOCK_SDADCSELCLK           CLOCK_PLL0PHI
 938:C:/StellarStudio-7.1/SDKS/StellarESDK-1.8.0/Modules/Platform/Clock/include/sr5e1\clock.h **** 
 939:C:/StellarStudio-7.1/SDKS/StellarESDK-1.8.0/Modules/Platform/Clock/include/sr5e1\clock.h **** #elif CLOCK_CFG_SDADCSEL == CLOCK_SDADCSEL_PLL1PHI
 940:C:/StellarStudio-7.1/SDKS/StellarESDK-1.8.0/Modules/Platform/Clock/include/sr5e1\clock.h **** #define CLOCK_SDADCSELCLK           CLOCK_PLL1PHI
 941:C:/StellarStudio-7.1/SDKS/StellarESDK-1.8.0/Modules/Platform/Clock/include/sr5e1\clock.h **** 
 942:C:/StellarStudio-7.1/SDKS/StellarESDK-1.8.0/Modules/Platform/Clock/include/sr5e1\clock.h **** #else
 943:C:/StellarStudio-7.1/SDKS/StellarESDK-1.8.0/Modules/Platform/Clock/include/sr5e1\clock.h **** #error "invalid CLOCK_CFG_SDADCSEL value in clock_cfg.h"
 944:C:/StellarStudio-7.1/SDKS/StellarESDK-1.8.0/Modules/Platform/Clock/include/sr5e1\clock.h **** #endif
 945:C:/StellarStudio-7.1/SDKS/StellarESDK-1.8.0/Modules/Platform/Clock/include/sr5e1\clock.h **** /* The range of values of SDADCPRE must be verified */
 946:C:/StellarStudio-7.1/SDKS/StellarESDK-1.8.0/Modules/Platform/Clock/include/sr5e1\clock.h **** #if (CLOCK_CFG_SDADCPRE_VALUE == 0U)
 947:C:/StellarStudio-7.1/SDKS/StellarESDK-1.8.0/Modules/Platform/Clock/include/sr5e1\clock.h **** #define CLOCK_SDADCCLK              CLOCK_SDADCSELCLK
 948:C:/StellarStudio-7.1/SDKS/StellarESDK-1.8.0/Modules/Platform/Clock/include/sr5e1\clock.h **** #elif ((CLOCK_CFG_SDADCPRE_VALUE > 0U) && (CLOCK_CFG_SDADCPRE_VALUE <= 63U))
 949:C:/StellarStudio-7.1/SDKS/StellarESDK-1.8.0/Modules/Platform/Clock/include/sr5e1\clock.h **** #define CLOCK_SDADCCLK              (CLOCK_SDADCSELCLK / (2U * CLOCK_CFG_SDADCPRE_VALUE))
 950:C:/StellarStudio-7.1/SDKS/StellarESDK-1.8.0/Modules/Platform/Clock/include/sr5e1\clock.h **** #else
 951:C:/StellarStudio-7.1/SDKS/StellarESDK-1.8.0/Modules/Platform/Clock/include/sr5e1\clock.h **** #error "invalid CLOCK_CFG_SDADCPRE_VALUE value in clock_cfg.h"
 952:C:/StellarStudio-7.1/SDKS/StellarESDK-1.8.0/Modules/Platform/Clock/include/sr5e1\clock.h **** #endif
 953:C:/StellarStudio-7.1/SDKS/StellarESDK-1.8.0/Modules/Platform/Clock/include/sr5e1\clock.h **** 
 954:C:/StellarStudio-7.1/SDKS/StellarESDK-1.8.0/Modules/Platform/Clock/include/sr5e1\clock.h **** #if CLOCK_SDADCCLK > CLOCK_SDADCCLK_MAX
 955:C:/StellarStudio-7.1/SDKS/StellarESDK-1.8.0/Modules/Platform/Clock/include/sr5e1\clock.h **** #error "out of limits CLOCK_SDADCCLK value"
 956:C:/StellarStudio-7.1/SDKS/StellarESDK-1.8.0/Modules/Platform/Clock/include/sr5e1\clock.h **** #endif
 957:C:/StellarStudio-7.1/SDKS/StellarESDK-1.8.0/Modules/Platform/Clock/include/sr5e1\clock.h **** 
 958:C:/StellarStudio-7.1/SDKS/StellarESDK-1.8.0/Modules/Platform/Clock/include/sr5e1\clock.h **** /* Flash wait state (APC = 0) settings.*/
 959:C:/StellarStudio-7.1/SDKS/StellarESDK-1.8.0/Modules/Platform/Clock/include/sr5e1\clock.h **** #if (CLOCK_SYSCLKDIV <= 34000000UL) || defined(__DOXYGEN__)
 960:C:/StellarStudio-7.1/SDKS/StellarESDK-1.8.0/Modules/Platform/Clock/include/sr5e1\clock.h **** #define CLOCK_NVMRWSC_VALUE         1U /* 0 < core frequency <= 34MHz       */
 961:C:/StellarStudio-7.1/SDKS/StellarESDK-1.8.0/Modules/Platform/Clock/include/sr5e1\clock.h **** 
 962:C:/StellarStudio-7.1/SDKS/StellarESDK-1.8.0/Modules/Platform/Clock/include/sr5e1\clock.h **** #elif (CLOCK_SYSCLKDIV <= 68000000UL)
 963:C:/StellarStudio-7.1/SDKS/StellarESDK-1.8.0/Modules/Platform/Clock/include/sr5e1\clock.h **** #define CLOCK_NVMRWSC_VALUE         2U /* 34MHz < core frequency <= 68MHz   */
 964:C:/StellarStudio-7.1/SDKS/StellarESDK-1.8.0/Modules/Platform/Clock/include/sr5e1\clock.h **** 
 965:C:/StellarStudio-7.1/SDKS/StellarESDK-1.8.0/Modules/Platform/Clock/include/sr5e1\clock.h **** #elif (CLOCK_SYSCLKDIV <= 136000000UL)
 966:C:/StellarStudio-7.1/SDKS/StellarESDK-1.8.0/Modules/Platform/Clock/include/sr5e1\clock.h **** #define CLOCK_NVMRWSC_VALUE         3U /* 68MHz < core frequency <= 136MHz  */
 967:C:/StellarStudio-7.1/SDKS/StellarESDK-1.8.0/Modules/Platform/Clock/include/sr5e1\clock.h **** 
 968:C:/StellarStudio-7.1/SDKS/StellarESDK-1.8.0/Modules/Platform/Clock/include/sr5e1\clock.h **** #elif (CLOCK_SYSCLKDIV <= 170000000UL)
 969:C:/StellarStudio-7.1/SDKS/StellarESDK-1.8.0/Modules/Platform/Clock/include/sr5e1\clock.h **** #define CLOCK_NVMRWSC_VALUE         4U /* 136MHz < core frequency <= 170MHz */
 970:C:/StellarStudio-7.1/SDKS/StellarESDK-1.8.0/Modules/Platform/Clock/include/sr5e1\clock.h **** 
 971:C:/StellarStudio-7.1/SDKS/StellarESDK-1.8.0/Modules/Platform/Clock/include/sr5e1\clock.h **** #elif (CLOCK_SYSCLKDIV <= 204000000UL)
 972:C:/StellarStudio-7.1/SDKS/StellarESDK-1.8.0/Modules/Platform/Clock/include/sr5e1\clock.h **** #define CLOCK_NVMRWSC_VALUE         5U /* 170MHz < core frequency <= 204MHz */
 973:C:/StellarStudio-7.1/SDKS/StellarESDK-1.8.0/Modules/Platform/Clock/include/sr5e1\clock.h **** 
 974:C:/StellarStudio-7.1/SDKS/StellarESDK-1.8.0/Modules/Platform/Clock/include/sr5e1\clock.h **** #elif (CLOCK_SYSCLKDIV <= 238000000UL)
 975:C:/StellarStudio-7.1/SDKS/StellarESDK-1.8.0/Modules/Platform/Clock/include/sr5e1\clock.h **** #define CLOCK_NVMRWSC_VALUE         6U /* 204MHz < core frequency <= 238MHz */
 976:C:/StellarStudio-7.1/SDKS/StellarESDK-1.8.0/Modules/Platform/Clock/include/sr5e1\clock.h **** 
 977:C:/StellarStudio-7.1/SDKS/StellarESDK-1.8.0/Modules/Platform/Clock/include/sr5e1\clock.h **** #elif (CLOCK_SYSCLKDIV <= 273000000UL)
 978:C:/StellarStudio-7.1/SDKS/StellarESDK-1.8.0/Modules/Platform/Clock/include/sr5e1\clock.h **** #define CLOCK_NVMRWSC_VALUE         7U /* 238MHz < core frequency <= 273MHz */
 979:C:/StellarStudio-7.1/SDKS/StellarESDK-1.8.0/Modules/Platform/Clock/include/sr5e1\clock.h **** 
 980:C:/StellarStudio-7.1/SDKS/StellarESDK-1.8.0/Modules/Platform/Clock/include/sr5e1\clock.h **** #else
 981:C:/StellarStudio-7.1/SDKS/StellarESDK-1.8.0/Modules/Platform/Clock/include/sr5e1\clock.h **** #define CLOCK_NVMRWSC_VALUE         8U /* 273MHz < core frequency <= 307MHz */
 982:C:/StellarStudio-7.1/SDKS/StellarESDK-1.8.0/Modules/Platform/Clock/include/sr5e1\clock.h **** 
 983:C:/StellarStudio-7.1/SDKS/StellarESDK-1.8.0/Modules/Platform/Clock/include/sr5e1\clock.h **** #endif
 984:C:/StellarStudio-7.1/SDKS/StellarESDK-1.8.0/Modules/Platform/Clock/include/sr5e1\clock.h **** 
 985:C:/StellarStudio-7.1/SDKS/StellarESDK-1.8.0/Modules/Platform/Clock/include/sr5e1\clock.h **** /*===========================================================================*/
 986:C:/StellarStudio-7.1/SDKS/StellarESDK-1.8.0/Modules/Platform/Clock/include/sr5e1\clock.h **** /* Module data structures and types.                                         */
 987:C:/StellarStudio-7.1/SDKS/StellarESDK-1.8.0/Modules/Platform/Clock/include/sr5e1\clock.h **** /*===========================================================================*/
 988:C:/StellarStudio-7.1/SDKS/StellarESDK-1.8.0/Modules/Platform/Clock/include/sr5e1\clock.h **** 
 989:C:/StellarStudio-7.1/SDKS/StellarESDK-1.8.0/Modules/Platform/Clock/include/sr5e1\clock.h **** /*===========================================================================*/
 990:C:/StellarStudio-7.1/SDKS/StellarESDK-1.8.0/Modules/Platform/Clock/include/sr5e1\clock.h **** /* Module macros.                                                            */
 991:C:/StellarStudio-7.1/SDKS/StellarESDK-1.8.0/Modules/Platform/Clock/include/sr5e1\clock.h **** /*===========================================================================*/
 992:C:/StellarStudio-7.1/SDKS/StellarESDK-1.8.0/Modules/Platform/Clock/include/sr5e1\clock.h **** 
 993:C:/StellarStudio-7.1/SDKS/StellarESDK-1.8.0/Modules/Platform/Clock/include/sr5e1\clock.h **** /*===========================================================================*/
 994:C:/StellarStudio-7.1/SDKS/StellarESDK-1.8.0/Modules/Platform/Clock/include/sr5e1\clock.h **** /* External declarations.                                                    */
 995:C:/StellarStudio-7.1/SDKS/StellarESDK-1.8.0/Modules/Platform/Clock/include/sr5e1\clock.h **** /*===========================================================================*/
 996:C:/StellarStudio-7.1/SDKS/StellarESDK-1.8.0/Modules/Platform/Clock/include/sr5e1\clock.h **** 
 997:C:/StellarStudio-7.1/SDKS/StellarESDK-1.8.0/Modules/Platform/Clock/include/sr5e1\clock.h **** /**
 998:C:/StellarStudio-7.1/SDKS/StellarESDK-1.8.0/Modules/Platform/Clock/include/sr5e1\clock.h ****  * @brief   CMSIS system core clock variable.
 999:C:/StellarStudio-7.1/SDKS/StellarESDK-1.8.0/Modules/Platform/Clock/include/sr5e1\clock.h ****  */
1000:C:/StellarStudio-7.1/SDKS/StellarESDK-1.8.0/Modules/Platform/Clock/include/sr5e1\clock.h **** extern uint32_t SystemCoreClock;
1001:C:/StellarStudio-7.1/SDKS/StellarESDK-1.8.0/Modules/Platform/Clock/include/sr5e1\clock.h **** 
1002:C:/StellarStudio-7.1/SDKS/StellarESDK-1.8.0/Modules/Platform/Clock/include/sr5e1\clock.h **** #ifdef __cplusplus
1003:C:/StellarStudio-7.1/SDKS/StellarESDK-1.8.0/Modules/Platform/Clock/include/sr5e1\clock.h **** extern "C" {
1004:C:/StellarStudio-7.1/SDKS/StellarESDK-1.8.0/Modules/Platform/Clock/include/sr5e1\clock.h **** #endif
1005:C:/StellarStudio-7.1/SDKS/StellarESDK-1.8.0/Modules/Platform/Clock/include/sr5e1\clock.h **** 
1006:C:/StellarStudio-7.1/SDKS/StellarESDK-1.8.0/Modules/Platform/Clock/include/sr5e1\clock.h **** /**
1007:C:/StellarStudio-7.1/SDKS/StellarESDK-1.8.0/Modules/Platform/Clock/include/sr5e1\clock.h ****  * @brief   Initializes clock
1008:C:/StellarStudio-7.1/SDKS/StellarESDK-1.8.0/Modules/Platform/Clock/include/sr5e1\clock.h ****  *
1009:C:/StellarStudio-7.1/SDKS/StellarESDK-1.8.0/Modules/Platform/Clock/include/sr5e1\clock.h ****  * @api
1010:C:/StellarStudio-7.1/SDKS/StellarESDK-1.8.0/Modules/Platform/Clock/include/sr5e1\clock.h ****  */
1011:C:/StellarStudio-7.1/SDKS/StellarESDK-1.8.0/Modules/Platform/Clock/include/sr5e1\clock.h **** void clock_init(void);
1012:C:/StellarStudio-7.1/SDKS/StellarESDK-1.8.0/Modules/Platform/Clock/include/sr5e1\clock.h **** 
1013:C:/StellarStudio-7.1/SDKS/StellarESDK-1.8.0/Modules/Platform/Clock/include/sr5e1\clock.h **** /*===========================================================================*/
1014:C:/StellarStudio-7.1/SDKS/StellarESDK-1.8.0/Modules/Platform/Clock/include/sr5e1\clock.h **** /* Module inline functions.                                                  */
1015:C:/StellarStudio-7.1/SDKS/StellarESDK-1.8.0/Modules/Platform/Clock/include/sr5e1\clock.h **** /*===========================================================================*/
1016:C:/StellarStudio-7.1/SDKS/StellarESDK-1.8.0/Modules/Platform/Clock/include/sr5e1\clock.h **** 
1017:C:/StellarStudio-7.1/SDKS/StellarESDK-1.8.0/Modules/Platform/Clock/include/sr5e1\clock.h **** /**
1018:C:/StellarStudio-7.1/SDKS/StellarESDK-1.8.0/Modules/Platform/Clock/include/sr5e1\clock.h ****  * @brief   Enables AHB1 peripherals clock [Low Word]
1019:C:/StellarStudio-7.1/SDKS/StellarESDK-1.8.0/Modules/Platform/Clock/include/sr5e1\clock.h ****  *
1020:C:/StellarStudio-7.1/SDKS/StellarESDK-1.8.0/Modules/Platform/Clock/include/sr5e1\clock.h ****  * @param[in] smode     sleep mode (if true, peripheral clock is enabled in
1021:C:/StellarStudio-7.1/SDKS/StellarESDK-1.8.0/Modules/Platform/Clock/include/sr5e1\clock.h ****  *                      sleep mode)
1022:C:/StellarStudio-7.1/SDKS/StellarESDK-1.8.0/Modules/Platform/Clock/include/sr5e1\clock.h ****  * @param[in] m         peripheral clock to be enabled
1023:C:/StellarStudio-7.1/SDKS/StellarESDK-1.8.0/Modules/Platform/Clock/include/sr5e1\clock.h ****  * @return              value of register AHB1LENR after the update
1024:C:/StellarStudio-7.1/SDKS/StellarESDK-1.8.0/Modules/Platform/Clock/include/sr5e1\clock.h ****  *
1025:C:/StellarStudio-7.1/SDKS/StellarESDK-1.8.0/Modules/Platform/Clock/include/sr5e1\clock.h ****  * @api
1026:C:/StellarStudio-7.1/SDKS/StellarESDK-1.8.0/Modules/Platform/Clock/include/sr5e1\clock.h ****  */
1027:C:/StellarStudio-7.1/SDKS/StellarESDK-1.8.0/Modules/Platform/Clock/include/sr5e1\clock.h **** __STATIC_FORCEINLINE uint32_t clock_enable_AHB1L(bool smode, uint32_t m) {
1028:C:/StellarStudio-7.1/SDKS/StellarESDK-1.8.0/Modules/Platform/Clock/include/sr5e1\clock.h **** 
1029:C:/StellarStudio-7.1/SDKS/StellarESDK-1.8.0/Modules/Platform/Clock/include/sr5e1\clock.h ****     RCC->AHB1LENR |= m;
1030:C:/StellarStudio-7.1/SDKS/StellarESDK-1.8.0/Modules/Platform/Clock/include/sr5e1\clock.h ****     if (smode) {
1031:C:/StellarStudio-7.1/SDKS/StellarESDK-1.8.0/Modules/Platform/Clock/include/sr5e1\clock.h ****         RCC->C1_AHB1LSMENR |= m;
1032:C:/StellarStudio-7.1/SDKS/StellarESDK-1.8.0/Modules/Platform/Clock/include/sr5e1\clock.h **** #if CLOCK_CFG_SMP_MODE == TRUE
1033:C:/StellarStudio-7.1/SDKS/StellarESDK-1.8.0/Modules/Platform/Clock/include/sr5e1\clock.h ****         RCC->C2_AHB1LSMENR |= m;
1034:C:/StellarStudio-7.1/SDKS/StellarESDK-1.8.0/Modules/Platform/Clock/include/sr5e1\clock.h **** #endif
1035:C:/StellarStudio-7.1/SDKS/StellarESDK-1.8.0/Modules/Platform/Clock/include/sr5e1\clock.h ****     }
1036:C:/StellarStudio-7.1/SDKS/StellarESDK-1.8.0/Modules/Platform/Clock/include/sr5e1\clock.h ****     else {
1037:C:/StellarStudio-7.1/SDKS/StellarESDK-1.8.0/Modules/Platform/Clock/include/sr5e1\clock.h ****         RCC->C1_AHB1LSMENR &= ~m;
1038:C:/StellarStudio-7.1/SDKS/StellarESDK-1.8.0/Modules/Platform/Clock/include/sr5e1\clock.h **** #if CLOCK_CFG_SMP_MODE == TRUE
1039:C:/StellarStudio-7.1/SDKS/StellarESDK-1.8.0/Modules/Platform/Clock/include/sr5e1\clock.h ****         RCC->C2_AHB1LSMENR &= ~m;
1040:C:/StellarStudio-7.1/SDKS/StellarESDK-1.8.0/Modules/Platform/Clock/include/sr5e1\clock.h **** #endif
1041:C:/StellarStudio-7.1/SDKS/StellarESDK-1.8.0/Modules/Platform/Clock/include/sr5e1\clock.h ****     }
1042:C:/StellarStudio-7.1/SDKS/StellarESDK-1.8.0/Modules/Platform/Clock/include/sr5e1\clock.h **** 
1043:C:/StellarStudio-7.1/SDKS/StellarESDK-1.8.0/Modules/Platform/Clock/include/sr5e1\clock.h ****     return RCC->AHB1LENR;
1044:C:/StellarStudio-7.1/SDKS/StellarESDK-1.8.0/Modules/Platform/Clock/include/sr5e1\clock.h **** }
1045:C:/StellarStudio-7.1/SDKS/StellarESDK-1.8.0/Modules/Platform/Clock/include/sr5e1\clock.h **** 
1046:C:/StellarStudio-7.1/SDKS/StellarESDK-1.8.0/Modules/Platform/Clock/include/sr5e1\clock.h **** /**
1047:C:/StellarStudio-7.1/SDKS/StellarESDK-1.8.0/Modules/Platform/Clock/include/sr5e1\clock.h ****  * @brief   Disables AHB1 peripherals clock [Low Word]
1048:C:/StellarStudio-7.1/SDKS/StellarESDK-1.8.0/Modules/Platform/Clock/include/sr5e1\clock.h ****  *
1049:C:/StellarStudio-7.1/SDKS/StellarESDK-1.8.0/Modules/Platform/Clock/include/sr5e1\clock.h ****  * @param[in] m         peripheral clock to be disabled
1050:C:/StellarStudio-7.1/SDKS/StellarESDK-1.8.0/Modules/Platform/Clock/include/sr5e1\clock.h ****  * @return              value of register AHB1LENR after the update
1051:C:/StellarStudio-7.1/SDKS/StellarESDK-1.8.0/Modules/Platform/Clock/include/sr5e1\clock.h ****  *
1052:C:/StellarStudio-7.1/SDKS/StellarESDK-1.8.0/Modules/Platform/Clock/include/sr5e1\clock.h ****  * @api
1053:C:/StellarStudio-7.1/SDKS/StellarESDK-1.8.0/Modules/Platform/Clock/include/sr5e1\clock.h ****  */
1054:C:/StellarStudio-7.1/SDKS/StellarESDK-1.8.0/Modules/Platform/Clock/include/sr5e1\clock.h **** __STATIC_FORCEINLINE uint32_t clock_disable_AHB1L(uint32_t m) {
1055:C:/StellarStudio-7.1/SDKS/StellarESDK-1.8.0/Modules/Platform/Clock/include/sr5e1\clock.h **** 
1056:C:/StellarStudio-7.1/SDKS/StellarESDK-1.8.0/Modules/Platform/Clock/include/sr5e1\clock.h ****     RCC->AHB1LENR &= ~m;
1057:C:/StellarStudio-7.1/SDKS/StellarESDK-1.8.0/Modules/Platform/Clock/include/sr5e1\clock.h ****     RCC->C1_AHB1LSMENR &= ~m;
1058:C:/StellarStudio-7.1/SDKS/StellarESDK-1.8.0/Modules/Platform/Clock/include/sr5e1\clock.h **** #if CLOCK_CFG_SMP_MODE == TRUE
1059:C:/StellarStudio-7.1/SDKS/StellarESDK-1.8.0/Modules/Platform/Clock/include/sr5e1\clock.h ****     RCC->C2_AHB1LSMENR &= ~m;
1060:C:/StellarStudio-7.1/SDKS/StellarESDK-1.8.0/Modules/Platform/Clock/include/sr5e1\clock.h **** #endif
1061:C:/StellarStudio-7.1/SDKS/StellarESDK-1.8.0/Modules/Platform/Clock/include/sr5e1\clock.h **** 
1062:C:/StellarStudio-7.1/SDKS/StellarESDK-1.8.0/Modules/Platform/Clock/include/sr5e1\clock.h ****     return RCC->AHB1LENR;
1063:C:/StellarStudio-7.1/SDKS/StellarESDK-1.8.0/Modules/Platform/Clock/include/sr5e1\clock.h **** }
1064:C:/StellarStudio-7.1/SDKS/StellarESDK-1.8.0/Modules/Platform/Clock/include/sr5e1\clock.h **** 
1065:C:/StellarStudio-7.1/SDKS/StellarESDK-1.8.0/Modules/Platform/Clock/include/sr5e1\clock.h **** /**
1066:C:/StellarStudio-7.1/SDKS/StellarESDK-1.8.0/Modules/Platform/Clock/include/sr5e1\clock.h ****  * @brief   Checks if AHB1 peripheral clock [Low Word] is enabled
1067:C:/StellarStudio-7.1/SDKS/StellarESDK-1.8.0/Modules/Platform/Clock/include/sr5e1\clock.h ****  *
1068:C:/StellarStudio-7.1/SDKS/StellarESDK-1.8.0/Modules/Platform/Clock/include/sr5e1\clock.h ****  * @param[in] m         peripheral clock to be checked
1069:C:/StellarStudio-7.1/SDKS/StellarESDK-1.8.0/Modules/Platform/Clock/include/sr5e1\clock.h ****  * @return              true if the clock is enabled, false otherwise
1070:C:/StellarStudio-7.1/SDKS/StellarESDK-1.8.0/Modules/Platform/Clock/include/sr5e1\clock.h ****  *
1071:C:/StellarStudio-7.1/SDKS/StellarESDK-1.8.0/Modules/Platform/Clock/include/sr5e1\clock.h ****  * @api
1072:C:/StellarStudio-7.1/SDKS/StellarESDK-1.8.0/Modules/Platform/Clock/include/sr5e1\clock.h ****  */
1073:C:/StellarStudio-7.1/SDKS/StellarESDK-1.8.0/Modules/Platform/Clock/include/sr5e1\clock.h **** __STATIC_FORCEINLINE bool is_clock_enable_AHB1L(uint32_t m) {
1074:C:/StellarStudio-7.1/SDKS/StellarESDK-1.8.0/Modules/Platform/Clock/include/sr5e1\clock.h **** 
1075:C:/StellarStudio-7.1/SDKS/StellarESDK-1.8.0/Modules/Platform/Clock/include/sr5e1\clock.h ****     return (((RCC->AHB1LENR & m) == m) ? true : false);
1076:C:/StellarStudio-7.1/SDKS/StellarESDK-1.8.0/Modules/Platform/Clock/include/sr5e1\clock.h **** }
1077:C:/StellarStudio-7.1/SDKS/StellarESDK-1.8.0/Modules/Platform/Clock/include/sr5e1\clock.h **** 
1078:C:/StellarStudio-7.1/SDKS/StellarESDK-1.8.0/Modules/Platform/Clock/include/sr5e1\clock.h **** /**
1079:C:/StellarStudio-7.1/SDKS/StellarESDK-1.8.0/Modules/Platform/Clock/include/sr5e1\clock.h ****  * @brief   Resets AHB1 peripherals [Low Word]
1080:C:/StellarStudio-7.1/SDKS/StellarESDK-1.8.0/Modules/Platform/Clock/include/sr5e1\clock.h ****  *
1081:C:/StellarStudio-7.1/SDKS/StellarESDK-1.8.0/Modules/Platform/Clock/include/sr5e1\clock.h ****  * @param[in] m         peripheral to reset
1082:C:/StellarStudio-7.1/SDKS/StellarESDK-1.8.0/Modules/Platform/Clock/include/sr5e1\clock.h ****  *
1083:C:/StellarStudio-7.1/SDKS/StellarESDK-1.8.0/Modules/Platform/Clock/include/sr5e1\clock.h ****  * @api
1084:C:/StellarStudio-7.1/SDKS/StellarESDK-1.8.0/Modules/Platform/Clock/include/sr5e1\clock.h ****  */
1085:C:/StellarStudio-7.1/SDKS/StellarESDK-1.8.0/Modules/Platform/Clock/include/sr5e1\clock.h **** __STATIC_FORCEINLINE void clock_reset_AHB1L(uint32_t m) {
1086:C:/StellarStudio-7.1/SDKS/StellarESDK-1.8.0/Modules/Platform/Clock/include/sr5e1\clock.h **** 
1087:C:/StellarStudio-7.1/SDKS/StellarESDK-1.8.0/Modules/Platform/Clock/include/sr5e1\clock.h ****     RCC->AHB1LRSTR |= m;
1088:C:/StellarStudio-7.1/SDKS/StellarESDK-1.8.0/Modules/Platform/Clock/include/sr5e1\clock.h ****     RCC->AHB1LRSTR &= ~m;
1089:C:/StellarStudio-7.1/SDKS/StellarESDK-1.8.0/Modules/Platform/Clock/include/sr5e1\clock.h ****     (void)RCC->AHB1LRSTR;
1090:C:/StellarStudio-7.1/SDKS/StellarESDK-1.8.0/Modules/Platform/Clock/include/sr5e1\clock.h **** }
1091:C:/StellarStudio-7.1/SDKS/StellarESDK-1.8.0/Modules/Platform/Clock/include/sr5e1\clock.h **** 
1092:C:/StellarStudio-7.1/SDKS/StellarESDK-1.8.0/Modules/Platform/Clock/include/sr5e1\clock.h **** /**
1093:C:/StellarStudio-7.1/SDKS/StellarESDK-1.8.0/Modules/Platform/Clock/include/sr5e1\clock.h ****  * @brief   Enables AHB1 peripherals clock [High Word]
1094:C:/StellarStudio-7.1/SDKS/StellarESDK-1.8.0/Modules/Platform/Clock/include/sr5e1\clock.h ****  *
1095:C:/StellarStudio-7.1/SDKS/StellarESDK-1.8.0/Modules/Platform/Clock/include/sr5e1\clock.h ****  * @param[in] smode     sleep mode (if true, peripheral clock is enabled in
1096:C:/StellarStudio-7.1/SDKS/StellarESDK-1.8.0/Modules/Platform/Clock/include/sr5e1\clock.h ****  *                      sleep mode)
1097:C:/StellarStudio-7.1/SDKS/StellarESDK-1.8.0/Modules/Platform/Clock/include/sr5e1\clock.h ****  * @param[in] m         peripheral clock to be enabled
1098:C:/StellarStudio-7.1/SDKS/StellarESDK-1.8.0/Modules/Platform/Clock/include/sr5e1\clock.h ****  * @return              value of register AHB1HENR after the update
1099:C:/StellarStudio-7.1/SDKS/StellarESDK-1.8.0/Modules/Platform/Clock/include/sr5e1\clock.h ****  *
1100:C:/StellarStudio-7.1/SDKS/StellarESDK-1.8.0/Modules/Platform/Clock/include/sr5e1\clock.h ****  * @api
1101:C:/StellarStudio-7.1/SDKS/StellarESDK-1.8.0/Modules/Platform/Clock/include/sr5e1\clock.h ****  */
1102:C:/StellarStudio-7.1/SDKS/StellarESDK-1.8.0/Modules/Platform/Clock/include/sr5e1\clock.h **** __STATIC_FORCEINLINE uint32_t clock_enable_AHB1H(bool smode, uint32_t m) {
1103:C:/StellarStudio-7.1/SDKS/StellarESDK-1.8.0/Modules/Platform/Clock/include/sr5e1\clock.h **** 
1104:C:/StellarStudio-7.1/SDKS/StellarESDK-1.8.0/Modules/Platform/Clock/include/sr5e1\clock.h ****     RCC->AHB1HENR |= m;
1105:C:/StellarStudio-7.1/SDKS/StellarESDK-1.8.0/Modules/Platform/Clock/include/sr5e1\clock.h ****     if (smode) {
1106:C:/StellarStudio-7.1/SDKS/StellarESDK-1.8.0/Modules/Platform/Clock/include/sr5e1\clock.h ****         RCC->C1_AHB1HSMENR |= m;
1107:C:/StellarStudio-7.1/SDKS/StellarESDK-1.8.0/Modules/Platform/Clock/include/sr5e1\clock.h **** #if CLOCK_CFG_SMP_MODE == TRUE
1108:C:/StellarStudio-7.1/SDKS/StellarESDK-1.8.0/Modules/Platform/Clock/include/sr5e1\clock.h ****         RCC->C2_AHB1HSMENR |= m;
1109:C:/StellarStudio-7.1/SDKS/StellarESDK-1.8.0/Modules/Platform/Clock/include/sr5e1\clock.h **** #endif
1110:C:/StellarStudio-7.1/SDKS/StellarESDK-1.8.0/Modules/Platform/Clock/include/sr5e1\clock.h ****     }
1111:C:/StellarStudio-7.1/SDKS/StellarESDK-1.8.0/Modules/Platform/Clock/include/sr5e1\clock.h ****     else {
1112:C:/StellarStudio-7.1/SDKS/StellarESDK-1.8.0/Modules/Platform/Clock/include/sr5e1\clock.h ****         RCC->C1_AHB1HSMENR &= ~m;
1113:C:/StellarStudio-7.1/SDKS/StellarESDK-1.8.0/Modules/Platform/Clock/include/sr5e1\clock.h **** #if CLOCK_CFG_SMP_MODE == TRUE
1114:C:/StellarStudio-7.1/SDKS/StellarESDK-1.8.0/Modules/Platform/Clock/include/sr5e1\clock.h ****         RCC->C2_AHB1HSMENR &= ~m;
1115:C:/StellarStudio-7.1/SDKS/StellarESDK-1.8.0/Modules/Platform/Clock/include/sr5e1\clock.h **** #endif
1116:C:/StellarStudio-7.1/SDKS/StellarESDK-1.8.0/Modules/Platform/Clock/include/sr5e1\clock.h ****     }
1117:C:/StellarStudio-7.1/SDKS/StellarESDK-1.8.0/Modules/Platform/Clock/include/sr5e1\clock.h **** 
1118:C:/StellarStudio-7.1/SDKS/StellarESDK-1.8.0/Modules/Platform/Clock/include/sr5e1\clock.h ****     return RCC->AHB1HENR;
1119:C:/StellarStudio-7.1/SDKS/StellarESDK-1.8.0/Modules/Platform/Clock/include/sr5e1\clock.h **** }
1120:C:/StellarStudio-7.1/SDKS/StellarESDK-1.8.0/Modules/Platform/Clock/include/sr5e1\clock.h **** 
1121:C:/StellarStudio-7.1/SDKS/StellarESDK-1.8.0/Modules/Platform/Clock/include/sr5e1\clock.h **** /**
1122:C:/StellarStudio-7.1/SDKS/StellarESDK-1.8.0/Modules/Platform/Clock/include/sr5e1\clock.h ****  * @brief   Disables AHB1 peripherals clock [High Word]
1123:C:/StellarStudio-7.1/SDKS/StellarESDK-1.8.0/Modules/Platform/Clock/include/sr5e1\clock.h ****  *
1124:C:/StellarStudio-7.1/SDKS/StellarESDK-1.8.0/Modules/Platform/Clock/include/sr5e1\clock.h ****  * @param[in] m         peripheral clock to be disabled
1125:C:/StellarStudio-7.1/SDKS/StellarESDK-1.8.0/Modules/Platform/Clock/include/sr5e1\clock.h ****  * @return              value of register AHB1HENR after the update
1126:C:/StellarStudio-7.1/SDKS/StellarESDK-1.8.0/Modules/Platform/Clock/include/sr5e1\clock.h ****  *
1127:C:/StellarStudio-7.1/SDKS/StellarESDK-1.8.0/Modules/Platform/Clock/include/sr5e1\clock.h ****  * @api
1128:C:/StellarStudio-7.1/SDKS/StellarESDK-1.8.0/Modules/Platform/Clock/include/sr5e1\clock.h ****  */
1129:C:/StellarStudio-7.1/SDKS/StellarESDK-1.8.0/Modules/Platform/Clock/include/sr5e1\clock.h **** __STATIC_FORCEINLINE uint32_t clock_disable_AHB1H(uint32_t m) {
1130:C:/StellarStudio-7.1/SDKS/StellarESDK-1.8.0/Modules/Platform/Clock/include/sr5e1\clock.h **** 
1131:C:/StellarStudio-7.1/SDKS/StellarESDK-1.8.0/Modules/Platform/Clock/include/sr5e1\clock.h ****     RCC->AHB1HENR &= ~m;
1132:C:/StellarStudio-7.1/SDKS/StellarESDK-1.8.0/Modules/Platform/Clock/include/sr5e1\clock.h ****     RCC->C1_AHB1HSMENR &= ~m;
1133:C:/StellarStudio-7.1/SDKS/StellarESDK-1.8.0/Modules/Platform/Clock/include/sr5e1\clock.h **** #if CLOCK_CFG_SMP_MODE == TRUE
1134:C:/StellarStudio-7.1/SDKS/StellarESDK-1.8.0/Modules/Platform/Clock/include/sr5e1\clock.h ****     RCC->C2_AHB1HSMENR &= ~m;
1135:C:/StellarStudio-7.1/SDKS/StellarESDK-1.8.0/Modules/Platform/Clock/include/sr5e1\clock.h **** #endif
1136:C:/StellarStudio-7.1/SDKS/StellarESDK-1.8.0/Modules/Platform/Clock/include/sr5e1\clock.h **** 
1137:C:/StellarStudio-7.1/SDKS/StellarESDK-1.8.0/Modules/Platform/Clock/include/sr5e1\clock.h ****     return RCC->AHB1HENR;
1138:C:/StellarStudio-7.1/SDKS/StellarESDK-1.8.0/Modules/Platform/Clock/include/sr5e1\clock.h **** }
1139:C:/StellarStudio-7.1/SDKS/StellarESDK-1.8.0/Modules/Platform/Clock/include/sr5e1\clock.h **** 
1140:C:/StellarStudio-7.1/SDKS/StellarESDK-1.8.0/Modules/Platform/Clock/include/sr5e1\clock.h **** /**
1141:C:/StellarStudio-7.1/SDKS/StellarESDK-1.8.0/Modules/Platform/Clock/include/sr5e1\clock.h ****  * @brief   Checks if AHB1 peripheral clock [High Word] is enabled
1142:C:/StellarStudio-7.1/SDKS/StellarESDK-1.8.0/Modules/Platform/Clock/include/sr5e1\clock.h ****  *
1143:C:/StellarStudio-7.1/SDKS/StellarESDK-1.8.0/Modules/Platform/Clock/include/sr5e1\clock.h ****  * @param[in] m         peripheral clock to be checked
1144:C:/StellarStudio-7.1/SDKS/StellarESDK-1.8.0/Modules/Platform/Clock/include/sr5e1\clock.h ****  * @return              true if the clock is enabled, false otherwise
1145:C:/StellarStudio-7.1/SDKS/StellarESDK-1.8.0/Modules/Platform/Clock/include/sr5e1\clock.h ****  *
1146:C:/StellarStudio-7.1/SDKS/StellarESDK-1.8.0/Modules/Platform/Clock/include/sr5e1\clock.h ****  * @api
1147:C:/StellarStudio-7.1/SDKS/StellarESDK-1.8.0/Modules/Platform/Clock/include/sr5e1\clock.h ****  */
1148:C:/StellarStudio-7.1/SDKS/StellarESDK-1.8.0/Modules/Platform/Clock/include/sr5e1\clock.h **** __STATIC_FORCEINLINE bool is_clock_enable_AHB1H(uint32_t m) {
1149:C:/StellarStudio-7.1/SDKS/StellarESDK-1.8.0/Modules/Platform/Clock/include/sr5e1\clock.h **** 
1150:C:/StellarStudio-7.1/SDKS/StellarESDK-1.8.0/Modules/Platform/Clock/include/sr5e1\clock.h ****     return (((RCC->AHB1HENR & m) == m) ? true : false);
1151:C:/StellarStudio-7.1/SDKS/StellarESDK-1.8.0/Modules/Platform/Clock/include/sr5e1\clock.h **** }
1152:C:/StellarStudio-7.1/SDKS/StellarESDK-1.8.0/Modules/Platform/Clock/include/sr5e1\clock.h **** 
1153:C:/StellarStudio-7.1/SDKS/StellarESDK-1.8.0/Modules/Platform/Clock/include/sr5e1\clock.h **** /**
1154:C:/StellarStudio-7.1/SDKS/StellarESDK-1.8.0/Modules/Platform/Clock/include/sr5e1\clock.h ****  * @brief   Resets AHB1 peripherals [High Word]
1155:C:/StellarStudio-7.1/SDKS/StellarESDK-1.8.0/Modules/Platform/Clock/include/sr5e1\clock.h ****  *
1156:C:/StellarStudio-7.1/SDKS/StellarESDK-1.8.0/Modules/Platform/Clock/include/sr5e1\clock.h ****  * @param[in] m         peripheral to reset
1157:C:/StellarStudio-7.1/SDKS/StellarESDK-1.8.0/Modules/Platform/Clock/include/sr5e1\clock.h ****  *
1158:C:/StellarStudio-7.1/SDKS/StellarESDK-1.8.0/Modules/Platform/Clock/include/sr5e1\clock.h ****  * @api
1159:C:/StellarStudio-7.1/SDKS/StellarESDK-1.8.0/Modules/Platform/Clock/include/sr5e1\clock.h ****  */
1160:C:/StellarStudio-7.1/SDKS/StellarESDK-1.8.0/Modules/Platform/Clock/include/sr5e1\clock.h **** __STATIC_FORCEINLINE void clock_reset_AHB1H(uint32_t m) {
1161:C:/StellarStudio-7.1/SDKS/StellarESDK-1.8.0/Modules/Platform/Clock/include/sr5e1\clock.h **** 
1162:C:/StellarStudio-7.1/SDKS/StellarESDK-1.8.0/Modules/Platform/Clock/include/sr5e1\clock.h ****     RCC->AHB1HRSTR |= m;
1163:C:/StellarStudio-7.1/SDKS/StellarESDK-1.8.0/Modules/Platform/Clock/include/sr5e1\clock.h ****     RCC->AHB1HRSTR &= ~m;
1164:C:/StellarStudio-7.1/SDKS/StellarESDK-1.8.0/Modules/Platform/Clock/include/sr5e1\clock.h ****     (void)RCC->AHB1HRSTR;
1165:C:/StellarStudio-7.1/SDKS/StellarESDK-1.8.0/Modules/Platform/Clock/include/sr5e1\clock.h **** }
1166:C:/StellarStudio-7.1/SDKS/StellarESDK-1.8.0/Modules/Platform/Clock/include/sr5e1\clock.h **** 
1167:C:/StellarStudio-7.1/SDKS/StellarESDK-1.8.0/Modules/Platform/Clock/include/sr5e1\clock.h **** /**
1168:C:/StellarStudio-7.1/SDKS/StellarESDK-1.8.0/Modules/Platform/Clock/include/sr5e1\clock.h ****  * @brief   Enables AHB2 peripherals clock [Low Word]
1169:C:/StellarStudio-7.1/SDKS/StellarESDK-1.8.0/Modules/Platform/Clock/include/sr5e1\clock.h ****  *
1170:C:/StellarStudio-7.1/SDKS/StellarESDK-1.8.0/Modules/Platform/Clock/include/sr5e1\clock.h ****  * @param[in] smode     sleep mode (if true, peripheral clock is enabled in
1171:C:/StellarStudio-7.1/SDKS/StellarESDK-1.8.0/Modules/Platform/Clock/include/sr5e1\clock.h ****  *                      sleep mode)
1172:C:/StellarStudio-7.1/SDKS/StellarESDK-1.8.0/Modules/Platform/Clock/include/sr5e1\clock.h ****  * @param[in] m         peripheral clock to be enabled
1173:C:/StellarStudio-7.1/SDKS/StellarESDK-1.8.0/Modules/Platform/Clock/include/sr5e1\clock.h ****  * @return              value of register AHB2LENR after the update
1174:C:/StellarStudio-7.1/SDKS/StellarESDK-1.8.0/Modules/Platform/Clock/include/sr5e1\clock.h ****  *
1175:C:/StellarStudio-7.1/SDKS/StellarESDK-1.8.0/Modules/Platform/Clock/include/sr5e1\clock.h ****  * @api
1176:C:/StellarStudio-7.1/SDKS/StellarESDK-1.8.0/Modules/Platform/Clock/include/sr5e1\clock.h ****  */
1177:C:/StellarStudio-7.1/SDKS/StellarESDK-1.8.0/Modules/Platform/Clock/include/sr5e1\clock.h **** __STATIC_FORCEINLINE uint32_t clock_enable_AHB2L(bool smode, uint32_t m) {
1178:C:/StellarStudio-7.1/SDKS/StellarESDK-1.8.0/Modules/Platform/Clock/include/sr5e1\clock.h **** 
1179:C:/StellarStudio-7.1/SDKS/StellarESDK-1.8.0/Modules/Platform/Clock/include/sr5e1\clock.h ****     RCC->AHB2LENR |= m;
1180:C:/StellarStudio-7.1/SDKS/StellarESDK-1.8.0/Modules/Platform/Clock/include/sr5e1\clock.h ****     if (smode) {
1181:C:/StellarStudio-7.1/SDKS/StellarESDK-1.8.0/Modules/Platform/Clock/include/sr5e1\clock.h ****         RCC->C1_AHB2LSMENR |= m;
1182:C:/StellarStudio-7.1/SDKS/StellarESDK-1.8.0/Modules/Platform/Clock/include/sr5e1\clock.h **** #if CLOCK_CFG_SMP_MODE == TRUE
1183:C:/StellarStudio-7.1/SDKS/StellarESDK-1.8.0/Modules/Platform/Clock/include/sr5e1\clock.h ****         RCC->C2_AHB2LSMENR |= m;
1184:C:/StellarStudio-7.1/SDKS/StellarESDK-1.8.0/Modules/Platform/Clock/include/sr5e1\clock.h **** #endif
1185:C:/StellarStudio-7.1/SDKS/StellarESDK-1.8.0/Modules/Platform/Clock/include/sr5e1\clock.h ****     }
1186:C:/StellarStudio-7.1/SDKS/StellarESDK-1.8.0/Modules/Platform/Clock/include/sr5e1\clock.h ****     else {
1187:C:/StellarStudio-7.1/SDKS/StellarESDK-1.8.0/Modules/Platform/Clock/include/sr5e1\clock.h ****         RCC->C1_AHB2LSMENR &= ~m;
1188:C:/StellarStudio-7.1/SDKS/StellarESDK-1.8.0/Modules/Platform/Clock/include/sr5e1\clock.h **** #if CLOCK_CFG_SMP_MODE == TRUE
1189:C:/StellarStudio-7.1/SDKS/StellarESDK-1.8.0/Modules/Platform/Clock/include/sr5e1\clock.h ****         RCC->C2_AHB2LSMENR &= ~m;
1190:C:/StellarStudio-7.1/SDKS/StellarESDK-1.8.0/Modules/Platform/Clock/include/sr5e1\clock.h **** #endif
1191:C:/StellarStudio-7.1/SDKS/StellarESDK-1.8.0/Modules/Platform/Clock/include/sr5e1\clock.h ****     }
1192:C:/StellarStudio-7.1/SDKS/StellarESDK-1.8.0/Modules/Platform/Clock/include/sr5e1\clock.h **** 
1193:C:/StellarStudio-7.1/SDKS/StellarESDK-1.8.0/Modules/Platform/Clock/include/sr5e1\clock.h ****     return RCC->AHB2LENR;
1194:C:/StellarStudio-7.1/SDKS/StellarESDK-1.8.0/Modules/Platform/Clock/include/sr5e1\clock.h **** }
1195:C:/StellarStudio-7.1/SDKS/StellarESDK-1.8.0/Modules/Platform/Clock/include/sr5e1\clock.h **** 
1196:C:/StellarStudio-7.1/SDKS/StellarESDK-1.8.0/Modules/Platform/Clock/include/sr5e1\clock.h **** /**
1197:C:/StellarStudio-7.1/SDKS/StellarESDK-1.8.0/Modules/Platform/Clock/include/sr5e1\clock.h ****  * @brief   Disables AHB2 peripherals clock [Low Word]
1198:C:/StellarStudio-7.1/SDKS/StellarESDK-1.8.0/Modules/Platform/Clock/include/sr5e1\clock.h ****  *
1199:C:/StellarStudio-7.1/SDKS/StellarESDK-1.8.0/Modules/Platform/Clock/include/sr5e1\clock.h ****  * @param[in] m         peripheral clock to be disabled
1200:C:/StellarStudio-7.1/SDKS/StellarESDK-1.8.0/Modules/Platform/Clock/include/sr5e1\clock.h ****  * @return              value of register AHB2LENR after the update
1201:C:/StellarStudio-7.1/SDKS/StellarESDK-1.8.0/Modules/Platform/Clock/include/sr5e1\clock.h ****  *
1202:C:/StellarStudio-7.1/SDKS/StellarESDK-1.8.0/Modules/Platform/Clock/include/sr5e1\clock.h ****  * @api
1203:C:/StellarStudio-7.1/SDKS/StellarESDK-1.8.0/Modules/Platform/Clock/include/sr5e1\clock.h ****  */
1204:C:/StellarStudio-7.1/SDKS/StellarESDK-1.8.0/Modules/Platform/Clock/include/sr5e1\clock.h **** __STATIC_FORCEINLINE uint32_t clock_disable_AHB2L(uint32_t m) {
1205:C:/StellarStudio-7.1/SDKS/StellarESDK-1.8.0/Modules/Platform/Clock/include/sr5e1\clock.h **** 
1206:C:/StellarStudio-7.1/SDKS/StellarESDK-1.8.0/Modules/Platform/Clock/include/sr5e1\clock.h ****     RCC->AHB2LENR &= ~m;
1207:C:/StellarStudio-7.1/SDKS/StellarESDK-1.8.0/Modules/Platform/Clock/include/sr5e1\clock.h ****     RCC->C1_AHB2LSMENR &= ~m;
1208:C:/StellarStudio-7.1/SDKS/StellarESDK-1.8.0/Modules/Platform/Clock/include/sr5e1\clock.h **** #if CLOCK_CFG_SMP_MODE == TRUE
1209:C:/StellarStudio-7.1/SDKS/StellarESDK-1.8.0/Modules/Platform/Clock/include/sr5e1\clock.h ****     RCC->C2_AHB2LSMENR &= ~m;
1210:C:/StellarStudio-7.1/SDKS/StellarESDK-1.8.0/Modules/Platform/Clock/include/sr5e1\clock.h **** #endif
1211:C:/StellarStudio-7.1/SDKS/StellarESDK-1.8.0/Modules/Platform/Clock/include/sr5e1\clock.h **** 
1212:C:/StellarStudio-7.1/SDKS/StellarESDK-1.8.0/Modules/Platform/Clock/include/sr5e1\clock.h ****     return RCC->AHB2LENR;
1213:C:/StellarStudio-7.1/SDKS/StellarESDK-1.8.0/Modules/Platform/Clock/include/sr5e1\clock.h **** }
1214:C:/StellarStudio-7.1/SDKS/StellarESDK-1.8.0/Modules/Platform/Clock/include/sr5e1\clock.h **** 
1215:C:/StellarStudio-7.1/SDKS/StellarESDK-1.8.0/Modules/Platform/Clock/include/sr5e1\clock.h **** /**
1216:C:/StellarStudio-7.1/SDKS/StellarESDK-1.8.0/Modules/Platform/Clock/include/sr5e1\clock.h ****  * @brief   Checks if AHB2 peripheral clock [Low Word] is enabled
1217:C:/StellarStudio-7.1/SDKS/StellarESDK-1.8.0/Modules/Platform/Clock/include/sr5e1\clock.h ****  *
1218:C:/StellarStudio-7.1/SDKS/StellarESDK-1.8.0/Modules/Platform/Clock/include/sr5e1\clock.h ****  * @param[in] m         peripheral clock to be checked
1219:C:/StellarStudio-7.1/SDKS/StellarESDK-1.8.0/Modules/Platform/Clock/include/sr5e1\clock.h ****  * @return              true if the clock is enabled, false otherwise
1220:C:/StellarStudio-7.1/SDKS/StellarESDK-1.8.0/Modules/Platform/Clock/include/sr5e1\clock.h ****  *
1221:C:/StellarStudio-7.1/SDKS/StellarESDK-1.8.0/Modules/Platform/Clock/include/sr5e1\clock.h ****  * @api
1222:C:/StellarStudio-7.1/SDKS/StellarESDK-1.8.0/Modules/Platform/Clock/include/sr5e1\clock.h ****  */
1223:C:/StellarStudio-7.1/SDKS/StellarESDK-1.8.0/Modules/Platform/Clock/include/sr5e1\clock.h **** __STATIC_FORCEINLINE bool is_clock_enable_AHB2L(uint32_t m) {
1224:C:/StellarStudio-7.1/SDKS/StellarESDK-1.8.0/Modules/Platform/Clock/include/sr5e1\clock.h **** 
1225:C:/StellarStudio-7.1/SDKS/StellarESDK-1.8.0/Modules/Platform/Clock/include/sr5e1\clock.h ****     return (((RCC->AHB2LENR & m) == m) ? true : false);
1226:C:/StellarStudio-7.1/SDKS/StellarESDK-1.8.0/Modules/Platform/Clock/include/sr5e1\clock.h **** }
1227:C:/StellarStudio-7.1/SDKS/StellarESDK-1.8.0/Modules/Platform/Clock/include/sr5e1\clock.h **** 
1228:C:/StellarStudio-7.1/SDKS/StellarESDK-1.8.0/Modules/Platform/Clock/include/sr5e1\clock.h **** /**
1229:C:/StellarStudio-7.1/SDKS/StellarESDK-1.8.0/Modules/Platform/Clock/include/sr5e1\clock.h ****  * @brief   Resets AHB2 peripherals [Low Word]
1230:C:/StellarStudio-7.1/SDKS/StellarESDK-1.8.0/Modules/Platform/Clock/include/sr5e1\clock.h ****  *
1231:C:/StellarStudio-7.1/SDKS/StellarESDK-1.8.0/Modules/Platform/Clock/include/sr5e1\clock.h ****  * @param[in] m         peripheral to reset
1232:C:/StellarStudio-7.1/SDKS/StellarESDK-1.8.0/Modules/Platform/Clock/include/sr5e1\clock.h ****  *
1233:C:/StellarStudio-7.1/SDKS/StellarESDK-1.8.0/Modules/Platform/Clock/include/sr5e1\clock.h ****  * @api
1234:C:/StellarStudio-7.1/SDKS/StellarESDK-1.8.0/Modules/Platform/Clock/include/sr5e1\clock.h ****  */
1235:C:/StellarStudio-7.1/SDKS/StellarESDK-1.8.0/Modules/Platform/Clock/include/sr5e1\clock.h **** __STATIC_FORCEINLINE void clock_reset_AHB2L(uint32_t m) {
1236:C:/StellarStudio-7.1/SDKS/StellarESDK-1.8.0/Modules/Platform/Clock/include/sr5e1\clock.h **** 
1237:C:/StellarStudio-7.1/SDKS/StellarESDK-1.8.0/Modules/Platform/Clock/include/sr5e1\clock.h ****     RCC->AHB2LRSTR |= m;
1238:C:/StellarStudio-7.1/SDKS/StellarESDK-1.8.0/Modules/Platform/Clock/include/sr5e1\clock.h ****     RCC->AHB2LRSTR &= ~m;
1239:C:/StellarStudio-7.1/SDKS/StellarESDK-1.8.0/Modules/Platform/Clock/include/sr5e1\clock.h ****     (void)RCC->AHB2LRSTR;
1240:C:/StellarStudio-7.1/SDKS/StellarESDK-1.8.0/Modules/Platform/Clock/include/sr5e1\clock.h **** }
1241:C:/StellarStudio-7.1/SDKS/StellarESDK-1.8.0/Modules/Platform/Clock/include/sr5e1\clock.h **** 
1242:C:/StellarStudio-7.1/SDKS/StellarESDK-1.8.0/Modules/Platform/Clock/include/sr5e1\clock.h **** /**
1243:C:/StellarStudio-7.1/SDKS/StellarESDK-1.8.0/Modules/Platform/Clock/include/sr5e1\clock.h ****  * @brief   Enables AHB2 peripherals clock [High Word]
1244:C:/StellarStudio-7.1/SDKS/StellarESDK-1.8.0/Modules/Platform/Clock/include/sr5e1\clock.h ****  *
1245:C:/StellarStudio-7.1/SDKS/StellarESDK-1.8.0/Modules/Platform/Clock/include/sr5e1\clock.h ****  * @param[in] smode     sleep mode (if true, peripheral clock is enabled in
1246:C:/StellarStudio-7.1/SDKS/StellarESDK-1.8.0/Modules/Platform/Clock/include/sr5e1\clock.h ****  *                      sleep mode)
1247:C:/StellarStudio-7.1/SDKS/StellarESDK-1.8.0/Modules/Platform/Clock/include/sr5e1\clock.h ****  * @param[in] m         peripheral clock to be enabled
1248:C:/StellarStudio-7.1/SDKS/StellarESDK-1.8.0/Modules/Platform/Clock/include/sr5e1\clock.h ****  * @return              value of register AHB2HENR after the update
1249:C:/StellarStudio-7.1/SDKS/StellarESDK-1.8.0/Modules/Platform/Clock/include/sr5e1\clock.h ****  *
1250:C:/StellarStudio-7.1/SDKS/StellarESDK-1.8.0/Modules/Platform/Clock/include/sr5e1\clock.h ****  * @api
1251:C:/StellarStudio-7.1/SDKS/StellarESDK-1.8.0/Modules/Platform/Clock/include/sr5e1\clock.h ****  */
1252:C:/StellarStudio-7.1/SDKS/StellarESDK-1.8.0/Modules/Platform/Clock/include/sr5e1\clock.h **** __STATIC_FORCEINLINE uint32_t clock_enable_AHB2H(bool smode, uint32_t m) {
1253:C:/StellarStudio-7.1/SDKS/StellarESDK-1.8.0/Modules/Platform/Clock/include/sr5e1\clock.h **** 
1254:C:/StellarStudio-7.1/SDKS/StellarESDK-1.8.0/Modules/Platform/Clock/include/sr5e1\clock.h ****     RCC->AHB2HENR |= m;
1255:C:/StellarStudio-7.1/SDKS/StellarESDK-1.8.0/Modules/Platform/Clock/include/sr5e1\clock.h ****     if (smode) {
1256:C:/StellarStudio-7.1/SDKS/StellarESDK-1.8.0/Modules/Platform/Clock/include/sr5e1\clock.h ****         RCC->C1_AHB2HSMENR |= m;
1257:C:/StellarStudio-7.1/SDKS/StellarESDK-1.8.0/Modules/Platform/Clock/include/sr5e1\clock.h **** #if CLOCK_CFG_SMP_MODE == TRUE
1258:C:/StellarStudio-7.1/SDKS/StellarESDK-1.8.0/Modules/Platform/Clock/include/sr5e1\clock.h ****         RCC->C2_AHB2HSMENR |= m;
1259:C:/StellarStudio-7.1/SDKS/StellarESDK-1.8.0/Modules/Platform/Clock/include/sr5e1\clock.h **** #endif
1260:C:/StellarStudio-7.1/SDKS/StellarESDK-1.8.0/Modules/Platform/Clock/include/sr5e1\clock.h ****     }
1261:C:/StellarStudio-7.1/SDKS/StellarESDK-1.8.0/Modules/Platform/Clock/include/sr5e1\clock.h ****     else {
1262:C:/StellarStudio-7.1/SDKS/StellarESDK-1.8.0/Modules/Platform/Clock/include/sr5e1\clock.h ****         RCC->C1_AHB2HSMENR &= ~m;
1263:C:/StellarStudio-7.1/SDKS/StellarESDK-1.8.0/Modules/Platform/Clock/include/sr5e1\clock.h **** #if CLOCK_CFG_SMP_MODE == TRUE
1264:C:/StellarStudio-7.1/SDKS/StellarESDK-1.8.0/Modules/Platform/Clock/include/sr5e1\clock.h ****         RCC->C2_AHB2HSMENR &= ~m;
1265:C:/StellarStudio-7.1/SDKS/StellarESDK-1.8.0/Modules/Platform/Clock/include/sr5e1\clock.h **** #endif
1266:C:/StellarStudio-7.1/SDKS/StellarESDK-1.8.0/Modules/Platform/Clock/include/sr5e1\clock.h ****     }
1267:C:/StellarStudio-7.1/SDKS/StellarESDK-1.8.0/Modules/Platform/Clock/include/sr5e1\clock.h **** 
1268:C:/StellarStudio-7.1/SDKS/StellarESDK-1.8.0/Modules/Platform/Clock/include/sr5e1\clock.h ****     return RCC->AHB2HENR;
1269:C:/StellarStudio-7.1/SDKS/StellarESDK-1.8.0/Modules/Platform/Clock/include/sr5e1\clock.h **** }
1270:C:/StellarStudio-7.1/SDKS/StellarESDK-1.8.0/Modules/Platform/Clock/include/sr5e1\clock.h **** 
1271:C:/StellarStudio-7.1/SDKS/StellarESDK-1.8.0/Modules/Platform/Clock/include/sr5e1\clock.h **** /**
1272:C:/StellarStudio-7.1/SDKS/StellarESDK-1.8.0/Modules/Platform/Clock/include/sr5e1\clock.h ****  * @brief   Disables AHB2 peripherals clock [High Word]
1273:C:/StellarStudio-7.1/SDKS/StellarESDK-1.8.0/Modules/Platform/Clock/include/sr5e1\clock.h ****  *
1274:C:/StellarStudio-7.1/SDKS/StellarESDK-1.8.0/Modules/Platform/Clock/include/sr5e1\clock.h ****  * @param[in] m         peripheral clock to be disabled
1275:C:/StellarStudio-7.1/SDKS/StellarESDK-1.8.0/Modules/Platform/Clock/include/sr5e1\clock.h ****  * @return              value of register AHB2HENR after the update
1276:C:/StellarStudio-7.1/SDKS/StellarESDK-1.8.0/Modules/Platform/Clock/include/sr5e1\clock.h ****  *
1277:C:/StellarStudio-7.1/SDKS/StellarESDK-1.8.0/Modules/Platform/Clock/include/sr5e1\clock.h ****  * @api
1278:C:/StellarStudio-7.1/SDKS/StellarESDK-1.8.0/Modules/Platform/Clock/include/sr5e1\clock.h ****  */
1279:C:/StellarStudio-7.1/SDKS/StellarESDK-1.8.0/Modules/Platform/Clock/include/sr5e1\clock.h **** __STATIC_FORCEINLINE uint32_t clock_disable_AHB2H(uint32_t m) {
1280:C:/StellarStudio-7.1/SDKS/StellarESDK-1.8.0/Modules/Platform/Clock/include/sr5e1\clock.h **** 
1281:C:/StellarStudio-7.1/SDKS/StellarESDK-1.8.0/Modules/Platform/Clock/include/sr5e1\clock.h ****     RCC->AHB2HENR &= ~m;
1282:C:/StellarStudio-7.1/SDKS/StellarESDK-1.8.0/Modules/Platform/Clock/include/sr5e1\clock.h ****     RCC->C1_AHB2HSMENR &= ~m;
1283:C:/StellarStudio-7.1/SDKS/StellarESDK-1.8.0/Modules/Platform/Clock/include/sr5e1\clock.h **** #if CLOCK_CFG_SMP_MODE == TRUE
1284:C:/StellarStudio-7.1/SDKS/StellarESDK-1.8.0/Modules/Platform/Clock/include/sr5e1\clock.h ****     RCC->C2_AHB2HSMENR &= ~m;
1285:C:/StellarStudio-7.1/SDKS/StellarESDK-1.8.0/Modules/Platform/Clock/include/sr5e1\clock.h **** #endif
1286:C:/StellarStudio-7.1/SDKS/StellarESDK-1.8.0/Modules/Platform/Clock/include/sr5e1\clock.h **** 
1287:C:/StellarStudio-7.1/SDKS/StellarESDK-1.8.0/Modules/Platform/Clock/include/sr5e1\clock.h ****     return RCC->AHB2HENR;
1288:C:/StellarStudio-7.1/SDKS/StellarESDK-1.8.0/Modules/Platform/Clock/include/sr5e1\clock.h **** }
1289:C:/StellarStudio-7.1/SDKS/StellarESDK-1.8.0/Modules/Platform/Clock/include/sr5e1\clock.h **** 
1290:C:/StellarStudio-7.1/SDKS/StellarESDK-1.8.0/Modules/Platform/Clock/include/sr5e1\clock.h **** /**
1291:C:/StellarStudio-7.1/SDKS/StellarESDK-1.8.0/Modules/Platform/Clock/include/sr5e1\clock.h ****  * @brief   Checks if AHB2 peripheral clock [High Word] is enabled
1292:C:/StellarStudio-7.1/SDKS/StellarESDK-1.8.0/Modules/Platform/Clock/include/sr5e1\clock.h ****  *
1293:C:/StellarStudio-7.1/SDKS/StellarESDK-1.8.0/Modules/Platform/Clock/include/sr5e1\clock.h ****  * @param[in] m         peripheral clock to be checked
1294:C:/StellarStudio-7.1/SDKS/StellarESDK-1.8.0/Modules/Platform/Clock/include/sr5e1\clock.h ****  * @return              true if the clock is enabled, false otherwise
1295:C:/StellarStudio-7.1/SDKS/StellarESDK-1.8.0/Modules/Platform/Clock/include/sr5e1\clock.h ****  *
1296:C:/StellarStudio-7.1/SDKS/StellarESDK-1.8.0/Modules/Platform/Clock/include/sr5e1\clock.h ****  * @api
1297:C:/StellarStudio-7.1/SDKS/StellarESDK-1.8.0/Modules/Platform/Clock/include/sr5e1\clock.h ****  */
1298:C:/StellarStudio-7.1/SDKS/StellarESDK-1.8.0/Modules/Platform/Clock/include/sr5e1\clock.h **** __STATIC_FORCEINLINE bool is_clock_enable_AHB2H(uint32_t m) {
1299:C:/StellarStudio-7.1/SDKS/StellarESDK-1.8.0/Modules/Platform/Clock/include/sr5e1\clock.h **** 
1300:C:/StellarStudio-7.1/SDKS/StellarESDK-1.8.0/Modules/Platform/Clock/include/sr5e1\clock.h ****     return (((RCC->AHB2HENR & m) == m) ? true : false);
1301:C:/StellarStudio-7.1/SDKS/StellarESDK-1.8.0/Modules/Platform/Clock/include/sr5e1\clock.h **** }
1302:C:/StellarStudio-7.1/SDKS/StellarESDK-1.8.0/Modules/Platform/Clock/include/sr5e1\clock.h **** 
1303:C:/StellarStudio-7.1/SDKS/StellarESDK-1.8.0/Modules/Platform/Clock/include/sr5e1\clock.h **** /**
1304:C:/StellarStudio-7.1/SDKS/StellarESDK-1.8.0/Modules/Platform/Clock/include/sr5e1\clock.h ****  * @brief   Resets AHB2 peripherals [High Word]
1305:C:/StellarStudio-7.1/SDKS/StellarESDK-1.8.0/Modules/Platform/Clock/include/sr5e1\clock.h ****  *
1306:C:/StellarStudio-7.1/SDKS/StellarESDK-1.8.0/Modules/Platform/Clock/include/sr5e1\clock.h ****  * @param[in] m         peripheral to reset
1307:C:/StellarStudio-7.1/SDKS/StellarESDK-1.8.0/Modules/Platform/Clock/include/sr5e1\clock.h ****  *
1308:C:/StellarStudio-7.1/SDKS/StellarESDK-1.8.0/Modules/Platform/Clock/include/sr5e1\clock.h ****  * @api
1309:C:/StellarStudio-7.1/SDKS/StellarESDK-1.8.0/Modules/Platform/Clock/include/sr5e1\clock.h ****  */
1310:C:/StellarStudio-7.1/SDKS/StellarESDK-1.8.0/Modules/Platform/Clock/include/sr5e1\clock.h **** __STATIC_FORCEINLINE void clock_reset_AHB2H(uint32_t m) {
1311:C:/StellarStudio-7.1/SDKS/StellarESDK-1.8.0/Modules/Platform/Clock/include/sr5e1\clock.h **** 
1312:C:/StellarStudio-7.1/SDKS/StellarESDK-1.8.0/Modules/Platform/Clock/include/sr5e1\clock.h ****     RCC->AHB2HRSTR |= m;
1313:C:/StellarStudio-7.1/SDKS/StellarESDK-1.8.0/Modules/Platform/Clock/include/sr5e1\clock.h ****     RCC->AHB2HRSTR &= ~m;
1314:C:/StellarStudio-7.1/SDKS/StellarESDK-1.8.0/Modules/Platform/Clock/include/sr5e1\clock.h ****     (void)RCC->AHB2HRSTR;
1315:C:/StellarStudio-7.1/SDKS/StellarESDK-1.8.0/Modules/Platform/Clock/include/sr5e1\clock.h **** }
1316:C:/StellarStudio-7.1/SDKS/StellarESDK-1.8.0/Modules/Platform/Clock/include/sr5e1\clock.h **** 
1317:C:/StellarStudio-7.1/SDKS/StellarESDK-1.8.0/Modules/Platform/Clock/include/sr5e1\clock.h **** /**
1318:C:/StellarStudio-7.1/SDKS/StellarESDK-1.8.0/Modules/Platform/Clock/include/sr5e1\clock.h ****  * @brief   Enables APB1 peripherals clock [Low Word]
1319:C:/StellarStudio-7.1/SDKS/StellarESDK-1.8.0/Modules/Platform/Clock/include/sr5e1\clock.h ****  *
1320:C:/StellarStudio-7.1/SDKS/StellarESDK-1.8.0/Modules/Platform/Clock/include/sr5e1\clock.h ****  * @param[in] smode     sleep mode (if true, peripheral clock is enabled in
1321:C:/StellarStudio-7.1/SDKS/StellarESDK-1.8.0/Modules/Platform/Clock/include/sr5e1\clock.h ****  *                      sleep mode)
1322:C:/StellarStudio-7.1/SDKS/StellarESDK-1.8.0/Modules/Platform/Clock/include/sr5e1\clock.h ****  * @param[in] m         peripheral clock to be enabled
1323:C:/StellarStudio-7.1/SDKS/StellarESDK-1.8.0/Modules/Platform/Clock/include/sr5e1\clock.h ****  * @return              value of register APB1LENR after the update
1324:C:/StellarStudio-7.1/SDKS/StellarESDK-1.8.0/Modules/Platform/Clock/include/sr5e1\clock.h ****  *
1325:C:/StellarStudio-7.1/SDKS/StellarESDK-1.8.0/Modules/Platform/Clock/include/sr5e1\clock.h ****  * @api
1326:C:/StellarStudio-7.1/SDKS/StellarESDK-1.8.0/Modules/Platform/Clock/include/sr5e1\clock.h ****  */
1327:C:/StellarStudio-7.1/SDKS/StellarESDK-1.8.0/Modules/Platform/Clock/include/sr5e1\clock.h **** __STATIC_FORCEINLINE uint32_t clock_enable_APB1L(bool smode, uint32_t m) {
1328:C:/StellarStudio-7.1/SDKS/StellarESDK-1.8.0/Modules/Platform/Clock/include/sr5e1\clock.h **** 
1329:C:/StellarStudio-7.1/SDKS/StellarESDK-1.8.0/Modules/Platform/Clock/include/sr5e1\clock.h ****     RCC->APB1LENR |= m;
1330:C:/StellarStudio-7.1/SDKS/StellarESDK-1.8.0/Modules/Platform/Clock/include/sr5e1\clock.h ****     if (smode) {
1331:C:/StellarStudio-7.1/SDKS/StellarESDK-1.8.0/Modules/Platform/Clock/include/sr5e1\clock.h ****         RCC->C1_APB1LSMENR |= m;
1332:C:/StellarStudio-7.1/SDKS/StellarESDK-1.8.0/Modules/Platform/Clock/include/sr5e1\clock.h **** #if CLOCK_CFG_SMP_MODE == TRUE
1333:C:/StellarStudio-7.1/SDKS/StellarESDK-1.8.0/Modules/Platform/Clock/include/sr5e1\clock.h ****         RCC->C2_APB1LSMENR |= m;
1334:C:/StellarStudio-7.1/SDKS/StellarESDK-1.8.0/Modules/Platform/Clock/include/sr5e1\clock.h **** #endif
1335:C:/StellarStudio-7.1/SDKS/StellarESDK-1.8.0/Modules/Platform/Clock/include/sr5e1\clock.h ****     }
1336:C:/StellarStudio-7.1/SDKS/StellarESDK-1.8.0/Modules/Platform/Clock/include/sr5e1\clock.h ****     else {
1337:C:/StellarStudio-7.1/SDKS/StellarESDK-1.8.0/Modules/Platform/Clock/include/sr5e1\clock.h ****         RCC->C1_APB1LSMENR &= ~m;
1338:C:/StellarStudio-7.1/SDKS/StellarESDK-1.8.0/Modules/Platform/Clock/include/sr5e1\clock.h **** #if CLOCK_CFG_SMP_MODE == TRUE
1339:C:/StellarStudio-7.1/SDKS/StellarESDK-1.8.0/Modules/Platform/Clock/include/sr5e1\clock.h ****         RCC->C2_APB1LSMENR &= ~m;
1340:C:/StellarStudio-7.1/SDKS/StellarESDK-1.8.0/Modules/Platform/Clock/include/sr5e1\clock.h **** #endif
1341:C:/StellarStudio-7.1/SDKS/StellarESDK-1.8.0/Modules/Platform/Clock/include/sr5e1\clock.h ****     }
1342:C:/StellarStudio-7.1/SDKS/StellarESDK-1.8.0/Modules/Platform/Clock/include/sr5e1\clock.h **** 
1343:C:/StellarStudio-7.1/SDKS/StellarESDK-1.8.0/Modules/Platform/Clock/include/sr5e1\clock.h ****     return RCC->APB1LENR;
1344:C:/StellarStudio-7.1/SDKS/StellarESDK-1.8.0/Modules/Platform/Clock/include/sr5e1\clock.h **** }
1345:C:/StellarStudio-7.1/SDKS/StellarESDK-1.8.0/Modules/Platform/Clock/include/sr5e1\clock.h **** 
1346:C:/StellarStudio-7.1/SDKS/StellarESDK-1.8.0/Modules/Platform/Clock/include/sr5e1\clock.h **** /**
1347:C:/StellarStudio-7.1/SDKS/StellarESDK-1.8.0/Modules/Platform/Clock/include/sr5e1\clock.h ****  * @brief   Disables APB1 peripherals clock [Low Word]
1348:C:/StellarStudio-7.1/SDKS/StellarESDK-1.8.0/Modules/Platform/Clock/include/sr5e1\clock.h ****  *
1349:C:/StellarStudio-7.1/SDKS/StellarESDK-1.8.0/Modules/Platform/Clock/include/sr5e1\clock.h ****  * @param[in] m         peripheral clock to be disabled
1350:C:/StellarStudio-7.1/SDKS/StellarESDK-1.8.0/Modules/Platform/Clock/include/sr5e1\clock.h ****  * @return              value of register APB1LENR after the update
1351:C:/StellarStudio-7.1/SDKS/StellarESDK-1.8.0/Modules/Platform/Clock/include/sr5e1\clock.h ****  *
1352:C:/StellarStudio-7.1/SDKS/StellarESDK-1.8.0/Modules/Platform/Clock/include/sr5e1\clock.h ****  * @api
1353:C:/StellarStudio-7.1/SDKS/StellarESDK-1.8.0/Modules/Platform/Clock/include/sr5e1\clock.h ****  */
1354:C:/StellarStudio-7.1/SDKS/StellarESDK-1.8.0/Modules/Platform/Clock/include/sr5e1\clock.h **** __STATIC_FORCEINLINE uint32_t clock_disable_APB1L(uint32_t m) {
1355:C:/StellarStudio-7.1/SDKS/StellarESDK-1.8.0/Modules/Platform/Clock/include/sr5e1\clock.h **** 
1356:C:/StellarStudio-7.1/SDKS/StellarESDK-1.8.0/Modules/Platform/Clock/include/sr5e1\clock.h ****     RCC->APB1LENR &= ~m;
1357:C:/StellarStudio-7.1/SDKS/StellarESDK-1.8.0/Modules/Platform/Clock/include/sr5e1\clock.h ****     RCC->C1_APB1LSMENR &= ~m;
1358:C:/StellarStudio-7.1/SDKS/StellarESDK-1.8.0/Modules/Platform/Clock/include/sr5e1\clock.h **** #if CLOCK_CFG_SMP_MODE == TRUE
1359:C:/StellarStudio-7.1/SDKS/StellarESDK-1.8.0/Modules/Platform/Clock/include/sr5e1\clock.h ****     RCC->C2_APB1LSMENR &= ~m;
1360:C:/StellarStudio-7.1/SDKS/StellarESDK-1.8.0/Modules/Platform/Clock/include/sr5e1\clock.h **** #endif
1361:C:/StellarStudio-7.1/SDKS/StellarESDK-1.8.0/Modules/Platform/Clock/include/sr5e1\clock.h **** 
1362:C:/StellarStudio-7.1/SDKS/StellarESDK-1.8.0/Modules/Platform/Clock/include/sr5e1\clock.h ****     return RCC->APB1LENR;
1363:C:/StellarStudio-7.1/SDKS/StellarESDK-1.8.0/Modules/Platform/Clock/include/sr5e1\clock.h **** }
1364:C:/StellarStudio-7.1/SDKS/StellarESDK-1.8.0/Modules/Platform/Clock/include/sr5e1\clock.h **** 
1365:C:/StellarStudio-7.1/SDKS/StellarESDK-1.8.0/Modules/Platform/Clock/include/sr5e1\clock.h **** /**
1366:C:/StellarStudio-7.1/SDKS/StellarESDK-1.8.0/Modules/Platform/Clock/include/sr5e1\clock.h ****  * @brief   Checks if APB1 peripheral clock [Low Word] is enabled
1367:C:/StellarStudio-7.1/SDKS/StellarESDK-1.8.0/Modules/Platform/Clock/include/sr5e1\clock.h ****  *
1368:C:/StellarStudio-7.1/SDKS/StellarESDK-1.8.0/Modules/Platform/Clock/include/sr5e1\clock.h ****  * @param[in] m         peripheral clock to be checked
1369:C:/StellarStudio-7.1/SDKS/StellarESDK-1.8.0/Modules/Platform/Clock/include/sr5e1\clock.h ****  * @return              true if the clock is enabled, false otherwise
1370:C:/StellarStudio-7.1/SDKS/StellarESDK-1.8.0/Modules/Platform/Clock/include/sr5e1\clock.h ****  *
1371:C:/StellarStudio-7.1/SDKS/StellarESDK-1.8.0/Modules/Platform/Clock/include/sr5e1\clock.h ****  * @api
1372:C:/StellarStudio-7.1/SDKS/StellarESDK-1.8.0/Modules/Platform/Clock/include/sr5e1\clock.h ****  */
1373:C:/StellarStudio-7.1/SDKS/StellarESDK-1.8.0/Modules/Platform/Clock/include/sr5e1\clock.h **** __STATIC_FORCEINLINE bool is_clock_enable_APB1L(uint32_t m) {
1374:C:/StellarStudio-7.1/SDKS/StellarESDK-1.8.0/Modules/Platform/Clock/include/sr5e1\clock.h **** 
1375:C:/StellarStudio-7.1/SDKS/StellarESDK-1.8.0/Modules/Platform/Clock/include/sr5e1\clock.h ****     return (((RCC->APB1LENR & m) == m) ? true : false);
1376:C:/StellarStudio-7.1/SDKS/StellarESDK-1.8.0/Modules/Platform/Clock/include/sr5e1\clock.h **** }
1377:C:/StellarStudio-7.1/SDKS/StellarESDK-1.8.0/Modules/Platform/Clock/include/sr5e1\clock.h **** 
1378:C:/StellarStudio-7.1/SDKS/StellarESDK-1.8.0/Modules/Platform/Clock/include/sr5e1\clock.h **** /**
1379:C:/StellarStudio-7.1/SDKS/StellarESDK-1.8.0/Modules/Platform/Clock/include/sr5e1\clock.h ****  * @brief   Resets APB1 peripherals [Low Word]
1380:C:/StellarStudio-7.1/SDKS/StellarESDK-1.8.0/Modules/Platform/Clock/include/sr5e1\clock.h ****  *
1381:C:/StellarStudio-7.1/SDKS/StellarESDK-1.8.0/Modules/Platform/Clock/include/sr5e1\clock.h ****  * @param[in] m         peripheral to reset
1382:C:/StellarStudio-7.1/SDKS/StellarESDK-1.8.0/Modules/Platform/Clock/include/sr5e1\clock.h ****  *
1383:C:/StellarStudio-7.1/SDKS/StellarESDK-1.8.0/Modules/Platform/Clock/include/sr5e1\clock.h ****  * @api
1384:C:/StellarStudio-7.1/SDKS/StellarESDK-1.8.0/Modules/Platform/Clock/include/sr5e1\clock.h ****  */
1385:C:/StellarStudio-7.1/SDKS/StellarESDK-1.8.0/Modules/Platform/Clock/include/sr5e1\clock.h **** __STATIC_FORCEINLINE void clock_reset_APB1L(uint32_t m) {
1386:C:/StellarStudio-7.1/SDKS/StellarESDK-1.8.0/Modules/Platform/Clock/include/sr5e1\clock.h **** 
1387:C:/StellarStudio-7.1/SDKS/StellarESDK-1.8.0/Modules/Platform/Clock/include/sr5e1\clock.h ****     RCC->APB1LRSTR |= m;
1388:C:/StellarStudio-7.1/SDKS/StellarESDK-1.8.0/Modules/Platform/Clock/include/sr5e1\clock.h ****     RCC->APB1LRSTR &= ~m;
1389:C:/StellarStudio-7.1/SDKS/StellarESDK-1.8.0/Modules/Platform/Clock/include/sr5e1\clock.h ****     (void)RCC->APB1LRSTR;
1390:C:/StellarStudio-7.1/SDKS/StellarESDK-1.8.0/Modules/Platform/Clock/include/sr5e1\clock.h **** }
1391:C:/StellarStudio-7.1/SDKS/StellarESDK-1.8.0/Modules/Platform/Clock/include/sr5e1\clock.h **** 
1392:C:/StellarStudio-7.1/SDKS/StellarESDK-1.8.0/Modules/Platform/Clock/include/sr5e1\clock.h **** /**
1393:C:/StellarStudio-7.1/SDKS/StellarESDK-1.8.0/Modules/Platform/Clock/include/sr5e1\clock.h ****  * @brief   Enables APB2 peripherals clock [Low Word]
1394:C:/StellarStudio-7.1/SDKS/StellarESDK-1.8.0/Modules/Platform/Clock/include/sr5e1\clock.h ****  *
1395:C:/StellarStudio-7.1/SDKS/StellarESDK-1.8.0/Modules/Platform/Clock/include/sr5e1\clock.h ****  * @param[in] smode     sleep mode (if true, peripheral clock is enabled in
1396:C:/StellarStudio-7.1/SDKS/StellarESDK-1.8.0/Modules/Platform/Clock/include/sr5e1\clock.h ****  *                      sleep mode)
1397:C:/StellarStudio-7.1/SDKS/StellarESDK-1.8.0/Modules/Platform/Clock/include/sr5e1\clock.h ****  * @param[in] m         peripheral clock to be enabled
1398:C:/StellarStudio-7.1/SDKS/StellarESDK-1.8.0/Modules/Platform/Clock/include/sr5e1\clock.h ****  * @return              value of register APB2LENR after the update
1399:C:/StellarStudio-7.1/SDKS/StellarESDK-1.8.0/Modules/Platform/Clock/include/sr5e1\clock.h ****  *
1400:C:/StellarStudio-7.1/SDKS/StellarESDK-1.8.0/Modules/Platform/Clock/include/sr5e1\clock.h ****  * @api
1401:C:/StellarStudio-7.1/SDKS/StellarESDK-1.8.0/Modules/Platform/Clock/include/sr5e1\clock.h ****  */
1402:C:/StellarStudio-7.1/SDKS/StellarESDK-1.8.0/Modules/Platform/Clock/include/sr5e1\clock.h **** __STATIC_FORCEINLINE uint32_t clock_enable_APB2L(bool smode, uint32_t m) {
1403:C:/StellarStudio-7.1/SDKS/StellarESDK-1.8.0/Modules/Platform/Clock/include/sr5e1\clock.h **** 
1404:C:/StellarStudio-7.1/SDKS/StellarESDK-1.8.0/Modules/Platform/Clock/include/sr5e1\clock.h ****     RCC->APB2LENR |= m;
 173              		.loc 2 1404 19
 174 0020 4FF08843 		mov	r3, #1140850688
 175 0024 D3F88820 		ldr	r2, [r3, #136]
 176 0028 4FF08841 		mov	r1, #1140850688
 177 002c 069B     		ldr	r3, [sp, #24]
 178 002e 1343     		orrs	r3, r3, r2
 179 0030 C1F88830 		str	r3, [r1, #136]
1405:C:/StellarStudio-7.1/SDKS/StellarESDK-1.8.0/Modules/Platform/Clock/include/sr5e1\clock.h ****     if (smode) {
 180              		.loc 2 1405 8
 181 0034 9DF81E30 		ldrb	r3, [sp, #30]	@ zero_extendqisi2
 182 0038 002B     		cmp	r3, #0
 183 003a 14D0     		beq	.L17
1406:C:/StellarStudio-7.1/SDKS/StellarESDK-1.8.0/Modules/Platform/Clock/include/sr5e1\clock.h ****         RCC->C1_APB2LSMENR |= m;
 184              		.loc 2 1406 28
 185 003c 4FF08843 		mov	r3, #1140850688
 186 0040 D3F8A820 		ldr	r2, [r3, #168]
 187 0044 4FF08841 		mov	r1, #1140850688
 188 0048 069B     		ldr	r3, [sp, #24]
 189 004a 1343     		orrs	r3, r3, r2
 190 004c C1F8A830 		str	r3, [r1, #168]
1407:C:/StellarStudio-7.1/SDKS/StellarESDK-1.8.0/Modules/Platform/Clock/include/sr5e1\clock.h **** #if CLOCK_CFG_SMP_MODE == TRUE
1408:C:/StellarStudio-7.1/SDKS/StellarESDK-1.8.0/Modules/Platform/Clock/include/sr5e1\clock.h ****         RCC->C2_APB2LSMENR |= m;
 191              		.loc 2 1408 28
 192 0050 4FF08843 		mov	r3, #1140850688
 193 0054 D3F8C820 		ldr	r2, [r3, #200]
 194 0058 4FF08841 		mov	r1, #1140850688
 195 005c 069B     		ldr	r3, [sp, #24]
 196 005e 1343     		orrs	r3, r3, r2
 197 0060 C1F8C830 		str	r3, [r1, #200]
 198 0064 15E0     		b	.L18
 199              	.L17:
1409:C:/StellarStudio-7.1/SDKS/StellarESDK-1.8.0/Modules/Platform/Clock/include/sr5e1\clock.h **** #endif
1410:C:/StellarStudio-7.1/SDKS/StellarESDK-1.8.0/Modules/Platform/Clock/include/sr5e1\clock.h ****     }
1411:C:/StellarStudio-7.1/SDKS/StellarESDK-1.8.0/Modules/Platform/Clock/include/sr5e1\clock.h ****     else {
1412:C:/StellarStudio-7.1/SDKS/StellarESDK-1.8.0/Modules/Platform/Clock/include/sr5e1\clock.h ****         RCC->C1_APB2LSMENR &= ~m;
 200              		.loc 2 1412 28
 201 0066 4FF08843 		mov	r3, #1140850688
 202 006a D3F8A820 		ldr	r2, [r3, #168]
 203              		.loc 2 1412 31
 204 006e 069B     		ldr	r3, [sp, #24]
 205 0070 DB43     		mvns	r3, r3
 206              		.loc 2 1412 28
 207 0072 4FF08841 		mov	r1, #1140850688
 208 0076 1340     		ands	r3, r3, r2
 209 0078 C1F8A830 		str	r3, [r1, #168]
1413:C:/StellarStudio-7.1/SDKS/StellarESDK-1.8.0/Modules/Platform/Clock/include/sr5e1\clock.h **** #if CLOCK_CFG_SMP_MODE == TRUE
1414:C:/StellarStudio-7.1/SDKS/StellarESDK-1.8.0/Modules/Platform/Clock/include/sr5e1\clock.h ****         RCC->C2_APB2LSMENR &= ~m;
 210              		.loc 2 1414 28
 211 007c 4FF08843 		mov	r3, #1140850688
 212 0080 D3F8C820 		ldr	r2, [r3, #200]
 213              		.loc 2 1414 31
 214 0084 069B     		ldr	r3, [sp, #24]
 215 0086 DB43     		mvns	r3, r3
 216              		.loc 2 1414 28
 217 0088 4FF08841 		mov	r1, #1140850688
 218 008c 1340     		ands	r3, r3, r2
 219 008e C1F8C830 		str	r3, [r1, #200]
 220              	.L18:
1415:C:/StellarStudio-7.1/SDKS/StellarESDK-1.8.0/Modules/Platform/Clock/include/sr5e1\clock.h **** #endif
1416:C:/StellarStudio-7.1/SDKS/StellarESDK-1.8.0/Modules/Platform/Clock/include/sr5e1\clock.h ****     }
1417:C:/StellarStudio-7.1/SDKS/StellarESDK-1.8.0/Modules/Platform/Clock/include/sr5e1\clock.h **** 
1418:C:/StellarStudio-7.1/SDKS/StellarESDK-1.8.0/Modules/Platform/Clock/include/sr5e1\clock.h ****     return RCC->APB2LENR;
 221              		.loc 2 1418 15
 222 0092 4FF08843 		mov	r3, #1140850688
 223 0096 D3F88830 		ldr	r3, [r3, #136]
 224              	.LBE41:
 225              	.LBE40:
1419:C:/StellarStudio-7.1/SDKS/StellarESDK-1.8.0/Modules/Platform/Clock/include/sr5e1\clock.h **** }
1420:C:/StellarStudio-7.1/SDKS/StellarESDK-1.8.0/Modules/Platform/Clock/include/sr5e1\clock.h **** 
1421:C:/StellarStudio-7.1/SDKS/StellarESDK-1.8.0/Modules/Platform/Clock/include/sr5e1\clock.h **** /**
1422:C:/StellarStudio-7.1/SDKS/StellarESDK-1.8.0/Modules/Platform/Clock/include/sr5e1\clock.h ****  * @brief   Disables APB2 peripherals clock [Low Word]
1423:C:/StellarStudio-7.1/SDKS/StellarESDK-1.8.0/Modules/Platform/Clock/include/sr5e1\clock.h ****  *
1424:C:/StellarStudio-7.1/SDKS/StellarESDK-1.8.0/Modules/Platform/Clock/include/sr5e1\clock.h ****  * @param[in] m         peripheral clock to be disabled
1425:C:/StellarStudio-7.1/SDKS/StellarESDK-1.8.0/Modules/Platform/Clock/include/sr5e1\clock.h ****  * @return              value of register APB2LENR after the update
1426:C:/StellarStudio-7.1/SDKS/StellarESDK-1.8.0/Modules/Platform/Clock/include/sr5e1\clock.h ****  *
1427:C:/StellarStudio-7.1/SDKS/StellarESDK-1.8.0/Modules/Platform/Clock/include/sr5e1\clock.h ****  * @api
1428:C:/StellarStudio-7.1/SDKS/StellarESDK-1.8.0/Modules/Platform/Clock/include/sr5e1\clock.h ****  */
1429:C:/StellarStudio-7.1/SDKS/StellarESDK-1.8.0/Modules/Platform/Clock/include/sr5e1\clock.h **** __STATIC_FORCEINLINE uint32_t clock_disable_APB2L(uint32_t m) {
1430:C:/StellarStudio-7.1/SDKS/StellarESDK-1.8.0/Modules/Platform/Clock/include/sr5e1\clock.h **** 
1431:C:/StellarStudio-7.1/SDKS/StellarESDK-1.8.0/Modules/Platform/Clock/include/sr5e1\clock.h ****     RCC->APB2LENR &= ~m;
1432:C:/StellarStudio-7.1/SDKS/StellarESDK-1.8.0/Modules/Platform/Clock/include/sr5e1\clock.h ****     RCC->C1_APB2LSMENR &= ~m;
1433:C:/StellarStudio-7.1/SDKS/StellarESDK-1.8.0/Modules/Platform/Clock/include/sr5e1\clock.h **** #if CLOCK_CFG_SMP_MODE == TRUE
1434:C:/StellarStudio-7.1/SDKS/StellarESDK-1.8.0/Modules/Platform/Clock/include/sr5e1\clock.h ****     RCC->C2_APB2LSMENR &= ~m;
1435:C:/StellarStudio-7.1/SDKS/StellarESDK-1.8.0/Modules/Platform/Clock/include/sr5e1\clock.h **** #endif
1436:C:/StellarStudio-7.1/SDKS/StellarESDK-1.8.0/Modules/Platform/Clock/include/sr5e1\clock.h **** 
1437:C:/StellarStudio-7.1/SDKS/StellarESDK-1.8.0/Modules/Platform/Clock/include/sr5e1\clock.h ****     return RCC->APB2LENR;
1438:C:/StellarStudio-7.1/SDKS/StellarESDK-1.8.0/Modules/Platform/Clock/include/sr5e1\clock.h **** }
1439:C:/StellarStudio-7.1/SDKS/StellarESDK-1.8.0/Modules/Platform/Clock/include/sr5e1\clock.h **** 
1440:C:/StellarStudio-7.1/SDKS/StellarESDK-1.8.0/Modules/Platform/Clock/include/sr5e1\clock.h **** /**
1441:C:/StellarStudio-7.1/SDKS/StellarESDK-1.8.0/Modules/Platform/Clock/include/sr5e1\clock.h ****  * @brief   Checks if APB2 peripheral clock [Low Word] is enabled
1442:C:/StellarStudio-7.1/SDKS/StellarESDK-1.8.0/Modules/Platform/Clock/include/sr5e1\clock.h ****  *
1443:C:/StellarStudio-7.1/SDKS/StellarESDK-1.8.0/Modules/Platform/Clock/include/sr5e1\clock.h ****  * @param[in] m         peripheral clock to be checked
1444:C:/StellarStudio-7.1/SDKS/StellarESDK-1.8.0/Modules/Platform/Clock/include/sr5e1\clock.h ****  * @return              true if the clock is enabled, false otherwise
1445:C:/StellarStudio-7.1/SDKS/StellarESDK-1.8.0/Modules/Platform/Clock/include/sr5e1\clock.h ****  *
1446:C:/StellarStudio-7.1/SDKS/StellarESDK-1.8.0/Modules/Platform/Clock/include/sr5e1\clock.h ****  * @api
1447:C:/StellarStudio-7.1/SDKS/StellarESDK-1.8.0/Modules/Platform/Clock/include/sr5e1\clock.h ****  */
1448:C:/StellarStudio-7.1/SDKS/StellarESDK-1.8.0/Modules/Platform/Clock/include/sr5e1\clock.h **** __STATIC_FORCEINLINE bool is_clock_enable_APB2L(uint32_t m) {
1449:C:/StellarStudio-7.1/SDKS/StellarESDK-1.8.0/Modules/Platform/Clock/include/sr5e1\clock.h **** 
1450:C:/StellarStudio-7.1/SDKS/StellarESDK-1.8.0/Modules/Platform/Clock/include/sr5e1\clock.h ****     return (((RCC->APB2LENR & m) == m) ? true : false);
1451:C:/StellarStudio-7.1/SDKS/StellarESDK-1.8.0/Modules/Platform/Clock/include/sr5e1\clock.h **** }
1452:C:/StellarStudio-7.1/SDKS/StellarESDK-1.8.0/Modules/Platform/Clock/include/sr5e1\clock.h **** 
1453:C:/StellarStudio-7.1/SDKS/StellarESDK-1.8.0/Modules/Platform/Clock/include/sr5e1\clock.h **** /**
1454:C:/StellarStudio-7.1/SDKS/StellarESDK-1.8.0/Modules/Platform/Clock/include/sr5e1\clock.h ****  * @brief   Resets APB2 peripherals [Low Word]
1455:C:/StellarStudio-7.1/SDKS/StellarESDK-1.8.0/Modules/Platform/Clock/include/sr5e1\clock.h ****  *
1456:C:/StellarStudio-7.1/SDKS/StellarESDK-1.8.0/Modules/Platform/Clock/include/sr5e1\clock.h ****  * @param[in] m         peripheral to reset
1457:C:/StellarStudio-7.1/SDKS/StellarESDK-1.8.0/Modules/Platform/Clock/include/sr5e1\clock.h ****  *
1458:C:/StellarStudio-7.1/SDKS/StellarESDK-1.8.0/Modules/Platform/Clock/include/sr5e1\clock.h ****  * @api
1459:C:/StellarStudio-7.1/SDKS/StellarESDK-1.8.0/Modules/Platform/Clock/include/sr5e1\clock.h ****  */
1460:C:/StellarStudio-7.1/SDKS/StellarESDK-1.8.0/Modules/Platform/Clock/include/sr5e1\clock.h **** __STATIC_FORCEINLINE void clock_reset_APB2L(uint32_t m) {
1461:C:/StellarStudio-7.1/SDKS/StellarESDK-1.8.0/Modules/Platform/Clock/include/sr5e1\clock.h **** 
1462:C:/StellarStudio-7.1/SDKS/StellarESDK-1.8.0/Modules/Platform/Clock/include/sr5e1\clock.h ****     RCC->APB2LRSTR |= m;
1463:C:/StellarStudio-7.1/SDKS/StellarESDK-1.8.0/Modules/Platform/Clock/include/sr5e1\clock.h ****     RCC->APB2LRSTR &= ~m;
1464:C:/StellarStudio-7.1/SDKS/StellarESDK-1.8.0/Modules/Platform/Clock/include/sr5e1\clock.h ****     (void)RCC->APB2LRSTR;
1465:C:/StellarStudio-7.1/SDKS/StellarESDK-1.8.0/Modules/Platform/Clock/include/sr5e1\clock.h **** }
1466:C:/StellarStudio-7.1/SDKS/StellarESDK-1.8.0/Modules/Platform/Clock/include/sr5e1\clock.h **** 
1467:C:/StellarStudio-7.1/SDKS/StellarESDK-1.8.0/Modules/Platform/Clock/include/sr5e1\clock.h **** /**
1468:C:/StellarStudio-7.1/SDKS/StellarESDK-1.8.0/Modules/Platform/Clock/include/sr5e1\clock.h ****  * @brief   Enables APB2 peripherals clock [High Word]
1469:C:/StellarStudio-7.1/SDKS/StellarESDK-1.8.0/Modules/Platform/Clock/include/sr5e1\clock.h ****  *
1470:C:/StellarStudio-7.1/SDKS/StellarESDK-1.8.0/Modules/Platform/Clock/include/sr5e1\clock.h ****  * @param[in] smode     sleep mode (if true, peripheral clock is enabled in
1471:C:/StellarStudio-7.1/SDKS/StellarESDK-1.8.0/Modules/Platform/Clock/include/sr5e1\clock.h ****  *                      sleep mode)
1472:C:/StellarStudio-7.1/SDKS/StellarESDK-1.8.0/Modules/Platform/Clock/include/sr5e1\clock.h ****  * @param[in] m         peripheral clock to be enabled
1473:C:/StellarStudio-7.1/SDKS/StellarESDK-1.8.0/Modules/Platform/Clock/include/sr5e1\clock.h ****  * @return              value of register APB2HENR after the update
1474:C:/StellarStudio-7.1/SDKS/StellarESDK-1.8.0/Modules/Platform/Clock/include/sr5e1\clock.h ****  *
1475:C:/StellarStudio-7.1/SDKS/StellarESDK-1.8.0/Modules/Platform/Clock/include/sr5e1\clock.h ****  * @api
1476:C:/StellarStudio-7.1/SDKS/StellarESDK-1.8.0/Modules/Platform/Clock/include/sr5e1\clock.h ****  */
1477:C:/StellarStudio-7.1/SDKS/StellarESDK-1.8.0/Modules/Platform/Clock/include/sr5e1\clock.h **** __STATIC_FORCEINLINE uint32_t clock_enable_APB2H(bool smode, uint32_t m) {
1478:C:/StellarStudio-7.1/SDKS/StellarESDK-1.8.0/Modules/Platform/Clock/include/sr5e1\clock.h **** 
1479:C:/StellarStudio-7.1/SDKS/StellarESDK-1.8.0/Modules/Platform/Clock/include/sr5e1\clock.h ****     RCC->APB2HENR |= m;
1480:C:/StellarStudio-7.1/SDKS/StellarESDK-1.8.0/Modules/Platform/Clock/include/sr5e1\clock.h ****     if (smode) {
1481:C:/StellarStudio-7.1/SDKS/StellarESDK-1.8.0/Modules/Platform/Clock/include/sr5e1\clock.h ****         RCC->C1_APB2HSMENR |= m;
1482:C:/StellarStudio-7.1/SDKS/StellarESDK-1.8.0/Modules/Platform/Clock/include/sr5e1\clock.h **** #if CLOCK_CFG_SMP_MODE == TRUE
1483:C:/StellarStudio-7.1/SDKS/StellarESDK-1.8.0/Modules/Platform/Clock/include/sr5e1\clock.h ****         RCC->C2_APB2HSMENR |= m;
1484:C:/StellarStudio-7.1/SDKS/StellarESDK-1.8.0/Modules/Platform/Clock/include/sr5e1\clock.h **** #endif
1485:C:/StellarStudio-7.1/SDKS/StellarESDK-1.8.0/Modules/Platform/Clock/include/sr5e1\clock.h ****     }
1486:C:/StellarStudio-7.1/SDKS/StellarESDK-1.8.0/Modules/Platform/Clock/include/sr5e1\clock.h ****     else {
1487:C:/StellarStudio-7.1/SDKS/StellarESDK-1.8.0/Modules/Platform/Clock/include/sr5e1\clock.h ****         RCC->C1_APB2HSMENR &= ~m;
1488:C:/StellarStudio-7.1/SDKS/StellarESDK-1.8.0/Modules/Platform/Clock/include/sr5e1\clock.h **** #if CLOCK_CFG_SMP_MODE == TRUE
1489:C:/StellarStudio-7.1/SDKS/StellarESDK-1.8.0/Modules/Platform/Clock/include/sr5e1\clock.h ****         RCC->C2_APB2HSMENR &= ~m;
1490:C:/StellarStudio-7.1/SDKS/StellarESDK-1.8.0/Modules/Platform/Clock/include/sr5e1\clock.h **** #endif
1491:C:/StellarStudio-7.1/SDKS/StellarESDK-1.8.0/Modules/Platform/Clock/include/sr5e1\clock.h ****     }
1492:C:/StellarStudio-7.1/SDKS/StellarESDK-1.8.0/Modules/Platform/Clock/include/sr5e1\clock.h **** 
1493:C:/StellarStudio-7.1/SDKS/StellarESDK-1.8.0/Modules/Platform/Clock/include/sr5e1\clock.h ****     return RCC->APB2HENR;
1494:C:/StellarStudio-7.1/SDKS/StellarESDK-1.8.0/Modules/Platform/Clock/include/sr5e1\clock.h **** }
1495:C:/StellarStudio-7.1/SDKS/StellarESDK-1.8.0/Modules/Platform/Clock/include/sr5e1\clock.h **** 
1496:C:/StellarStudio-7.1/SDKS/StellarESDK-1.8.0/Modules/Platform/Clock/include/sr5e1\clock.h **** /**
1497:C:/StellarStudio-7.1/SDKS/StellarESDK-1.8.0/Modules/Platform/Clock/include/sr5e1\clock.h ****  * @brief   Disables APB2 peripherals clock [High Word]
1498:C:/StellarStudio-7.1/SDKS/StellarESDK-1.8.0/Modules/Platform/Clock/include/sr5e1\clock.h ****  *
1499:C:/StellarStudio-7.1/SDKS/StellarESDK-1.8.0/Modules/Platform/Clock/include/sr5e1\clock.h ****  * @param[in] m         peripheral clock to be disabled
1500:C:/StellarStudio-7.1/SDKS/StellarESDK-1.8.0/Modules/Platform/Clock/include/sr5e1\clock.h ****  * @return              value of register APB2HENR after the update
1501:C:/StellarStudio-7.1/SDKS/StellarESDK-1.8.0/Modules/Platform/Clock/include/sr5e1\clock.h ****  *
1502:C:/StellarStudio-7.1/SDKS/StellarESDK-1.8.0/Modules/Platform/Clock/include/sr5e1\clock.h ****  * @api
1503:C:/StellarStudio-7.1/SDKS/StellarESDK-1.8.0/Modules/Platform/Clock/include/sr5e1\clock.h ****  */
1504:C:/StellarStudio-7.1/SDKS/StellarESDK-1.8.0/Modules/Platform/Clock/include/sr5e1\clock.h **** __STATIC_FORCEINLINE uint32_t clock_disable_APB2H(uint32_t m) {
1505:C:/StellarStudio-7.1/SDKS/StellarESDK-1.8.0/Modules/Platform/Clock/include/sr5e1\clock.h **** 
1506:C:/StellarStudio-7.1/SDKS/StellarESDK-1.8.0/Modules/Platform/Clock/include/sr5e1\clock.h ****     RCC->APB2HENR &= ~m;
1507:C:/StellarStudio-7.1/SDKS/StellarESDK-1.8.0/Modules/Platform/Clock/include/sr5e1\clock.h ****     RCC->C1_APB2HSMENR &= ~m;
1508:C:/StellarStudio-7.1/SDKS/StellarESDK-1.8.0/Modules/Platform/Clock/include/sr5e1\clock.h **** #if CLOCK_CFG_SMP_MODE == TRUE
1509:C:/StellarStudio-7.1/SDKS/StellarESDK-1.8.0/Modules/Platform/Clock/include/sr5e1\clock.h ****     RCC->C2_APB2HSMENR &= ~m;
1510:C:/StellarStudio-7.1/SDKS/StellarESDK-1.8.0/Modules/Platform/Clock/include/sr5e1\clock.h **** #endif
1511:C:/StellarStudio-7.1/SDKS/StellarESDK-1.8.0/Modules/Platform/Clock/include/sr5e1\clock.h **** 
1512:C:/StellarStudio-7.1/SDKS/StellarESDK-1.8.0/Modules/Platform/Clock/include/sr5e1\clock.h ****     return RCC->APB2HENR;
1513:C:/StellarStudio-7.1/SDKS/StellarESDK-1.8.0/Modules/Platform/Clock/include/sr5e1\clock.h **** }
1514:C:/StellarStudio-7.1/SDKS/StellarESDK-1.8.0/Modules/Platform/Clock/include/sr5e1\clock.h **** 
1515:C:/StellarStudio-7.1/SDKS/StellarESDK-1.8.0/Modules/Platform/Clock/include/sr5e1\clock.h **** /**
1516:C:/StellarStudio-7.1/SDKS/StellarESDK-1.8.0/Modules/Platform/Clock/include/sr5e1\clock.h ****  * @brief   Checks if APB2 peripheral clock [High Word] is enabled
1517:C:/StellarStudio-7.1/SDKS/StellarESDK-1.8.0/Modules/Platform/Clock/include/sr5e1\clock.h ****  *
1518:C:/StellarStudio-7.1/SDKS/StellarESDK-1.8.0/Modules/Platform/Clock/include/sr5e1\clock.h ****  * @param[in] m         peripheral clock to be checked
1519:C:/StellarStudio-7.1/SDKS/StellarESDK-1.8.0/Modules/Platform/Clock/include/sr5e1\clock.h ****  * @return              true if the clock is enabled, false otherwise
1520:C:/StellarStudio-7.1/SDKS/StellarESDK-1.8.0/Modules/Platform/Clock/include/sr5e1\clock.h ****  *
1521:C:/StellarStudio-7.1/SDKS/StellarESDK-1.8.0/Modules/Platform/Clock/include/sr5e1\clock.h ****  * @api
1522:C:/StellarStudio-7.1/SDKS/StellarESDK-1.8.0/Modules/Platform/Clock/include/sr5e1\clock.h ****  */
1523:C:/StellarStudio-7.1/SDKS/StellarESDK-1.8.0/Modules/Platform/Clock/include/sr5e1\clock.h **** __STATIC_FORCEINLINE bool is_clock_enable_APB2H(uint32_t m) {
1524:C:/StellarStudio-7.1/SDKS/StellarESDK-1.8.0/Modules/Platform/Clock/include/sr5e1\clock.h **** 
1525:C:/StellarStudio-7.1/SDKS/StellarESDK-1.8.0/Modules/Platform/Clock/include/sr5e1\clock.h ****     return (((RCC->APB2HENR & m) == m) ? true : false);
1526:C:/StellarStudio-7.1/SDKS/StellarESDK-1.8.0/Modules/Platform/Clock/include/sr5e1\clock.h **** }
1527:C:/StellarStudio-7.1/SDKS/StellarESDK-1.8.0/Modules/Platform/Clock/include/sr5e1\clock.h **** 
1528:C:/StellarStudio-7.1/SDKS/StellarESDK-1.8.0/Modules/Platform/Clock/include/sr5e1\clock.h **** /**
1529:C:/StellarStudio-7.1/SDKS/StellarESDK-1.8.0/Modules/Platform/Clock/include/sr5e1\clock.h ****  * @brief   Resets APB2 peripherals [High Word]
1530:C:/StellarStudio-7.1/SDKS/StellarESDK-1.8.0/Modules/Platform/Clock/include/sr5e1\clock.h ****  *
1531:C:/StellarStudio-7.1/SDKS/StellarESDK-1.8.0/Modules/Platform/Clock/include/sr5e1\clock.h ****  * @param[in] m         peripheral to reset
1532:C:/StellarStudio-7.1/SDKS/StellarESDK-1.8.0/Modules/Platform/Clock/include/sr5e1\clock.h ****  *
1533:C:/StellarStudio-7.1/SDKS/StellarESDK-1.8.0/Modules/Platform/Clock/include/sr5e1\clock.h ****  * @api
1534:C:/StellarStudio-7.1/SDKS/StellarESDK-1.8.0/Modules/Platform/Clock/include/sr5e1\clock.h ****  */
1535:C:/StellarStudio-7.1/SDKS/StellarESDK-1.8.0/Modules/Platform/Clock/include/sr5e1\clock.h **** __STATIC_FORCEINLINE void clock_reset_APB2H(uint32_t m) {
1536:C:/StellarStudio-7.1/SDKS/StellarESDK-1.8.0/Modules/Platform/Clock/include/sr5e1\clock.h **** 
1537:C:/StellarStudio-7.1/SDKS/StellarESDK-1.8.0/Modules/Platform/Clock/include/sr5e1\clock.h ****     RCC->APB2HRSTR |= m;
1538:C:/StellarStudio-7.1/SDKS/StellarESDK-1.8.0/Modules/Platform/Clock/include/sr5e1\clock.h ****     RCC->APB2HRSTR &= ~m;
1539:C:/StellarStudio-7.1/SDKS/StellarESDK-1.8.0/Modules/Platform/Clock/include/sr5e1\clock.h ****     (void)RCC->APB2HRSTR;
1540:C:/StellarStudio-7.1/SDKS/StellarESDK-1.8.0/Modules/Platform/Clock/include/sr5e1\clock.h **** }
1541:C:/StellarStudio-7.1/SDKS/StellarESDK-1.8.0/Modules/Platform/Clock/include/sr5e1\clock.h **** 
1542:C:/StellarStudio-7.1/SDKS/StellarESDK-1.8.0/Modules/Platform/Clock/include/sr5e1\clock.h **** /**
1543:C:/StellarStudio-7.1/SDKS/StellarESDK-1.8.0/Modules/Platform/Clock/include/sr5e1\clock.h ****  * @brief   Enables CMU clock
1544:C:/StellarStudio-7.1/SDKS/StellarESDK-1.8.0/Modules/Platform/Clock/include/sr5e1\clock.h ****  *
1545:C:/StellarStudio-7.1/SDKS/StellarESDK-1.8.0/Modules/Platform/Clock/include/sr5e1\clock.h ****  * @param[in] m         CMU clock to be enabled
1546:C:/StellarStudio-7.1/SDKS/StellarESDK-1.8.0/Modules/Platform/Clock/include/sr5e1\clock.h ****  * @return              value of register CMUR after the update
1547:C:/StellarStudio-7.1/SDKS/StellarESDK-1.8.0/Modules/Platform/Clock/include/sr5e1\clock.h ****  *
1548:C:/StellarStudio-7.1/SDKS/StellarESDK-1.8.0/Modules/Platform/Clock/include/sr5e1\clock.h ****  * @api
1549:C:/StellarStudio-7.1/SDKS/StellarESDK-1.8.0/Modules/Platform/Clock/include/sr5e1\clock.h ****  */
1550:C:/StellarStudio-7.1/SDKS/StellarESDK-1.8.0/Modules/Platform/Clock/include/sr5e1\clock.h **** __STATIC_FORCEINLINE uint32_t clock_enable_CMU(uint32_t m) {
1551:C:/StellarStudio-7.1/SDKS/StellarESDK-1.8.0/Modules/Platform/Clock/include/sr5e1\clock.h **** 
1552:C:/StellarStudio-7.1/SDKS/StellarESDK-1.8.0/Modules/Platform/Clock/include/sr5e1\clock.h ****     RCC->CMUR |= m;
1553:C:/StellarStudio-7.1/SDKS/StellarESDK-1.8.0/Modules/Platform/Clock/include/sr5e1\clock.h **** 
1554:C:/StellarStudio-7.1/SDKS/StellarESDK-1.8.0/Modules/Platform/Clock/include/sr5e1\clock.h ****     return RCC->CMUR;
1555:C:/StellarStudio-7.1/SDKS/StellarESDK-1.8.0/Modules/Platform/Clock/include/sr5e1\clock.h **** }
1556:C:/StellarStudio-7.1/SDKS/StellarESDK-1.8.0/Modules/Platform/Clock/include/sr5e1\clock.h **** 
1557:C:/StellarStudio-7.1/SDKS/StellarESDK-1.8.0/Modules/Platform/Clock/include/sr5e1\clock.h **** /**
1558:C:/StellarStudio-7.1/SDKS/StellarESDK-1.8.0/Modules/Platform/Clock/include/sr5e1\clock.h ****  * @brief   Disables CMU clock
1559:C:/StellarStudio-7.1/SDKS/StellarESDK-1.8.0/Modules/Platform/Clock/include/sr5e1\clock.h ****  *
1560:C:/StellarStudio-7.1/SDKS/StellarESDK-1.8.0/Modules/Platform/Clock/include/sr5e1\clock.h ****  * @param[in] m         CMU clock to be disabled
1561:C:/StellarStudio-7.1/SDKS/StellarESDK-1.8.0/Modules/Platform/Clock/include/sr5e1\clock.h ****  * @return              value of register CMUR after the update
1562:C:/StellarStudio-7.1/SDKS/StellarESDK-1.8.0/Modules/Platform/Clock/include/sr5e1\clock.h ****  *
1563:C:/StellarStudio-7.1/SDKS/StellarESDK-1.8.0/Modules/Platform/Clock/include/sr5e1\clock.h ****  * @api
1564:C:/StellarStudio-7.1/SDKS/StellarESDK-1.8.0/Modules/Platform/Clock/include/sr5e1\clock.h ****  */
1565:C:/StellarStudio-7.1/SDKS/StellarESDK-1.8.0/Modules/Platform/Clock/include/sr5e1\clock.h **** __STATIC_FORCEINLINE uint32_t clock_disable_CMU(uint32_t m) {
1566:C:/StellarStudio-7.1/SDKS/StellarESDK-1.8.0/Modules/Platform/Clock/include/sr5e1\clock.h **** 
1567:C:/StellarStudio-7.1/SDKS/StellarESDK-1.8.0/Modules/Platform/Clock/include/sr5e1\clock.h ****     RCC->CMUR &= ~m;
1568:C:/StellarStudio-7.1/SDKS/StellarESDK-1.8.0/Modules/Platform/Clock/include/sr5e1\clock.h **** 
1569:C:/StellarStudio-7.1/SDKS/StellarESDK-1.8.0/Modules/Platform/Clock/include/sr5e1\clock.h ****     return RCC->CMUR;
1570:C:/StellarStudio-7.1/SDKS/StellarESDK-1.8.0/Modules/Platform/Clock/include/sr5e1\clock.h **** }
1571:C:/StellarStudio-7.1/SDKS/StellarESDK-1.8.0/Modules/Platform/Clock/include/sr5e1\clock.h **** 
1572:C:/StellarStudio-7.1/SDKS/StellarESDK-1.8.0/Modules/Platform/Clock/include/sr5e1\clock.h **** /**
1573:C:/StellarStudio-7.1/SDKS/StellarESDK-1.8.0/Modules/Platform/Clock/include/sr5e1\clock.h ****  * @brief   Checks if CMU clock is enabled
1574:C:/StellarStudio-7.1/SDKS/StellarESDK-1.8.0/Modules/Platform/Clock/include/sr5e1\clock.h ****  *
1575:C:/StellarStudio-7.1/SDKS/StellarESDK-1.8.0/Modules/Platform/Clock/include/sr5e1\clock.h ****  * @param[in] m         CMU clock to be checked
1576:C:/StellarStudio-7.1/SDKS/StellarESDK-1.8.0/Modules/Platform/Clock/include/sr5e1\clock.h ****  * @return              true if the clock is enabled, false otherwise
1577:C:/StellarStudio-7.1/SDKS/StellarESDK-1.8.0/Modules/Platform/Clock/include/sr5e1\clock.h ****  *
1578:C:/StellarStudio-7.1/SDKS/StellarESDK-1.8.0/Modules/Platform/Clock/include/sr5e1\clock.h ****  * @api
1579:C:/StellarStudio-7.1/SDKS/StellarESDK-1.8.0/Modules/Platform/Clock/include/sr5e1\clock.h ****  */
1580:C:/StellarStudio-7.1/SDKS/StellarESDK-1.8.0/Modules/Platform/Clock/include/sr5e1\clock.h **** __STATIC_FORCEINLINE bool is_clock_enable_CMU(uint32_t m) {
1581:C:/StellarStudio-7.1/SDKS/StellarESDK-1.8.0/Modules/Platform/Clock/include/sr5e1\clock.h **** 
1582:C:/StellarStudio-7.1/SDKS/StellarESDK-1.8.0/Modules/Platform/Clock/include/sr5e1\clock.h ****     return (((RCC->CMUR & m) == m) ? true : false);
1583:C:/StellarStudio-7.1/SDKS/StellarESDK-1.8.0/Modules/Platform/Clock/include/sr5e1\clock.h **** }
1584:C:/StellarStudio-7.1/SDKS/StellarESDK-1.8.0/Modules/Platform/Clock/include/sr5e1\clock.h **** 
1585:C:/StellarStudio-7.1/SDKS/StellarESDK-1.8.0/Modules/Platform/Clock/include/sr5e1\clock.h **** /**
1586:C:/StellarStudio-7.1/SDKS/StellarESDK-1.8.0/Modules/Platform/Clock/include/sr5e1\clock.h ****  * @brief   Resets CMU
1587:C:/StellarStudio-7.1/SDKS/StellarESDK-1.8.0/Modules/Platform/Clock/include/sr5e1\clock.h ****  *
1588:C:/StellarStudio-7.1/SDKS/StellarESDK-1.8.0/Modules/Platform/Clock/include/sr5e1\clock.h ****  * @param[in] m         CMU to reset
1589:C:/StellarStudio-7.1/SDKS/StellarESDK-1.8.0/Modules/Platform/Clock/include/sr5e1\clock.h ****  *
1590:C:/StellarStudio-7.1/SDKS/StellarESDK-1.8.0/Modules/Platform/Clock/include/sr5e1\clock.h ****  * @api
1591:C:/StellarStudio-7.1/SDKS/StellarESDK-1.8.0/Modules/Platform/Clock/include/sr5e1\clock.h ****  */
1592:C:/StellarStudio-7.1/SDKS/StellarESDK-1.8.0/Modules/Platform/Clock/include/sr5e1\clock.h **** __STATIC_FORCEINLINE void clock_reset_CMU(uint32_t m) {
1593:C:/StellarStudio-7.1/SDKS/StellarESDK-1.8.0/Modules/Platform/Clock/include/sr5e1\clock.h **** 
1594:C:/StellarStudio-7.1/SDKS/StellarESDK-1.8.0/Modules/Platform/Clock/include/sr5e1\clock.h ****     RCC->CMUR |= m;
1595:C:/StellarStudio-7.1/SDKS/StellarESDK-1.8.0/Modules/Platform/Clock/include/sr5e1\clock.h ****     (void)RCC->CMUR;
1596:C:/StellarStudio-7.1/SDKS/StellarESDK-1.8.0/Modules/Platform/Clock/include/sr5e1\clock.h **** }
1597:C:/StellarStudio-7.1/SDKS/StellarESDK-1.8.0/Modules/Platform/Clock/include/sr5e1\clock.h **** 
1598:C:/StellarStudio-7.1/SDKS/StellarESDK-1.8.0/Modules/Platform/Clock/include/sr5e1\clock.h **** /**
1599:C:/StellarStudio-7.1/SDKS/StellarESDK-1.8.0/Modules/Platform/Clock/include/sr5e1\clock.h ****  * @brief   Enables DMA1 clock
1600:C:/StellarStudio-7.1/SDKS/StellarESDK-1.8.0/Modules/Platform/Clock/include/sr5e1\clock.h ****  *
1601:C:/StellarStudio-7.1/SDKS/StellarESDK-1.8.0/Modules/Platform/Clock/include/sr5e1\clock.h ****  * @param[in] smode     sleep mode (if true, peripheral clock is enabled in
1602:C:/StellarStudio-7.1/SDKS/StellarESDK-1.8.0/Modules/Platform/Clock/include/sr5e1\clock.h ****  *                      sleep mode)
1603:C:/StellarStudio-7.1/SDKS/StellarESDK-1.8.0/Modules/Platform/Clock/include/sr5e1\clock.h ****  *
1604:C:/StellarStudio-7.1/SDKS/StellarESDK-1.8.0/Modules/Platform/Clock/include/sr5e1\clock.h ****  * @api
1605:C:/StellarStudio-7.1/SDKS/StellarESDK-1.8.0/Modules/Platform/Clock/include/sr5e1\clock.h ****  */
1606:C:/StellarStudio-7.1/SDKS/StellarESDK-1.8.0/Modules/Platform/Clock/include/sr5e1\clock.h **** __STATIC_FORCEINLINE void clock_enable_DMA1(bool smode) {
1607:C:/StellarStudio-7.1/SDKS/StellarESDK-1.8.0/Modules/Platform/Clock/include/sr5e1\clock.h **** 
1608:C:/StellarStudio-7.1/SDKS/StellarESDK-1.8.0/Modules/Platform/Clock/include/sr5e1\clock.h ****     clock_enable_AHB2L(smode, RCC_AHB2LENR_DMA1);
1609:C:/StellarStudio-7.1/SDKS/StellarESDK-1.8.0/Modules/Platform/Clock/include/sr5e1\clock.h **** }
1610:C:/StellarStudio-7.1/SDKS/StellarESDK-1.8.0/Modules/Platform/Clock/include/sr5e1\clock.h **** 
1611:C:/StellarStudio-7.1/SDKS/StellarESDK-1.8.0/Modules/Platform/Clock/include/sr5e1\clock.h **** /**
1612:C:/StellarStudio-7.1/SDKS/StellarESDK-1.8.0/Modules/Platform/Clock/include/sr5e1\clock.h ****  * @brief   Disables DMA1 clock
1613:C:/StellarStudio-7.1/SDKS/StellarESDK-1.8.0/Modules/Platform/Clock/include/sr5e1\clock.h ****  *
1614:C:/StellarStudio-7.1/SDKS/StellarESDK-1.8.0/Modules/Platform/Clock/include/sr5e1\clock.h ****  * @api
1615:C:/StellarStudio-7.1/SDKS/StellarESDK-1.8.0/Modules/Platform/Clock/include/sr5e1\clock.h ****  */
1616:C:/StellarStudio-7.1/SDKS/StellarESDK-1.8.0/Modules/Platform/Clock/include/sr5e1\clock.h **** __STATIC_FORCEINLINE void clock_disable_DMA1(void) {
1617:C:/StellarStudio-7.1/SDKS/StellarESDK-1.8.0/Modules/Platform/Clock/include/sr5e1\clock.h **** 
1618:C:/StellarStudio-7.1/SDKS/StellarESDK-1.8.0/Modules/Platform/Clock/include/sr5e1\clock.h ****     clock_disable_AHB2L(RCC_AHB2LENR_DMA1);
1619:C:/StellarStudio-7.1/SDKS/StellarESDK-1.8.0/Modules/Platform/Clock/include/sr5e1\clock.h **** }
1620:C:/StellarStudio-7.1/SDKS/StellarESDK-1.8.0/Modules/Platform/Clock/include/sr5e1\clock.h **** 
1621:C:/StellarStudio-7.1/SDKS/StellarESDK-1.8.0/Modules/Platform/Clock/include/sr5e1\clock.h **** /**
1622:C:/StellarStudio-7.1/SDKS/StellarESDK-1.8.0/Modules/Platform/Clock/include/sr5e1\clock.h ****  * @brief   Checks if DMA1 clock is enabled
1623:C:/StellarStudio-7.1/SDKS/StellarESDK-1.8.0/Modules/Platform/Clock/include/sr5e1\clock.h ****  *
1624:C:/StellarStudio-7.1/SDKS/StellarESDK-1.8.0/Modules/Platform/Clock/include/sr5e1\clock.h ****  * @return              true if the clock is enabled, false otherwise
1625:C:/StellarStudio-7.1/SDKS/StellarESDK-1.8.0/Modules/Platform/Clock/include/sr5e1\clock.h ****  *
1626:C:/StellarStudio-7.1/SDKS/StellarESDK-1.8.0/Modules/Platform/Clock/include/sr5e1\clock.h ****  * @api
1627:C:/StellarStudio-7.1/SDKS/StellarESDK-1.8.0/Modules/Platform/Clock/include/sr5e1\clock.h ****  */
1628:C:/StellarStudio-7.1/SDKS/StellarESDK-1.8.0/Modules/Platform/Clock/include/sr5e1\clock.h **** __STATIC_FORCEINLINE bool is_clock_enable_DMA1(void) {
1629:C:/StellarStudio-7.1/SDKS/StellarESDK-1.8.0/Modules/Platform/Clock/include/sr5e1\clock.h **** 
1630:C:/StellarStudio-7.1/SDKS/StellarESDK-1.8.0/Modules/Platform/Clock/include/sr5e1\clock.h ****     return is_clock_enable_AHB2L(RCC_AHB2LENR_DMA1);
1631:C:/StellarStudio-7.1/SDKS/StellarESDK-1.8.0/Modules/Platform/Clock/include/sr5e1\clock.h **** }
1632:C:/StellarStudio-7.1/SDKS/StellarESDK-1.8.0/Modules/Platform/Clock/include/sr5e1\clock.h **** 
1633:C:/StellarStudio-7.1/SDKS/StellarESDK-1.8.0/Modules/Platform/Clock/include/sr5e1\clock.h **** /**
1634:C:/StellarStudio-7.1/SDKS/StellarESDK-1.8.0/Modules/Platform/Clock/include/sr5e1\clock.h ****  * @brief   Resets DMA1
1635:C:/StellarStudio-7.1/SDKS/StellarESDK-1.8.0/Modules/Platform/Clock/include/sr5e1\clock.h ****  *
1636:C:/StellarStudio-7.1/SDKS/StellarESDK-1.8.0/Modules/Platform/Clock/include/sr5e1\clock.h ****  * @api
1637:C:/StellarStudio-7.1/SDKS/StellarESDK-1.8.0/Modules/Platform/Clock/include/sr5e1\clock.h ****  */
1638:C:/StellarStudio-7.1/SDKS/StellarESDK-1.8.0/Modules/Platform/Clock/include/sr5e1\clock.h **** __STATIC_FORCEINLINE void clock_reset_DMA1(void) {
1639:C:/StellarStudio-7.1/SDKS/StellarESDK-1.8.0/Modules/Platform/Clock/include/sr5e1\clock.h **** 
1640:C:/StellarStudio-7.1/SDKS/StellarESDK-1.8.0/Modules/Platform/Clock/include/sr5e1\clock.h ****     clock_reset_AHB2L(RCC_AHB2LRSTR_DMA1);
1641:C:/StellarStudio-7.1/SDKS/StellarESDK-1.8.0/Modules/Platform/Clock/include/sr5e1\clock.h **** }
1642:C:/StellarStudio-7.1/SDKS/StellarESDK-1.8.0/Modules/Platform/Clock/include/sr5e1\clock.h **** 
1643:C:/StellarStudio-7.1/SDKS/StellarESDK-1.8.0/Modules/Platform/Clock/include/sr5e1\clock.h **** /**
1644:C:/StellarStudio-7.1/SDKS/StellarESDK-1.8.0/Modules/Platform/Clock/include/sr5e1\clock.h ****  * @brief   Enables DMA2 clock
1645:C:/StellarStudio-7.1/SDKS/StellarESDK-1.8.0/Modules/Platform/Clock/include/sr5e1\clock.h ****  *
1646:C:/StellarStudio-7.1/SDKS/StellarESDK-1.8.0/Modules/Platform/Clock/include/sr5e1\clock.h ****  * @param[in] smode     sleep mode (if true, peripheral clock is enabled in
1647:C:/StellarStudio-7.1/SDKS/StellarESDK-1.8.0/Modules/Platform/Clock/include/sr5e1\clock.h ****  *                      sleep mode)
1648:C:/StellarStudio-7.1/SDKS/StellarESDK-1.8.0/Modules/Platform/Clock/include/sr5e1\clock.h ****  *
1649:C:/StellarStudio-7.1/SDKS/StellarESDK-1.8.0/Modules/Platform/Clock/include/sr5e1\clock.h ****  * @api
1650:C:/StellarStudio-7.1/SDKS/StellarESDK-1.8.0/Modules/Platform/Clock/include/sr5e1\clock.h ****  */
1651:C:/StellarStudio-7.1/SDKS/StellarESDK-1.8.0/Modules/Platform/Clock/include/sr5e1\clock.h **** __STATIC_FORCEINLINE void clock_enable_DMA2(bool smode) {
1652:C:/StellarStudio-7.1/SDKS/StellarESDK-1.8.0/Modules/Platform/Clock/include/sr5e1\clock.h **** 
1653:C:/StellarStudio-7.1/SDKS/StellarESDK-1.8.0/Modules/Platform/Clock/include/sr5e1\clock.h ****     clock_enable_AHB1L(smode, RCC_AHB1LENR_DMA2);
1654:C:/StellarStudio-7.1/SDKS/StellarESDK-1.8.0/Modules/Platform/Clock/include/sr5e1\clock.h **** }
1655:C:/StellarStudio-7.1/SDKS/StellarESDK-1.8.0/Modules/Platform/Clock/include/sr5e1\clock.h **** 
1656:C:/StellarStudio-7.1/SDKS/StellarESDK-1.8.0/Modules/Platform/Clock/include/sr5e1\clock.h **** /**
1657:C:/StellarStudio-7.1/SDKS/StellarESDK-1.8.0/Modules/Platform/Clock/include/sr5e1\clock.h ****  * @brief   Disables DMA2 clock
1658:C:/StellarStudio-7.1/SDKS/StellarESDK-1.8.0/Modules/Platform/Clock/include/sr5e1\clock.h ****  *
1659:C:/StellarStudio-7.1/SDKS/StellarESDK-1.8.0/Modules/Platform/Clock/include/sr5e1\clock.h ****  * @api
1660:C:/StellarStudio-7.1/SDKS/StellarESDK-1.8.0/Modules/Platform/Clock/include/sr5e1\clock.h ****  */
1661:C:/StellarStudio-7.1/SDKS/StellarESDK-1.8.0/Modules/Platform/Clock/include/sr5e1\clock.h **** __STATIC_FORCEINLINE void clock_disable_DMA2(void) {
1662:C:/StellarStudio-7.1/SDKS/StellarESDK-1.8.0/Modules/Platform/Clock/include/sr5e1\clock.h **** 
1663:C:/StellarStudio-7.1/SDKS/StellarESDK-1.8.0/Modules/Platform/Clock/include/sr5e1\clock.h ****     clock_disable_AHB1L(RCC_AHB1LENR_DMA2);
1664:C:/StellarStudio-7.1/SDKS/StellarESDK-1.8.0/Modules/Platform/Clock/include/sr5e1\clock.h **** }
1665:C:/StellarStudio-7.1/SDKS/StellarESDK-1.8.0/Modules/Platform/Clock/include/sr5e1\clock.h **** 
1666:C:/StellarStudio-7.1/SDKS/StellarESDK-1.8.0/Modules/Platform/Clock/include/sr5e1\clock.h **** /**
1667:C:/StellarStudio-7.1/SDKS/StellarESDK-1.8.0/Modules/Platform/Clock/include/sr5e1\clock.h ****  * @brief   Checks if DMA2 clock is enabled
1668:C:/StellarStudio-7.1/SDKS/StellarESDK-1.8.0/Modules/Platform/Clock/include/sr5e1\clock.h ****  *
1669:C:/StellarStudio-7.1/SDKS/StellarESDK-1.8.0/Modules/Platform/Clock/include/sr5e1\clock.h ****  * @return              true if the clock is enabled, false otherwise
1670:C:/StellarStudio-7.1/SDKS/StellarESDK-1.8.0/Modules/Platform/Clock/include/sr5e1\clock.h ****  *
1671:C:/StellarStudio-7.1/SDKS/StellarESDK-1.8.0/Modules/Platform/Clock/include/sr5e1\clock.h ****  * @api
1672:C:/StellarStudio-7.1/SDKS/StellarESDK-1.8.0/Modules/Platform/Clock/include/sr5e1\clock.h ****  */
1673:C:/StellarStudio-7.1/SDKS/StellarESDK-1.8.0/Modules/Platform/Clock/include/sr5e1\clock.h **** __STATIC_FORCEINLINE bool is_clock_enable_DMA2(void) {
1674:C:/StellarStudio-7.1/SDKS/StellarESDK-1.8.0/Modules/Platform/Clock/include/sr5e1\clock.h **** 
1675:C:/StellarStudio-7.1/SDKS/StellarESDK-1.8.0/Modules/Platform/Clock/include/sr5e1\clock.h ****     return is_clock_enable_AHB1L(RCC_AHB1LENR_DMA2);
1676:C:/StellarStudio-7.1/SDKS/StellarESDK-1.8.0/Modules/Platform/Clock/include/sr5e1\clock.h **** }
1677:C:/StellarStudio-7.1/SDKS/StellarESDK-1.8.0/Modules/Platform/Clock/include/sr5e1\clock.h **** 
1678:C:/StellarStudio-7.1/SDKS/StellarESDK-1.8.0/Modules/Platform/Clock/include/sr5e1\clock.h **** /**
1679:C:/StellarStudio-7.1/SDKS/StellarESDK-1.8.0/Modules/Platform/Clock/include/sr5e1\clock.h ****  * @brief   Resets DMA2
1680:C:/StellarStudio-7.1/SDKS/StellarESDK-1.8.0/Modules/Platform/Clock/include/sr5e1\clock.h ****  *
1681:C:/StellarStudio-7.1/SDKS/StellarESDK-1.8.0/Modules/Platform/Clock/include/sr5e1\clock.h ****  * @api
1682:C:/StellarStudio-7.1/SDKS/StellarESDK-1.8.0/Modules/Platform/Clock/include/sr5e1\clock.h ****  */
1683:C:/StellarStudio-7.1/SDKS/StellarESDK-1.8.0/Modules/Platform/Clock/include/sr5e1\clock.h **** __STATIC_FORCEINLINE void clock_reset_DMA2(void) {
1684:C:/StellarStudio-7.1/SDKS/StellarESDK-1.8.0/Modules/Platform/Clock/include/sr5e1\clock.h **** 
1685:C:/StellarStudio-7.1/SDKS/StellarESDK-1.8.0/Modules/Platform/Clock/include/sr5e1\clock.h ****     clock_reset_AHB1L(RCC_AHB1LRSTR_DMA2);
1686:C:/StellarStudio-7.1/SDKS/StellarESDK-1.8.0/Modules/Platform/Clock/include/sr5e1\clock.h **** }
1687:C:/StellarStudio-7.1/SDKS/StellarESDK-1.8.0/Modules/Platform/Clock/include/sr5e1\clock.h **** 
1688:C:/StellarStudio-7.1/SDKS/StellarESDK-1.8.0/Modules/Platform/Clock/include/sr5e1\clock.h **** /**
1689:C:/StellarStudio-7.1/SDKS/StellarESDK-1.8.0/Modules/Platform/Clock/include/sr5e1\clock.h ****  * @brief   Enables DMAMUX1 clock
1690:C:/StellarStudio-7.1/SDKS/StellarESDK-1.8.0/Modules/Platform/Clock/include/sr5e1\clock.h ****  *
1691:C:/StellarStudio-7.1/SDKS/StellarESDK-1.8.0/Modules/Platform/Clock/include/sr5e1\clock.h ****  * @param[in] smode     sleep mode (if true, peripheral clock is enabled in
1692:C:/StellarStudio-7.1/SDKS/StellarESDK-1.8.0/Modules/Platform/Clock/include/sr5e1\clock.h ****  *                      sleep mode)
1693:C:/StellarStudio-7.1/SDKS/StellarESDK-1.8.0/Modules/Platform/Clock/include/sr5e1\clock.h ****  *
1694:C:/StellarStudio-7.1/SDKS/StellarESDK-1.8.0/Modules/Platform/Clock/include/sr5e1\clock.h ****  * @api
1695:C:/StellarStudio-7.1/SDKS/StellarESDK-1.8.0/Modules/Platform/Clock/include/sr5e1\clock.h ****  */
1696:C:/StellarStudio-7.1/SDKS/StellarESDK-1.8.0/Modules/Platform/Clock/include/sr5e1\clock.h **** __STATIC_FORCEINLINE void clock_enable_DMAMUX1(bool smode) {
1697:C:/StellarStudio-7.1/SDKS/StellarESDK-1.8.0/Modules/Platform/Clock/include/sr5e1\clock.h **** 
1698:C:/StellarStudio-7.1/SDKS/StellarESDK-1.8.0/Modules/Platform/Clock/include/sr5e1\clock.h ****     clock_enable_AHB2L(smode, RCC_AHB2LENR_DMAMUX1);
1699:C:/StellarStudio-7.1/SDKS/StellarESDK-1.8.0/Modules/Platform/Clock/include/sr5e1\clock.h **** }
1700:C:/StellarStudio-7.1/SDKS/StellarESDK-1.8.0/Modules/Platform/Clock/include/sr5e1\clock.h **** 
1701:C:/StellarStudio-7.1/SDKS/StellarESDK-1.8.0/Modules/Platform/Clock/include/sr5e1\clock.h **** /**
1702:C:/StellarStudio-7.1/SDKS/StellarESDK-1.8.0/Modules/Platform/Clock/include/sr5e1\clock.h ****  * @brief   Disables DMAMUX1 clock
1703:C:/StellarStudio-7.1/SDKS/StellarESDK-1.8.0/Modules/Platform/Clock/include/sr5e1\clock.h ****  *
1704:C:/StellarStudio-7.1/SDKS/StellarESDK-1.8.0/Modules/Platform/Clock/include/sr5e1\clock.h ****  * @api
1705:C:/StellarStudio-7.1/SDKS/StellarESDK-1.8.0/Modules/Platform/Clock/include/sr5e1\clock.h ****  */
1706:C:/StellarStudio-7.1/SDKS/StellarESDK-1.8.0/Modules/Platform/Clock/include/sr5e1\clock.h **** __STATIC_FORCEINLINE void clock_disable_DMAMUX1(void) {
1707:C:/StellarStudio-7.1/SDKS/StellarESDK-1.8.0/Modules/Platform/Clock/include/sr5e1\clock.h **** 
1708:C:/StellarStudio-7.1/SDKS/StellarESDK-1.8.0/Modules/Platform/Clock/include/sr5e1\clock.h ****     clock_disable_AHB2L(RCC_AHB2LENR_DMAMUX1);
1709:C:/StellarStudio-7.1/SDKS/StellarESDK-1.8.0/Modules/Platform/Clock/include/sr5e1\clock.h **** }
1710:C:/StellarStudio-7.1/SDKS/StellarESDK-1.8.0/Modules/Platform/Clock/include/sr5e1\clock.h **** 
1711:C:/StellarStudio-7.1/SDKS/StellarESDK-1.8.0/Modules/Platform/Clock/include/sr5e1\clock.h **** /**
1712:C:/StellarStudio-7.1/SDKS/StellarESDK-1.8.0/Modules/Platform/Clock/include/sr5e1\clock.h ****  * @brief   Checks if DMAMUX1 clock is enabled
1713:C:/StellarStudio-7.1/SDKS/StellarESDK-1.8.0/Modules/Platform/Clock/include/sr5e1\clock.h ****  *
1714:C:/StellarStudio-7.1/SDKS/StellarESDK-1.8.0/Modules/Platform/Clock/include/sr5e1\clock.h ****  * @return              true if the clock is enabled, false otherwise
1715:C:/StellarStudio-7.1/SDKS/StellarESDK-1.8.0/Modules/Platform/Clock/include/sr5e1\clock.h ****  *
1716:C:/StellarStudio-7.1/SDKS/StellarESDK-1.8.0/Modules/Platform/Clock/include/sr5e1\clock.h ****  * @api
1717:C:/StellarStudio-7.1/SDKS/StellarESDK-1.8.0/Modules/Platform/Clock/include/sr5e1\clock.h ****  */
1718:C:/StellarStudio-7.1/SDKS/StellarESDK-1.8.0/Modules/Platform/Clock/include/sr5e1\clock.h **** __STATIC_FORCEINLINE bool is_clock_enable_DMAMUX1(void) {
1719:C:/StellarStudio-7.1/SDKS/StellarESDK-1.8.0/Modules/Platform/Clock/include/sr5e1\clock.h **** 
1720:C:/StellarStudio-7.1/SDKS/StellarESDK-1.8.0/Modules/Platform/Clock/include/sr5e1\clock.h ****     return is_clock_enable_AHB2L(RCC_AHB2LENR_DMAMUX1);
1721:C:/StellarStudio-7.1/SDKS/StellarESDK-1.8.0/Modules/Platform/Clock/include/sr5e1\clock.h **** }
1722:C:/StellarStudio-7.1/SDKS/StellarESDK-1.8.0/Modules/Platform/Clock/include/sr5e1\clock.h **** 
1723:C:/StellarStudio-7.1/SDKS/StellarESDK-1.8.0/Modules/Platform/Clock/include/sr5e1\clock.h **** /**
1724:C:/StellarStudio-7.1/SDKS/StellarESDK-1.8.0/Modules/Platform/Clock/include/sr5e1\clock.h ****  * @brief   Resets DMAMUX1
1725:C:/StellarStudio-7.1/SDKS/StellarESDK-1.8.0/Modules/Platform/Clock/include/sr5e1\clock.h ****  *
1726:C:/StellarStudio-7.1/SDKS/StellarESDK-1.8.0/Modules/Platform/Clock/include/sr5e1\clock.h ****  * @api
1727:C:/StellarStudio-7.1/SDKS/StellarESDK-1.8.0/Modules/Platform/Clock/include/sr5e1\clock.h ****  */
1728:C:/StellarStudio-7.1/SDKS/StellarESDK-1.8.0/Modules/Platform/Clock/include/sr5e1\clock.h **** __STATIC_FORCEINLINE void clock_reset_DMAMUX1(void) {
1729:C:/StellarStudio-7.1/SDKS/StellarESDK-1.8.0/Modules/Platform/Clock/include/sr5e1\clock.h **** 
1730:C:/StellarStudio-7.1/SDKS/StellarESDK-1.8.0/Modules/Platform/Clock/include/sr5e1\clock.h ****     clock_reset_AHB2L(RCC_AHB2LRSTR_DMAMUX1);
1731:C:/StellarStudio-7.1/SDKS/StellarESDK-1.8.0/Modules/Platform/Clock/include/sr5e1\clock.h **** }
1732:C:/StellarStudio-7.1/SDKS/StellarESDK-1.8.0/Modules/Platform/Clock/include/sr5e1\clock.h **** 
1733:C:/StellarStudio-7.1/SDKS/StellarESDK-1.8.0/Modules/Platform/Clock/include/sr5e1\clock.h **** /**
1734:C:/StellarStudio-7.1/SDKS/StellarESDK-1.8.0/Modules/Platform/Clock/include/sr5e1\clock.h ****  * @brief   Enables CORDIC clock
1735:C:/StellarStudio-7.1/SDKS/StellarESDK-1.8.0/Modules/Platform/Clock/include/sr5e1\clock.h ****  *
1736:C:/StellarStudio-7.1/SDKS/StellarESDK-1.8.0/Modules/Platform/Clock/include/sr5e1\clock.h ****  * @param[in] smode     sleep mode (if true, peripheral clock is enabled in
1737:C:/StellarStudio-7.1/SDKS/StellarESDK-1.8.0/Modules/Platform/Clock/include/sr5e1\clock.h ****  *                      sleep mode)
1738:C:/StellarStudio-7.1/SDKS/StellarESDK-1.8.0/Modules/Platform/Clock/include/sr5e1\clock.h ****  *
1739:C:/StellarStudio-7.1/SDKS/StellarESDK-1.8.0/Modules/Platform/Clock/include/sr5e1\clock.h ****  * @api
1740:C:/StellarStudio-7.1/SDKS/StellarESDK-1.8.0/Modules/Platform/Clock/include/sr5e1\clock.h ****  */
1741:C:/StellarStudio-7.1/SDKS/StellarESDK-1.8.0/Modules/Platform/Clock/include/sr5e1\clock.h **** __STATIC_FORCEINLINE void clock_enable_CORDIC(bool smode) {
1742:C:/StellarStudio-7.1/SDKS/StellarESDK-1.8.0/Modules/Platform/Clock/include/sr5e1\clock.h **** 
1743:C:/StellarStudio-7.1/SDKS/StellarESDK-1.8.0/Modules/Platform/Clock/include/sr5e1\clock.h ****     clock_enable_AHB1L(smode, RCC_AHB1LENR_CORDIC);
1744:C:/StellarStudio-7.1/SDKS/StellarESDK-1.8.0/Modules/Platform/Clock/include/sr5e1\clock.h **** }
1745:C:/StellarStudio-7.1/SDKS/StellarESDK-1.8.0/Modules/Platform/Clock/include/sr5e1\clock.h **** 
1746:C:/StellarStudio-7.1/SDKS/StellarESDK-1.8.0/Modules/Platform/Clock/include/sr5e1\clock.h **** /**
1747:C:/StellarStudio-7.1/SDKS/StellarESDK-1.8.0/Modules/Platform/Clock/include/sr5e1\clock.h ****  * @brief   Disables CORDIC clock
1748:C:/StellarStudio-7.1/SDKS/StellarESDK-1.8.0/Modules/Platform/Clock/include/sr5e1\clock.h ****  *
1749:C:/StellarStudio-7.1/SDKS/StellarESDK-1.8.0/Modules/Platform/Clock/include/sr5e1\clock.h ****  * @api
1750:C:/StellarStudio-7.1/SDKS/StellarESDK-1.8.0/Modules/Platform/Clock/include/sr5e1\clock.h ****  */
1751:C:/StellarStudio-7.1/SDKS/StellarESDK-1.8.0/Modules/Platform/Clock/include/sr5e1\clock.h **** __STATIC_FORCEINLINE void clock_disable_CORDIC(void) {
1752:C:/StellarStudio-7.1/SDKS/StellarESDK-1.8.0/Modules/Platform/Clock/include/sr5e1\clock.h **** 
1753:C:/StellarStudio-7.1/SDKS/StellarESDK-1.8.0/Modules/Platform/Clock/include/sr5e1\clock.h ****     clock_disable_AHB1L(RCC_AHB1LENR_CORDIC);
1754:C:/StellarStudio-7.1/SDKS/StellarESDK-1.8.0/Modules/Platform/Clock/include/sr5e1\clock.h **** }
1755:C:/StellarStudio-7.1/SDKS/StellarESDK-1.8.0/Modules/Platform/Clock/include/sr5e1\clock.h **** 
1756:C:/StellarStudio-7.1/SDKS/StellarESDK-1.8.0/Modules/Platform/Clock/include/sr5e1\clock.h **** /**
1757:C:/StellarStudio-7.1/SDKS/StellarESDK-1.8.0/Modules/Platform/Clock/include/sr5e1\clock.h ****  * @brief   Checks if CORDIC clock is enabled
1758:C:/StellarStudio-7.1/SDKS/StellarESDK-1.8.0/Modules/Platform/Clock/include/sr5e1\clock.h ****  *
1759:C:/StellarStudio-7.1/SDKS/StellarESDK-1.8.0/Modules/Platform/Clock/include/sr5e1\clock.h ****  * @return              true if the clock is enabled, false otherwise
1760:C:/StellarStudio-7.1/SDKS/StellarESDK-1.8.0/Modules/Platform/Clock/include/sr5e1\clock.h ****  *
1761:C:/StellarStudio-7.1/SDKS/StellarESDK-1.8.0/Modules/Platform/Clock/include/sr5e1\clock.h ****  * @api
1762:C:/StellarStudio-7.1/SDKS/StellarESDK-1.8.0/Modules/Platform/Clock/include/sr5e1\clock.h ****  */
1763:C:/StellarStudio-7.1/SDKS/StellarESDK-1.8.0/Modules/Platform/Clock/include/sr5e1\clock.h **** __STATIC_FORCEINLINE bool is_clock_enable_CORDIC(void) {
1764:C:/StellarStudio-7.1/SDKS/StellarESDK-1.8.0/Modules/Platform/Clock/include/sr5e1\clock.h **** 
1765:C:/StellarStudio-7.1/SDKS/StellarESDK-1.8.0/Modules/Platform/Clock/include/sr5e1\clock.h ****     return is_clock_enable_AHB1L(RCC_AHB1LENR_CORDIC);
1766:C:/StellarStudio-7.1/SDKS/StellarESDK-1.8.0/Modules/Platform/Clock/include/sr5e1\clock.h **** }
1767:C:/StellarStudio-7.1/SDKS/StellarESDK-1.8.0/Modules/Platform/Clock/include/sr5e1\clock.h **** 
