   1              		.cpu cortex-m7
   2              		.arch armv7e-m
   3              		.fpu fpv5-d16
   4              		.eabi_attribute 28, 1
   5              		.eabi_attribute 20, 1
   6              		.eabi_attribute 21, 1
   7              		.eabi_attribute 23, 3
   8              		.eabi_attribute 24, 1
   9              		.eabi_attribute 25, 1
  10              		.eabi_attribute 26, 1
  11              		.eabi_attribute 30, 6
  12              		.eabi_attribute 34, 1
  13              		.eabi_attribute 18, 4
  14              		.file	"main.c"
  15              		.text
  16              	.Ltext0:
  17              		.cfi_sections	.debug_frame
  18              		.section	.text.gpio_read_pin,"ax",%progbits
  19              		.align	1
  20              		.p2align 4,,15
  21              		.syntax unified
  22              		.thumb
  23              		.thumb_func
  25              	gpio_read_pin:
  26              	.LFB452:
  27              		.file 1 "C:/StellarStudio-7.1/SDKS/StellarESDK-1.8.0/Modules/Drivers/System/GPIO/include/gpio.h"
   1:C:/StellarStudio-7.1/SDKS/StellarESDK-1.8.0/Modules/Drivers/System/GPIO/include\gpio.h **** /****************************************************************************
   2:C:/StellarStudio-7.1/SDKS/StellarESDK-1.8.0/Modules/Drivers/System/GPIO/include\gpio.h ****  *
   3:C:/StellarStudio-7.1/SDKS/StellarESDK-1.8.0/Modules/Drivers/System/GPIO/include\gpio.h ****  * Copyright (c) 2022 STMicroelectronics - All Rights Reserved
   4:C:/StellarStudio-7.1/SDKS/StellarESDK-1.8.0/Modules/Drivers/System/GPIO/include\gpio.h ****  *
   5:C:/StellarStudio-7.1/SDKS/StellarESDK-1.8.0/Modules/Drivers/System/GPIO/include\gpio.h ****  * License terms: STMicroelectronics Proprietary in accordance with licensing
   6:C:/StellarStudio-7.1/SDKS/StellarESDK-1.8.0/Modules/Drivers/System/GPIO/include\gpio.h ****  * terms SLA0098 at www.st.com.
   7:C:/StellarStudio-7.1/SDKS/StellarESDK-1.8.0/Modules/Drivers/System/GPIO/include\gpio.h ****  *
   8:C:/StellarStudio-7.1/SDKS/StellarESDK-1.8.0/Modules/Drivers/System/GPIO/include\gpio.h ****  * THIS SOFTWARE IS DISTRIBUTED "AS IS," AND ALL WARRANTIES ARE DISCLAIMED,
   9:C:/StellarStudio-7.1/SDKS/StellarESDK-1.8.0/Modules/Drivers/System/GPIO/include\gpio.h ****  * INCLUDING MERCHANTABILITY AND FITNESS FOR A PARTICULAR PURPOSE.
  10:C:/StellarStudio-7.1/SDKS/StellarESDK-1.8.0/Modules/Drivers/System/GPIO/include\gpio.h ****  *
  11:C:/StellarStudio-7.1/SDKS/StellarESDK-1.8.0/Modules/Drivers/System/GPIO/include\gpio.h ****  *****************************************************************************/
  12:C:/StellarStudio-7.1/SDKS/StellarESDK-1.8.0/Modules/Drivers/System/GPIO/include\gpio.h **** /**
  13:C:/StellarStudio-7.1/SDKS/StellarESDK-1.8.0/Modules/Drivers/System/GPIO/include\gpio.h ****  * @file    gpio.h
  14:C:/StellarStudio-7.1/SDKS/StellarESDK-1.8.0/Modules/Drivers/System/GPIO/include\gpio.h ****  * @brief   GPIO driver header file.
  15:C:/StellarStudio-7.1/SDKS/StellarESDK-1.8.0/Modules/Drivers/System/GPIO/include\gpio.h ****  *
  16:C:/StellarStudio-7.1/SDKS/StellarESDK-1.8.0/Modules/Drivers/System/GPIO/include\gpio.h ****  * @addtogroup DRIVERS
  17:C:/StellarStudio-7.1/SDKS/StellarESDK-1.8.0/Modules/Drivers/System/GPIO/include\gpio.h ****  * @addtogroup SYSTEM
  18:C:/StellarStudio-7.1/SDKS/StellarESDK-1.8.0/Modules/Drivers/System/GPIO/include\gpio.h ****  * @ingroup DRIVERS
  19:C:/StellarStudio-7.1/SDKS/StellarESDK-1.8.0/Modules/Drivers/System/GPIO/include\gpio.h ****  * @addtogroup GPIO
  20:C:/StellarStudio-7.1/SDKS/StellarESDK-1.8.0/Modules/Drivers/System/GPIO/include\gpio.h ****  * @ingroup SYSTEM
  21:C:/StellarStudio-7.1/SDKS/StellarESDK-1.8.0/Modules/Drivers/System/GPIO/include\gpio.h ****  * @{
  22:C:/StellarStudio-7.1/SDKS/StellarESDK-1.8.0/Modules/Drivers/System/GPIO/include\gpio.h ****  */
  23:C:/StellarStudio-7.1/SDKS/StellarESDK-1.8.0/Modules/Drivers/System/GPIO/include\gpio.h **** 
  24:C:/StellarStudio-7.1/SDKS/StellarESDK-1.8.0/Modules/Drivers/System/GPIO/include\gpio.h **** #ifndef _GPIO_H_
  25:C:/StellarStudio-7.1/SDKS/StellarESDK-1.8.0/Modules/Drivers/System/GPIO/include\gpio.h **** #define _GPIO_H_
  26:C:/StellarStudio-7.1/SDKS/StellarESDK-1.8.0/Modules/Drivers/System/GPIO/include\gpio.h **** 
  27:C:/StellarStudio-7.1/SDKS/StellarESDK-1.8.0/Modules/Drivers/System/GPIO/include\gpio.h **** #include <platform.h>
  28:C:/StellarStudio-7.1/SDKS/StellarESDK-1.8.0/Modules/Drivers/System/GPIO/include\gpio.h **** #include <typedefs.h>
  29:C:/StellarStudio-7.1/SDKS/StellarESDK-1.8.0/Modules/Drivers/System/GPIO/include\gpio.h **** 
  30:C:/StellarStudio-7.1/SDKS/StellarESDK-1.8.0/Modules/Drivers/System/GPIO/include\gpio.h **** /*===========================================================================*/
  31:C:/StellarStudio-7.1/SDKS/StellarESDK-1.8.0/Modules/Drivers/System/GPIO/include\gpio.h **** /* Module constants.                                                         */
  32:C:/StellarStudio-7.1/SDKS/StellarESDK-1.8.0/Modules/Drivers/System/GPIO/include\gpio.h **** /*===========================================================================*/
  33:C:/StellarStudio-7.1/SDKS/StellarESDK-1.8.0/Modules/Drivers/System/GPIO/include\gpio.h **** 
  34:C:/StellarStudio-7.1/SDKS/StellarESDK-1.8.0/Modules/Drivers/System/GPIO/include\gpio.h **** /**
  35:C:/StellarStudio-7.1/SDKS/StellarESDK-1.8.0/Modules/Drivers/System/GPIO/include\gpio.h ****  * @name    GPIO Port identifiers
  36:C:/StellarStudio-7.1/SDKS/StellarESDK-1.8.0/Modules/Drivers/System/GPIO/include\gpio.h ****  * @{
  37:C:/StellarStudio-7.1/SDKS/StellarESDK-1.8.0/Modules/Drivers/System/GPIO/include\gpio.h ****  */
  38:C:/StellarStudio-7.1/SDKS/StellarESDK-1.8.0/Modules/Drivers/System/GPIO/include\gpio.h **** #define GPIO_PORT_A                    0U   /**< GPIO Port A */
  39:C:/StellarStudio-7.1/SDKS/StellarESDK-1.8.0/Modules/Drivers/System/GPIO/include\gpio.h **** #define GPIO_PORT_B                    1U   /**< GPIO Port B */
  40:C:/StellarStudio-7.1/SDKS/StellarESDK-1.8.0/Modules/Drivers/System/GPIO/include\gpio.h **** #define GPIO_PORT_C                    2U   /**< GPIO Port C */
  41:C:/StellarStudio-7.1/SDKS/StellarESDK-1.8.0/Modules/Drivers/System/GPIO/include\gpio.h **** #define GPIO_PORT_D                    3U   /**< GPIO Port D */
  42:C:/StellarStudio-7.1/SDKS/StellarESDK-1.8.0/Modules/Drivers/System/GPIO/include\gpio.h **** #define GPIO_PORT_E                    4U   /**< GPIO Port E */
  43:C:/StellarStudio-7.1/SDKS/StellarESDK-1.8.0/Modules/Drivers/System/GPIO/include\gpio.h **** #define GPIO_PORT_F                    5U   /**< GPIO Port F */
  44:C:/StellarStudio-7.1/SDKS/StellarESDK-1.8.0/Modules/Drivers/System/GPIO/include\gpio.h **** #define GPIO_PORT_G                    6U   /**< GPIO Port G */
  45:C:/StellarStudio-7.1/SDKS/StellarESDK-1.8.0/Modules/Drivers/System/GPIO/include\gpio.h **** #define GPIO_PORT_H                    7U   /**< GPIO Port G */
  46:C:/StellarStudio-7.1/SDKS/StellarESDK-1.8.0/Modules/Drivers/System/GPIO/include\gpio.h **** #define GPIO_PORT_I                    8U   /**< GPIO Port I */
  47:C:/StellarStudio-7.1/SDKS/StellarESDK-1.8.0/Modules/Drivers/System/GPIO/include\gpio.h **** #define GPIO_PORT_J                    9U   /**< GPIO Port J */
  48:C:/StellarStudio-7.1/SDKS/StellarESDK-1.8.0/Modules/Drivers/System/GPIO/include\gpio.h **** #define GPIO_PORT_K                    10U  /**< GPIO Port K */
  49:C:/StellarStudio-7.1/SDKS/StellarESDK-1.8.0/Modules/Drivers/System/GPIO/include\gpio.h **** #define GPIO_PORT_L                    11U  /**< GPIO Port L */
  50:C:/StellarStudio-7.1/SDKS/StellarESDK-1.8.0/Modules/Drivers/System/GPIO/include\gpio.h **** #define GPIO_PORT_M                    12U  /**< GPIO Port M */
  51:C:/StellarStudio-7.1/SDKS/StellarESDK-1.8.0/Modules/Drivers/System/GPIO/include\gpio.h **** #define GPIO_PORT_N                    13U  /**< GPIO Port N */
  52:C:/StellarStudio-7.1/SDKS/StellarESDK-1.8.0/Modules/Drivers/System/GPIO/include\gpio.h **** #define GPIO_PORT_Q                    14U  /**< GPIO Port Q */
  53:C:/StellarStudio-7.1/SDKS/StellarESDK-1.8.0/Modules/Drivers/System/GPIO/include\gpio.h **** #define GPIO_PORT_R                    15U  /**< GPIO Port R */
  54:C:/StellarStudio-7.1/SDKS/StellarESDK-1.8.0/Modules/Drivers/System/GPIO/include\gpio.h **** #define GPIO_PORT_S                    16U  /**< GPIO Port S */
  55:C:/StellarStudio-7.1/SDKS/StellarESDK-1.8.0/Modules/Drivers/System/GPIO/include\gpio.h **** #define GPIO_PORT_T                    17U  /**< GPIO Port T */
  56:C:/StellarStudio-7.1/SDKS/StellarESDK-1.8.0/Modules/Drivers/System/GPIO/include\gpio.h **** #define GPIO_PORT_V                    18U  /**< GPIO Port V */
  57:C:/StellarStudio-7.1/SDKS/StellarESDK-1.8.0/Modules/Drivers/System/GPIO/include\gpio.h **** #define GPIO_PORT_W                    19U  /**< GPIO Port W */
  58:C:/StellarStudio-7.1/SDKS/StellarESDK-1.8.0/Modules/Drivers/System/GPIO/include\gpio.h **** #define GPIO_PORT_X                    20U  /**< GPIO Port X */
  59:C:/StellarStudio-7.1/SDKS/StellarESDK-1.8.0/Modules/Drivers/System/GPIO/include\gpio.h **** #define GPIO_PORT_Y                    21U  /**< GPIO Port Y */
  60:C:/StellarStudio-7.1/SDKS/StellarESDK-1.8.0/Modules/Drivers/System/GPIO/include\gpio.h **** /** @} */
  61:C:/StellarStudio-7.1/SDKS/StellarESDK-1.8.0/Modules/Drivers/System/GPIO/include\gpio.h **** 
  62:C:/StellarStudio-7.1/SDKS/StellarESDK-1.8.0/Modules/Drivers/System/GPIO/include\gpio.h **** /**
  63:C:/StellarStudio-7.1/SDKS/StellarESDK-1.8.0/Modules/Drivers/System/GPIO/include\gpio.h ****  * @name    GPIO Pin identifiers
  64:C:/StellarStudio-7.1/SDKS/StellarESDK-1.8.0/Modules/Drivers/System/GPIO/include\gpio.h ****  * @{
  65:C:/StellarStudio-7.1/SDKS/StellarESDK-1.8.0/Modules/Drivers/System/GPIO/include\gpio.h ****  */
  66:C:/StellarStudio-7.1/SDKS/StellarESDK-1.8.0/Modules/Drivers/System/GPIO/include\gpio.h **** #define GPIO_PIN_0                     0U   /**< GPIO Pin 0  */
  67:C:/StellarStudio-7.1/SDKS/StellarESDK-1.8.0/Modules/Drivers/System/GPIO/include\gpio.h **** #define GPIO_PIN_1                     1U   /**< GPIO Pin 1  */
  68:C:/StellarStudio-7.1/SDKS/StellarESDK-1.8.0/Modules/Drivers/System/GPIO/include\gpio.h **** #define GPIO_PIN_2                     2U   /**< GPIO Pin 2  */
  69:C:/StellarStudio-7.1/SDKS/StellarESDK-1.8.0/Modules/Drivers/System/GPIO/include\gpio.h **** #define GPIO_PIN_3                     3U   /**< GPIO Pin 3  */
  70:C:/StellarStudio-7.1/SDKS/StellarESDK-1.8.0/Modules/Drivers/System/GPIO/include\gpio.h **** #define GPIO_PIN_4                     4U   /**< GPIO Pin 4  */
  71:C:/StellarStudio-7.1/SDKS/StellarESDK-1.8.0/Modules/Drivers/System/GPIO/include\gpio.h **** #define GPIO_PIN_5                     5U   /**< GPIO Pin 5  */
  72:C:/StellarStudio-7.1/SDKS/StellarESDK-1.8.0/Modules/Drivers/System/GPIO/include\gpio.h **** #define GPIO_PIN_6                     6U   /**< GPIO Pin 6  */
  73:C:/StellarStudio-7.1/SDKS/StellarESDK-1.8.0/Modules/Drivers/System/GPIO/include\gpio.h **** #define GPIO_PIN_7                     7U   /**< GPIO Pin 7  */
  74:C:/StellarStudio-7.1/SDKS/StellarESDK-1.8.0/Modules/Drivers/System/GPIO/include\gpio.h **** #define GPIO_PIN_8                     8U   /**< GPIO Pin 8  */
  75:C:/StellarStudio-7.1/SDKS/StellarESDK-1.8.0/Modules/Drivers/System/GPIO/include\gpio.h **** #define GPIO_PIN_9                     9U   /**< GPIO Pin 9  */
  76:C:/StellarStudio-7.1/SDKS/StellarESDK-1.8.0/Modules/Drivers/System/GPIO/include\gpio.h **** #define GPIO_PIN_10                    10U  /**< GPIO Pin 10 */
  77:C:/StellarStudio-7.1/SDKS/StellarESDK-1.8.0/Modules/Drivers/System/GPIO/include\gpio.h **** #define GPIO_PIN_11                    11U  /**< GPIO Pin 11 */
  78:C:/StellarStudio-7.1/SDKS/StellarESDK-1.8.0/Modules/Drivers/System/GPIO/include\gpio.h **** #define GPIO_PIN_12                    12U  /**< GPIO Pin 12 */
  79:C:/StellarStudio-7.1/SDKS/StellarESDK-1.8.0/Modules/Drivers/System/GPIO/include\gpio.h **** #define GPIO_PIN_13                    13U  /**< GPIO Pin 13 */
  80:C:/StellarStudio-7.1/SDKS/StellarESDK-1.8.0/Modules/Drivers/System/GPIO/include\gpio.h **** #define GPIO_PIN_14                    14U  /**< GPIO Pin 14 */
  81:C:/StellarStudio-7.1/SDKS/StellarESDK-1.8.0/Modules/Drivers/System/GPIO/include\gpio.h **** #define GPIO_PIN_15                    15U  /**< GPIO Pin 15 */
  82:C:/StellarStudio-7.1/SDKS/StellarESDK-1.8.0/Modules/Drivers/System/GPIO/include\gpio.h **** /** @} */
  83:C:/StellarStudio-7.1/SDKS/StellarESDK-1.8.0/Modules/Drivers/System/GPIO/include\gpio.h **** 
  84:C:/StellarStudio-7.1/SDKS/StellarESDK-1.8.0/Modules/Drivers/System/GPIO/include\gpio.h **** /**
  85:C:/StellarStudio-7.1/SDKS/StellarESDK-1.8.0/Modules/Drivers/System/GPIO/include\gpio.h ****  * @name    GPIO mode flags
  86:C:/StellarStudio-7.1/SDKS/StellarESDK-1.8.0/Modules/Drivers/System/GPIO/include\gpio.h ****  * @{
  87:C:/StellarStudio-7.1/SDKS/StellarESDK-1.8.0/Modules/Drivers/System/GPIO/include\gpio.h ****  */
  88:C:/StellarStudio-7.1/SDKS/StellarESDK-1.8.0/Modules/Drivers/System/GPIO/include\gpio.h **** #define GPIO_MODE_MODER_POS            (0U)
  89:C:/StellarStudio-7.1/SDKS/StellarESDK-1.8.0/Modules/Drivers/System/GPIO/include\gpio.h **** #define GPIO_MODE_MODER_MASK           (3UL << GPIO_MODE_MODER_POS)
  90:C:/StellarStudio-7.1/SDKS/StellarESDK-1.8.0/Modules/Drivers/System/GPIO/include\gpio.h **** #define GPIO_MODE_MODER_INPUT          (0UL << GPIO_MODE_MODER_POS)
  91:C:/StellarStudio-7.1/SDKS/StellarESDK-1.8.0/Modules/Drivers/System/GPIO/include\gpio.h **** #define GPIO_MODE_MODER_OUTPUT         (1UL << GPIO_MODE_MODER_POS)
  92:C:/StellarStudio-7.1/SDKS/StellarESDK-1.8.0/Modules/Drivers/System/GPIO/include\gpio.h **** #define GPIO_MODE_MODER_ALTERNATE      (2UL << GPIO_MODE_MODER_POS)
  93:C:/StellarStudio-7.1/SDKS/StellarESDK-1.8.0/Modules/Drivers/System/GPIO/include\gpio.h **** #define GPIO_MODE_MODER_ANALOG         (3UL << GPIO_MODE_MODER_POS)
  94:C:/StellarStudio-7.1/SDKS/StellarESDK-1.8.0/Modules/Drivers/System/GPIO/include\gpio.h **** 
  95:C:/StellarStudio-7.1/SDKS/StellarESDK-1.8.0/Modules/Drivers/System/GPIO/include\gpio.h **** #define GPIO_MODE_OTYPER_POS           (2U)
  96:C:/StellarStudio-7.1/SDKS/StellarESDK-1.8.0/Modules/Drivers/System/GPIO/include\gpio.h **** #define GPIO_MODE_OTYPER_MASK          (1UL << GPIO_MODE_OTYPER_POS)
  97:C:/StellarStudio-7.1/SDKS/StellarESDK-1.8.0/Modules/Drivers/System/GPIO/include\gpio.h **** #define GPIO_MODE_OTYPER_PUSHPULL      (0UL << GPIO_MODE_OTYPER_POS)
  98:C:/StellarStudio-7.1/SDKS/StellarESDK-1.8.0/Modules/Drivers/System/GPIO/include\gpio.h **** #define GPIO_MODE_OTYPER_OPENDRAIN     (1UL << GPIO_MODE_OTYPER_POS)
  99:C:/StellarStudio-7.1/SDKS/StellarESDK-1.8.0/Modules/Drivers/System/GPIO/include\gpio.h **** 
 100:C:/StellarStudio-7.1/SDKS/StellarESDK-1.8.0/Modules/Drivers/System/GPIO/include\gpio.h **** #define GPIO_MODE_OSPEEDR_POS          (3U)
 101:C:/StellarStudio-7.1/SDKS/StellarESDK-1.8.0/Modules/Drivers/System/GPIO/include\gpio.h **** #define GPIO_MODE_OSPEEDR_MASK         (3UL << GPIO_MODE_OSPEEDR_POS)
 102:C:/StellarStudio-7.1/SDKS/StellarESDK-1.8.0/Modules/Drivers/System/GPIO/include\gpio.h **** #define GPIO_MODE_OSPEEDR_LOW          (0UL << GPIO_MODE_OSPEEDR_POS)
 103:C:/StellarStudio-7.1/SDKS/StellarESDK-1.8.0/Modules/Drivers/System/GPIO/include\gpio.h **** #define GPIO_MODE_OSPEEDR_MEDIUM       (1UL << GPIO_MODE_OSPEEDR_POS)
 104:C:/StellarStudio-7.1/SDKS/StellarESDK-1.8.0/Modules/Drivers/System/GPIO/include\gpio.h **** #define GPIO_MODE_OSPEEDR_HIGH         (2UL << GPIO_MODE_OSPEEDR_POS)
 105:C:/StellarStudio-7.1/SDKS/StellarESDK-1.8.0/Modules/Drivers/System/GPIO/include\gpio.h **** #define GPIO_MODE_OSPEEDR_VERYHIGH     (3UL << GPIO_MODE_OSPEEDR_POS)
 106:C:/StellarStudio-7.1/SDKS/StellarESDK-1.8.0/Modules/Drivers/System/GPIO/include\gpio.h **** 
 107:C:/StellarStudio-7.1/SDKS/StellarESDK-1.8.0/Modules/Drivers/System/GPIO/include\gpio.h **** #define GPIO_MODE_PUPDR_POS            (5U)
 108:C:/StellarStudio-7.1/SDKS/StellarESDK-1.8.0/Modules/Drivers/System/GPIO/include\gpio.h **** #define GPIO_MODE_PUPDR_MASK           (3UL << GPIO_MODE_PUPDR_POS)
 109:C:/StellarStudio-7.1/SDKS/StellarESDK-1.8.0/Modules/Drivers/System/GPIO/include\gpio.h **** #define GPIO_MODE_PUPDR_FLOATING       (0UL << GPIO_MODE_PUPDR_POS)
 110:C:/StellarStudio-7.1/SDKS/StellarESDK-1.8.0/Modules/Drivers/System/GPIO/include\gpio.h **** #define GPIO_MODE_PUPDR_PULLUP         (1UL << GPIO_MODE_PUPDR_POS)
 111:C:/StellarStudio-7.1/SDKS/StellarESDK-1.8.0/Modules/Drivers/System/GPIO/include\gpio.h **** #define GPIO_MODE_PUPDR_PULLDOWN       (2UL << GPIO_MODE_PUPDR_POS)
 112:C:/StellarStudio-7.1/SDKS/StellarESDK-1.8.0/Modules/Drivers/System/GPIO/include\gpio.h **** 
 113:C:/StellarStudio-7.1/SDKS/StellarESDK-1.8.0/Modules/Drivers/System/GPIO/include\gpio.h **** #define GPIO_MODE_AFR_POS              (7U)
 114:C:/StellarStudio-7.1/SDKS/StellarESDK-1.8.0/Modules/Drivers/System/GPIO/include\gpio.h **** #define GPIO_MODE_AFR_MASK             (15UL << GPIO_MODE_AFR_POS)
 115:C:/StellarStudio-7.1/SDKS/StellarESDK-1.8.0/Modules/Drivers/System/GPIO/include\gpio.h **** #define GPIO_MODE_AFR(n)               ((uint32_t)(n) << GPIO_MODE_AFR_POS)
 116:C:/StellarStudio-7.1/SDKS/StellarESDK-1.8.0/Modules/Drivers/System/GPIO/include\gpio.h **** 
 117:C:/StellarStudio-7.1/SDKS/StellarESDK-1.8.0/Modules/Drivers/System/GPIO/include\gpio.h **** #define GPIO_MODE_IHYSTR_POS           (11U)
 118:C:/StellarStudio-7.1/SDKS/StellarESDK-1.8.0/Modules/Drivers/System/GPIO/include\gpio.h **** #define GPIO_MODE_IHYSTR_MASK          (3UL << GPIO_MODE_IHYSTR_POS)
 119:C:/StellarStudio-7.1/SDKS/StellarESDK-1.8.0/Modules/Drivers/System/GPIO/include\gpio.h **** #define GPIO_MODE_IHYSTR_CMOS          (0UL << GPIO_MODE_IHYSTR_POS)
 120:C:/StellarStudio-7.1/SDKS/StellarESDK-1.8.0/Modules/Drivers/System/GPIO/include\gpio.h **** #define GPIO_MODE_IHYSTR_AUTO          (1UL << GPIO_MODE_IHYSTR_POS)
 121:C:/StellarStudio-7.1/SDKS/StellarESDK-1.8.0/Modules/Drivers/System/GPIO/include\gpio.h **** #define GPIO_MODE_IHYSTR_TTL           (2UL << GPIO_MODE_IHYSTR_POS)
 122:C:/StellarStudio-7.1/SDKS/StellarESDK-1.8.0/Modules/Drivers/System/GPIO/include\gpio.h **** 
 123:C:/StellarStudio-7.1/SDKS/StellarESDK-1.8.0/Modules/Drivers/System/GPIO/include\gpio.h **** #define GPIO_MODE_TRIGENR_POS          (13U)
 124:C:/StellarStudio-7.1/SDKS/StellarESDK-1.8.0/Modules/Drivers/System/GPIO/include\gpio.h **** #define GPIO_MODE_TRIGENR_MASK         (1UL << GPIO_MODE_TRIGENR_POS)
 125:C:/StellarStudio-7.1/SDKS/StellarESDK-1.8.0/Modules/Drivers/System/GPIO/include\gpio.h **** #define GPIO_MODE_TRIGENR_IN_DISABLED  (0UL << GPIO_MODE_TRIGENR_POS)
 126:C:/StellarStudio-7.1/SDKS/StellarESDK-1.8.0/Modules/Drivers/System/GPIO/include\gpio.h **** #define GPIO_MODE_TRIGENR_IN_ENABLED   (1UL << GPIO_MODE_TRIGENR_POS)
 127:C:/StellarStudio-7.1/SDKS/StellarESDK-1.8.0/Modules/Drivers/System/GPIO/include\gpio.h **** 
 128:C:/StellarStudio-7.1/SDKS/StellarESDK-1.8.0/Modules/Drivers/System/GPIO/include\gpio.h **** #define GPIO_MODE_SAFESELR_POS         (14U)
 129:C:/StellarStudio-7.1/SDKS/StellarESDK-1.8.0/Modules/Drivers/System/GPIO/include\gpio.h **** #define GPIO_MODE_SAFESELR_MASK        (1UL << GPIO_MODE_SAFESELR_POS)
 130:C:/StellarStudio-7.1/SDKS/StellarESDK-1.8.0/Modules/Drivers/System/GPIO/include\gpio.h **** #define GPIO_MODE_SAFESELR_DISABLED    (0UL << GPIO_MODE_SAFESELR_POS)
 131:C:/StellarStudio-7.1/SDKS/StellarESDK-1.8.0/Modules/Drivers/System/GPIO/include\gpio.h **** #define GPIO_MODE_SAFESELR_ENABLED     (1UL << GPIO_MODE_SAFESELR_POS)
 132:C:/StellarStudio-7.1/SDKS/StellarESDK-1.8.0/Modules/Drivers/System/GPIO/include\gpio.h **** 
 133:C:/StellarStudio-7.1/SDKS/StellarESDK-1.8.0/Modules/Drivers/System/GPIO/include\gpio.h **** #define GPIO_MODE_SAFEVALR_POS         (15U)
 134:C:/StellarStudio-7.1/SDKS/StellarESDK-1.8.0/Modules/Drivers/System/GPIO/include\gpio.h **** #define GPIO_MODE_SAFEVALR_MASK        (1UL << GPIO_MODE_SAFEVALR_POS)
 135:C:/StellarStudio-7.1/SDKS/StellarESDK-1.8.0/Modules/Drivers/System/GPIO/include\gpio.h **** #define GPIO_MODE_SAFEVALR_LOW         (0UL << GPIO_MODE_SAFEVALR_POS)
 136:C:/StellarStudio-7.1/SDKS/StellarESDK-1.8.0/Modules/Drivers/System/GPIO/include\gpio.h **** #define GPIO_MODE_SAFEVALR_HIGH        (1UL << GPIO_MODE_SAFEVALR_POS)
 137:C:/StellarStudio-7.1/SDKS/StellarESDK-1.8.0/Modules/Drivers/System/GPIO/include\gpio.h **** /** @} */
 138:C:/StellarStudio-7.1/SDKS/StellarESDK-1.8.0/Modules/Drivers/System/GPIO/include\gpio.h **** 
 139:C:/StellarStudio-7.1/SDKS/StellarESDK-1.8.0/Modules/Drivers/System/GPIO/include\gpio.h **** /*===========================================================================*/
 140:C:/StellarStudio-7.1/SDKS/StellarESDK-1.8.0/Modules/Drivers/System/GPIO/include\gpio.h **** /* Module pre-compile time settings.                                         */
 141:C:/StellarStudio-7.1/SDKS/StellarESDK-1.8.0/Modules/Drivers/System/GPIO/include\gpio.h **** /*===========================================================================*/
 142:C:/StellarStudio-7.1/SDKS/StellarESDK-1.8.0/Modules/Drivers/System/GPIO/include\gpio.h **** 
 143:C:/StellarStudio-7.1/SDKS/StellarESDK-1.8.0/Modules/Drivers/System/GPIO/include\gpio.h **** /*===========================================================================*/
 144:C:/StellarStudio-7.1/SDKS/StellarESDK-1.8.0/Modules/Drivers/System/GPIO/include\gpio.h **** /* Derived constants and error checks.                                       */
 145:C:/StellarStudio-7.1/SDKS/StellarESDK-1.8.0/Modules/Drivers/System/GPIO/include\gpio.h **** /*===========================================================================*/
 146:C:/StellarStudio-7.1/SDKS/StellarESDK-1.8.0/Modules/Drivers/System/GPIO/include\gpio.h **** 
 147:C:/StellarStudio-7.1/SDKS/StellarESDK-1.8.0/Modules/Drivers/System/GPIO/include\gpio.h **** /*===========================================================================*/
 148:C:/StellarStudio-7.1/SDKS/StellarESDK-1.8.0/Modules/Drivers/System/GPIO/include\gpio.h **** /* Module data structures and types.                                         */
 149:C:/StellarStudio-7.1/SDKS/StellarESDK-1.8.0/Modules/Drivers/System/GPIO/include\gpio.h **** /*===========================================================================*/
 150:C:/StellarStudio-7.1/SDKS/StellarESDK-1.8.0/Modules/Drivers/System/GPIO/include\gpio.h **** 
 151:C:/StellarStudio-7.1/SDKS/StellarESDK-1.8.0/Modules/Drivers/System/GPIO/include\gpio.h **** /**
 152:C:/StellarStudio-7.1/SDKS/StellarESDK-1.8.0/Modules/Drivers/System/GPIO/include\gpio.h ****  * @brief   GPIO Port type.
 153:C:/StellarStudio-7.1/SDKS/StellarESDK-1.8.0/Modules/Drivers/System/GPIO/include\gpio.h ****  */
 154:C:/StellarStudio-7.1/SDKS/StellarESDK-1.8.0/Modules/Drivers/System/GPIO/include\gpio.h **** typedef uint8_t gpio_port_t;
 155:C:/StellarStudio-7.1/SDKS/StellarESDK-1.8.0/Modules/Drivers/System/GPIO/include\gpio.h **** 
 156:C:/StellarStudio-7.1/SDKS/StellarESDK-1.8.0/Modules/Drivers/System/GPIO/include\gpio.h **** /**
 157:C:/StellarStudio-7.1/SDKS/StellarESDK-1.8.0/Modules/Drivers/System/GPIO/include\gpio.h ****  * @brief   GPIO Pin type.
 158:C:/StellarStudio-7.1/SDKS/StellarESDK-1.8.0/Modules/Drivers/System/GPIO/include\gpio.h ****  */
 159:C:/StellarStudio-7.1/SDKS/StellarESDK-1.8.0/Modules/Drivers/System/GPIO/include\gpio.h **** typedef uint8_t gpio_pin_t;
 160:C:/StellarStudio-7.1/SDKS/StellarESDK-1.8.0/Modules/Drivers/System/GPIO/include\gpio.h **** 
 161:C:/StellarStudio-7.1/SDKS/StellarESDK-1.8.0/Modules/Drivers/System/GPIO/include\gpio.h **** /**
 162:C:/StellarStudio-7.1/SDKS/StellarESDK-1.8.0/Modules/Drivers/System/GPIO/include\gpio.h ****  * @brief   GPIO I/O type.
 163:C:/StellarStudio-7.1/SDKS/StellarESDK-1.8.0/Modules/Drivers/System/GPIO/include\gpio.h ****  */
 164:C:/StellarStudio-7.1/SDKS/StellarESDK-1.8.0/Modules/Drivers/System/GPIO/include\gpio.h **** typedef uint16_t gpio_io_t;
 165:C:/StellarStudio-7.1/SDKS/StellarESDK-1.8.0/Modules/Drivers/System/GPIO/include\gpio.h **** 
 166:C:/StellarStudio-7.1/SDKS/StellarESDK-1.8.0/Modules/Drivers/System/GPIO/include\gpio.h **** /**
 167:C:/StellarStudio-7.1/SDKS/StellarESDK-1.8.0/Modules/Drivers/System/GPIO/include\gpio.h ****  * @enum gpio_mode_t
 168:C:/StellarStudio-7.1/SDKS/StellarESDK-1.8.0/Modules/Drivers/System/GPIO/include\gpio.h ****  * GPIO Mode type.
 169:C:/StellarStudio-7.1/SDKS/StellarESDK-1.8.0/Modules/Drivers/System/GPIO/include\gpio.h ****  */
 170:C:/StellarStudio-7.1/SDKS/StellarESDK-1.8.0/Modules/Drivers/System/GPIO/include\gpio.h **** typedef enum {
 171:C:/StellarStudio-7.1/SDKS/StellarESDK-1.8.0/Modules/Drivers/System/GPIO/include\gpio.h ****     GPIO_MODER_INPUT,        /**< GPIO Mode Input              */
 172:C:/StellarStudio-7.1/SDKS/StellarESDK-1.8.0/Modules/Drivers/System/GPIO/include\gpio.h ****     GPIO_MODER_OUTPUT,       /**< GPIO Mode Output             */
 173:C:/StellarStudio-7.1/SDKS/StellarESDK-1.8.0/Modules/Drivers/System/GPIO/include\gpio.h ****     GPIO_MODER_ALTERNATE,    /**< GPIO Mode Alternate Function */
 174:C:/StellarStudio-7.1/SDKS/StellarESDK-1.8.0/Modules/Drivers/System/GPIO/include\gpio.h ****     GPIO_MODER_ANALOG        /**< GPIO Mode Analog             */
 175:C:/StellarStudio-7.1/SDKS/StellarESDK-1.8.0/Modules/Drivers/System/GPIO/include\gpio.h **** } gpio_mode_t;
 176:C:/StellarStudio-7.1/SDKS/StellarESDK-1.8.0/Modules/Drivers/System/GPIO/include\gpio.h **** 
 177:C:/StellarStudio-7.1/SDKS/StellarESDK-1.8.0/Modules/Drivers/System/GPIO/include\gpio.h **** /**
 178:C:/StellarStudio-7.1/SDKS/StellarESDK-1.8.0/Modules/Drivers/System/GPIO/include\gpio.h ****  * @enum gpio_otype_t
 179:C:/StellarStudio-7.1/SDKS/StellarESDK-1.8.0/Modules/Drivers/System/GPIO/include\gpio.h ****  * GPIO Output Type type.
 180:C:/StellarStudio-7.1/SDKS/StellarESDK-1.8.0/Modules/Drivers/System/GPIO/include\gpio.h ****  */
 181:C:/StellarStudio-7.1/SDKS/StellarESDK-1.8.0/Modules/Drivers/System/GPIO/include\gpio.h **** typedef enum {
 182:C:/StellarStudio-7.1/SDKS/StellarESDK-1.8.0/Modules/Drivers/System/GPIO/include\gpio.h ****     GPIO_OTYPER_PUSHPULL,    /**< GPIO Output Push-Pull  */
 183:C:/StellarStudio-7.1/SDKS/StellarESDK-1.8.0/Modules/Drivers/System/GPIO/include\gpio.h ****     GPIO_OTYPER_OPENDRAIN,   /**< GPIO Output Open-Drain */
 184:C:/StellarStudio-7.1/SDKS/StellarESDK-1.8.0/Modules/Drivers/System/GPIO/include\gpio.h **** } gpio_otype_t;
 185:C:/StellarStudio-7.1/SDKS/StellarESDK-1.8.0/Modules/Drivers/System/GPIO/include\gpio.h **** 
 186:C:/StellarStudio-7.1/SDKS/StellarESDK-1.8.0/Modules/Drivers/System/GPIO/include\gpio.h **** /**
 187:C:/StellarStudio-7.1/SDKS/StellarESDK-1.8.0/Modules/Drivers/System/GPIO/include\gpio.h ****  * @enum gpio_ospeed_t
 188:C:/StellarStudio-7.1/SDKS/StellarESDK-1.8.0/Modules/Drivers/System/GPIO/include\gpio.h ****  * GPIO Output Speed type.
 189:C:/StellarStudio-7.1/SDKS/StellarESDK-1.8.0/Modules/Drivers/System/GPIO/include\gpio.h ****  */
 190:C:/StellarStudio-7.1/SDKS/StellarESDK-1.8.0/Modules/Drivers/System/GPIO/include\gpio.h **** typedef enum {
 191:C:/StellarStudio-7.1/SDKS/StellarESDK-1.8.0/Modules/Drivers/System/GPIO/include\gpio.h ****     GPIO_OSPEEDR_LOW,        /**< GPIO Low Speed       */
 192:C:/StellarStudio-7.1/SDKS/StellarESDK-1.8.0/Modules/Drivers/System/GPIO/include\gpio.h ****     GPIO_OSPEEDR_MEDIUM,     /**< GPIO Medium Speed    */
 193:C:/StellarStudio-7.1/SDKS/StellarESDK-1.8.0/Modules/Drivers/System/GPIO/include\gpio.h ****     GPIO_OSPEEDR_HIGH,       /**< GPIO High Speed      */
 194:C:/StellarStudio-7.1/SDKS/StellarESDK-1.8.0/Modules/Drivers/System/GPIO/include\gpio.h ****     GPIO_OSPEEDR_VERYHIGH    /**< GPIO Very High Speed */
 195:C:/StellarStudio-7.1/SDKS/StellarESDK-1.8.0/Modules/Drivers/System/GPIO/include\gpio.h **** } gpio_ospeed_t;
 196:C:/StellarStudio-7.1/SDKS/StellarESDK-1.8.0/Modules/Drivers/System/GPIO/include\gpio.h **** 
 197:C:/StellarStudio-7.1/SDKS/StellarESDK-1.8.0/Modules/Drivers/System/GPIO/include\gpio.h **** /**
 198:C:/StellarStudio-7.1/SDKS/StellarESDK-1.8.0/Modules/Drivers/System/GPIO/include\gpio.h ****  * @enum gpio_pupd_t
 199:C:/StellarStudio-7.1/SDKS/StellarESDK-1.8.0/Modules/Drivers/System/GPIO/include\gpio.h ****  * GPIO Pull-up/Pull-down type.
 200:C:/StellarStudio-7.1/SDKS/StellarESDK-1.8.0/Modules/Drivers/System/GPIO/include\gpio.h ****  */
 201:C:/StellarStudio-7.1/SDKS/StellarESDK-1.8.0/Modules/Drivers/System/GPIO/include\gpio.h **** typedef enum {
 202:C:/StellarStudio-7.1/SDKS/StellarESDK-1.8.0/Modules/Drivers/System/GPIO/include\gpio.h ****     GPIO_PUPDR_FLOATING,     /**< GPIO No Pull-Up, No Pull-Down */
 203:C:/StellarStudio-7.1/SDKS/StellarESDK-1.8.0/Modules/Drivers/System/GPIO/include\gpio.h ****     GPIO_PUPDR_PULLUP,       /**< GPIO Pull-Up                  */
 204:C:/StellarStudio-7.1/SDKS/StellarESDK-1.8.0/Modules/Drivers/System/GPIO/include\gpio.h ****     GPIO_PUPDR_PULLDOWN      /**< GPIO Pull-Down                */
 205:C:/StellarStudio-7.1/SDKS/StellarESDK-1.8.0/Modules/Drivers/System/GPIO/include\gpio.h **** } gpio_pupd_t;
 206:C:/StellarStudio-7.1/SDKS/StellarESDK-1.8.0/Modules/Drivers/System/GPIO/include\gpio.h **** 
 207:C:/StellarStudio-7.1/SDKS/StellarESDK-1.8.0/Modules/Drivers/System/GPIO/include\gpio.h **** /**
 208:C:/StellarStudio-7.1/SDKS/StellarESDK-1.8.0/Modules/Drivers/System/GPIO/include\gpio.h ****  * @enum gpio_od_t
 209:C:/StellarStudio-7.1/SDKS/StellarESDK-1.8.0/Modules/Drivers/System/GPIO/include\gpio.h ****  * GPIO Output Data type.
 210:C:/StellarStudio-7.1/SDKS/StellarESDK-1.8.0/Modules/Drivers/System/GPIO/include\gpio.h ****  */
 211:C:/StellarStudio-7.1/SDKS/StellarESDK-1.8.0/Modules/Drivers/System/GPIO/include\gpio.h **** typedef enum {
 212:C:/StellarStudio-7.1/SDKS/StellarESDK-1.8.0/Modules/Drivers/System/GPIO/include\gpio.h ****     GPIO_ODR_LOW,            /**< GPIO Output Data Low  */
 213:C:/StellarStudio-7.1/SDKS/StellarESDK-1.8.0/Modules/Drivers/System/GPIO/include\gpio.h ****     GPIO_ODR_HIGH            /**< GPIO Output Data High */
 214:C:/StellarStudio-7.1/SDKS/StellarESDK-1.8.0/Modules/Drivers/System/GPIO/include\gpio.h **** } gpio_od_t;
 215:C:/StellarStudio-7.1/SDKS/StellarESDK-1.8.0/Modules/Drivers/System/GPIO/include\gpio.h **** 
 216:C:/StellarStudio-7.1/SDKS/StellarESDK-1.8.0/Modules/Drivers/System/GPIO/include\gpio.h **** /**
 217:C:/StellarStudio-7.1/SDKS/StellarESDK-1.8.0/Modules/Drivers/System/GPIO/include\gpio.h ****  * @brief   GPIO Alternate Function type.
 218:C:/StellarStudio-7.1/SDKS/StellarESDK-1.8.0/Modules/Drivers/System/GPIO/include\gpio.h ****  */
 219:C:/StellarStudio-7.1/SDKS/StellarESDK-1.8.0/Modules/Drivers/System/GPIO/include\gpio.h **** typedef uint8_t gpio_af_t;
 220:C:/StellarStudio-7.1/SDKS/StellarESDK-1.8.0/Modules/Drivers/System/GPIO/include\gpio.h **** 
 221:C:/StellarStudio-7.1/SDKS/StellarESDK-1.8.0/Modules/Drivers/System/GPIO/include\gpio.h **** /**
 222:C:/StellarStudio-7.1/SDKS/StellarESDK-1.8.0/Modules/Drivers/System/GPIO/include\gpio.h ****  * @enum gpio_ihyst_t
 223:C:/StellarStudio-7.1/SDKS/StellarESDK-1.8.0/Modules/Drivers/System/GPIO/include\gpio.h ****  * GPIO Port Hysteresis type.
 224:C:/StellarStudio-7.1/SDKS/StellarESDK-1.8.0/Modules/Drivers/System/GPIO/include\gpio.h ****  */
 225:C:/StellarStudio-7.1/SDKS/StellarESDK-1.8.0/Modules/Drivers/System/GPIO/include\gpio.h **** typedef enum {
 226:C:/StellarStudio-7.1/SDKS/StellarESDK-1.8.0/Modules/Drivers/System/GPIO/include\gpio.h ****     GPIO_IHYSTR_CMOS,        /**< GPIO Port Input Buffer Disabled */
 227:C:/StellarStudio-7.1/SDKS/StellarESDK-1.8.0/Modules/Drivers/System/GPIO/include\gpio.h ****     GPIO_IHYSTR_TTL,         /**< GPIO Port Input Buffer Enabled  */
 228:C:/StellarStudio-7.1/SDKS/StellarESDK-1.8.0/Modules/Drivers/System/GPIO/include\gpio.h ****     GPIO_IHYSTR_AUTO,        /**< GPIO Port Input Buffer Enabled  */
 229:C:/StellarStudio-7.1/SDKS/StellarESDK-1.8.0/Modules/Drivers/System/GPIO/include\gpio.h **** } gpio_ihyst_t;
 230:C:/StellarStudio-7.1/SDKS/StellarESDK-1.8.0/Modules/Drivers/System/GPIO/include\gpio.h **** 
 231:C:/StellarStudio-7.1/SDKS/StellarESDK-1.8.0/Modules/Drivers/System/GPIO/include\gpio.h **** /**
 232:C:/StellarStudio-7.1/SDKS/StellarESDK-1.8.0/Modules/Drivers/System/GPIO/include\gpio.h ****  * @enum gpio_trigen_t
 233:C:/StellarStudio-7.1/SDKS/StellarESDK-1.8.0/Modules/Drivers/System/GPIO/include\gpio.h ****  * GPIO Port Input Buffer Enable type.
 234:C:/StellarStudio-7.1/SDKS/StellarESDK-1.8.0/Modules/Drivers/System/GPIO/include\gpio.h ****  */
 235:C:/StellarStudio-7.1/SDKS/StellarESDK-1.8.0/Modules/Drivers/System/GPIO/include\gpio.h **** typedef enum {
 236:C:/StellarStudio-7.1/SDKS/StellarESDK-1.8.0/Modules/Drivers/System/GPIO/include\gpio.h ****     GPIO_TRIGENR_IN_DISABLED,     /**< GPIO Port Input Buffer Disabled */
 237:C:/StellarStudio-7.1/SDKS/StellarESDK-1.8.0/Modules/Drivers/System/GPIO/include\gpio.h ****     GPIO_TRIGENR_IN_ENABLED       /**< GPIO Port Input Buffer Enabled  */
 238:C:/StellarStudio-7.1/SDKS/StellarESDK-1.8.0/Modules/Drivers/System/GPIO/include\gpio.h **** } gpio_trigen_t;
 239:C:/StellarStudio-7.1/SDKS/StellarESDK-1.8.0/Modules/Drivers/System/GPIO/include\gpio.h **** 
 240:C:/StellarStudio-7.1/SDKS/StellarESDK-1.8.0/Modules/Drivers/System/GPIO/include\gpio.h **** /**
 241:C:/StellarStudio-7.1/SDKS/StellarESDK-1.8.0/Modules/Drivers/System/GPIO/include\gpio.h ****  * @enum gpio_safesel_t
 242:C:/StellarStudio-7.1/SDKS/StellarESDK-1.8.0/Modules/Drivers/System/GPIO/include\gpio.h ****  * GPIO Safe IO Selection Enable type.
 243:C:/StellarStudio-7.1/SDKS/StellarESDK-1.8.0/Modules/Drivers/System/GPIO/include\gpio.h ****  */
 244:C:/StellarStudio-7.1/SDKS/StellarESDK-1.8.0/Modules/Drivers/System/GPIO/include\gpio.h **** typedef enum {
 245:C:/StellarStudio-7.1/SDKS/StellarESDK-1.8.0/Modules/Drivers/System/GPIO/include\gpio.h ****     GPIO_SAFESEL_DISABLED,   /**< GPIO Safe IO Selection Disabled */
 246:C:/StellarStudio-7.1/SDKS/StellarESDK-1.8.0/Modules/Drivers/System/GPIO/include\gpio.h ****     GPIO_SAFESEL_ENABLED     /**< GPIO Safe IO Selection Enabled  */
 247:C:/StellarStudio-7.1/SDKS/StellarESDK-1.8.0/Modules/Drivers/System/GPIO/include\gpio.h **** } gpio_safesel_t;
 248:C:/StellarStudio-7.1/SDKS/StellarESDK-1.8.0/Modules/Drivers/System/GPIO/include\gpio.h **** 
 249:C:/StellarStudio-7.1/SDKS/StellarESDK-1.8.0/Modules/Drivers/System/GPIO/include\gpio.h **** /**
 250:C:/StellarStudio-7.1/SDKS/StellarESDK-1.8.0/Modules/Drivers/System/GPIO/include\gpio.h ****  * @enum gpio_safeval_t
 251:C:/StellarStudio-7.1/SDKS/StellarESDK-1.8.0/Modules/Drivers/System/GPIO/include\gpio.h ****  * GPIO Safe IO Selection value type.
 252:C:/StellarStudio-7.1/SDKS/StellarESDK-1.8.0/Modules/Drivers/System/GPIO/include\gpio.h ****  */
 253:C:/StellarStudio-7.1/SDKS/StellarESDK-1.8.0/Modules/Drivers/System/GPIO/include\gpio.h **** typedef enum {
 254:C:/StellarStudio-7.1/SDKS/StellarESDK-1.8.0/Modules/Drivers/System/GPIO/include\gpio.h ****     GPIO_SAFEVAL_LOW,        /**< GPIO Safe IO Selection Low  */
 255:C:/StellarStudio-7.1/SDKS/StellarESDK-1.8.0/Modules/Drivers/System/GPIO/include\gpio.h ****     GPIO_SAFEVAL_HIGH        /**< GPIO Safe IO Selection High */
 256:C:/StellarStudio-7.1/SDKS/StellarESDK-1.8.0/Modules/Drivers/System/GPIO/include\gpio.h **** } gpio_safeval_t;
 257:C:/StellarStudio-7.1/SDKS/StellarESDK-1.8.0/Modules/Drivers/System/GPIO/include\gpio.h **** 
 258:C:/StellarStudio-7.1/SDKS/StellarESDK-1.8.0/Modules/Drivers/System/GPIO/include\gpio.h **** /*===========================================================================*/
 259:C:/StellarStudio-7.1/SDKS/StellarESDK-1.8.0/Modules/Drivers/System/GPIO/include\gpio.h **** /* Module macros.                                                            */
 260:C:/StellarStudio-7.1/SDKS/StellarESDK-1.8.0/Modules/Drivers/System/GPIO/include\gpio.h **** /*===========================================================================*/
 261:C:/StellarStudio-7.1/SDKS/StellarESDK-1.8.0/Modules/Drivers/System/GPIO/include\gpio.h **** 
 262:C:/StellarStudio-7.1/SDKS/StellarESDK-1.8.0/Modules/Drivers/System/GPIO/include\gpio.h **** /**
 263:C:/StellarStudio-7.1/SDKS/StellarESDK-1.8.0/Modules/Drivers/System/GPIO/include\gpio.h ****  * @brief   Packs unique pin identifier.
 264:C:/StellarStudio-7.1/SDKS/StellarESDK-1.8.0/Modules/Drivers/System/GPIO/include\gpio.h ****  * @note    The low nibble contains the pin number, the high nibble the port
 265:C:/StellarStudio-7.1/SDKS/StellarESDK-1.8.0/Modules/Drivers/System/GPIO/include\gpio.h ****  *          number.
 266:C:/StellarStudio-7.1/SDKS/StellarESDK-1.8.0/Modules/Drivers/System/GPIO/include\gpio.h ****  *
 267:C:/StellarStudio-7.1/SDKS/StellarESDK-1.8.0/Modules/Drivers/System/GPIO/include\gpio.h ****  * @param[in] port      port number; it can be one of the following values:
 268:C:/StellarStudio-7.1/SDKS/StellarESDK-1.8.0/Modules/Drivers/System/GPIO/include\gpio.h ****  *            @arg @ref GPIO_PORT_A
 269:C:/StellarStudio-7.1/SDKS/StellarESDK-1.8.0/Modules/Drivers/System/GPIO/include\gpio.h ****  *            @arg @ref GPIO_PORT_B
 270:C:/StellarStudio-7.1/SDKS/StellarESDK-1.8.0/Modules/Drivers/System/GPIO/include\gpio.h ****  *            @arg @ref GPIO_PORT_C
 271:C:/StellarStudio-7.1/SDKS/StellarESDK-1.8.0/Modules/Drivers/System/GPIO/include\gpio.h ****  *            @arg @ref GPIO_PORT_D
 272:C:/StellarStudio-7.1/SDKS/StellarESDK-1.8.0/Modules/Drivers/System/GPIO/include\gpio.h ****  *            @arg @ref GPIO_PORT_E
 273:C:/StellarStudio-7.1/SDKS/StellarESDK-1.8.0/Modules/Drivers/System/GPIO/include\gpio.h ****  *            @arg @ref GPIO_PORT_F
 274:C:/StellarStudio-7.1/SDKS/StellarESDK-1.8.0/Modules/Drivers/System/GPIO/include\gpio.h ****  *            @arg @ref GPIO_PORT_G
 275:C:/StellarStudio-7.1/SDKS/StellarESDK-1.8.0/Modules/Drivers/System/GPIO/include\gpio.h ****  *            @arg @ref GPIO_PORT_H
 276:C:/StellarStudio-7.1/SDKS/StellarESDK-1.8.0/Modules/Drivers/System/GPIO/include\gpio.h ****  *            @arg @ref GPIO_PORT_I
 277:C:/StellarStudio-7.1/SDKS/StellarESDK-1.8.0/Modules/Drivers/System/GPIO/include\gpio.h ****  *            @arg @ref GPIO_PORT_J
 278:C:/StellarStudio-7.1/SDKS/StellarESDK-1.8.0/Modules/Drivers/System/GPIO/include\gpio.h ****  *            @arg @ref GPIO_PORT_K
 279:C:/StellarStudio-7.1/SDKS/StellarESDK-1.8.0/Modules/Drivers/System/GPIO/include\gpio.h ****  *            @arg @ref GPIO_PORT_L
 280:C:/StellarStudio-7.1/SDKS/StellarESDK-1.8.0/Modules/Drivers/System/GPIO/include\gpio.h ****  *            @arg @ref GPIO_PORT_M
 281:C:/StellarStudio-7.1/SDKS/StellarESDK-1.8.0/Modules/Drivers/System/GPIO/include\gpio.h ****  *            @arg @ref GPIO_PORT_N
 282:C:/StellarStudio-7.1/SDKS/StellarESDK-1.8.0/Modules/Drivers/System/GPIO/include\gpio.h ****  *            @arg @ref GPIO_PORT_Q
 283:C:/StellarStudio-7.1/SDKS/StellarESDK-1.8.0/Modules/Drivers/System/GPIO/include\gpio.h ****  *            @arg @ref GPIO_PORT_R
 284:C:/StellarStudio-7.1/SDKS/StellarESDK-1.8.0/Modules/Drivers/System/GPIO/include\gpio.h ****  *            @arg @ref GPIO_PORT_S
 285:C:/StellarStudio-7.1/SDKS/StellarESDK-1.8.0/Modules/Drivers/System/GPIO/include\gpio.h ****  *            @arg @ref GPIO_PORT_T
 286:C:/StellarStudio-7.1/SDKS/StellarESDK-1.8.0/Modules/Drivers/System/GPIO/include\gpio.h ****  *            @arg @ref GPIO_PORT_V
 287:C:/StellarStudio-7.1/SDKS/StellarESDK-1.8.0/Modules/Drivers/System/GPIO/include\gpio.h ****  *            @arg @ref GPIO_PORT_W
 288:C:/StellarStudio-7.1/SDKS/StellarESDK-1.8.0/Modules/Drivers/System/GPIO/include\gpio.h ****  *            @arg @ref GPIO_PORT_X
 289:C:/StellarStudio-7.1/SDKS/StellarESDK-1.8.0/Modules/Drivers/System/GPIO/include\gpio.h ****  *            @arg @ref GPIO_PORT_Y
 290:C:/StellarStudio-7.1/SDKS/StellarESDK-1.8.0/Modules/Drivers/System/GPIO/include\gpio.h ****  * @param[in] pin       pin number; it can be one of the following values:
 291:C:/StellarStudio-7.1/SDKS/StellarESDK-1.8.0/Modules/Drivers/System/GPIO/include\gpio.h ****  *            @arg @ref GPIO_PIN_0
 292:C:/StellarStudio-7.1/SDKS/StellarESDK-1.8.0/Modules/Drivers/System/GPIO/include\gpio.h ****  *            @arg @ref GPIO_PIN_1
 293:C:/StellarStudio-7.1/SDKS/StellarESDK-1.8.0/Modules/Drivers/System/GPIO/include\gpio.h ****  *            @arg @ref GPIO_PIN_2
 294:C:/StellarStudio-7.1/SDKS/StellarESDK-1.8.0/Modules/Drivers/System/GPIO/include\gpio.h ****  *            @arg @ref GPIO_PIN_3
 295:C:/StellarStudio-7.1/SDKS/StellarESDK-1.8.0/Modules/Drivers/System/GPIO/include\gpio.h ****  *            @arg @ref GPIO_PIN_4
 296:C:/StellarStudio-7.1/SDKS/StellarESDK-1.8.0/Modules/Drivers/System/GPIO/include\gpio.h ****  *            @arg @ref GPIO_PIN_5
 297:C:/StellarStudio-7.1/SDKS/StellarESDK-1.8.0/Modules/Drivers/System/GPIO/include\gpio.h ****  *            @arg @ref GPIO_PIN_6
 298:C:/StellarStudio-7.1/SDKS/StellarESDK-1.8.0/Modules/Drivers/System/GPIO/include\gpio.h ****  *            @arg @ref GPIO_PIN_7
 299:C:/StellarStudio-7.1/SDKS/StellarESDK-1.8.0/Modules/Drivers/System/GPIO/include\gpio.h ****  *            @arg @ref GPIO_PIN_8
 300:C:/StellarStudio-7.1/SDKS/StellarESDK-1.8.0/Modules/Drivers/System/GPIO/include\gpio.h ****  *            @arg @ref GPIO_PIN_9
 301:C:/StellarStudio-7.1/SDKS/StellarESDK-1.8.0/Modules/Drivers/System/GPIO/include\gpio.h ****  *            @arg @ref GPIO_PIN_10
 302:C:/StellarStudio-7.1/SDKS/StellarESDK-1.8.0/Modules/Drivers/System/GPIO/include\gpio.h ****  *            @arg @ref GPIO_PIN_11
 303:C:/StellarStudio-7.1/SDKS/StellarESDK-1.8.0/Modules/Drivers/System/GPIO/include\gpio.h ****  *            @arg @ref GPIO_PIN_12
 304:C:/StellarStudio-7.1/SDKS/StellarESDK-1.8.0/Modules/Drivers/System/GPIO/include\gpio.h ****  *            @arg @ref GPIO_PIN_13
 305:C:/StellarStudio-7.1/SDKS/StellarESDK-1.8.0/Modules/Drivers/System/GPIO/include\gpio.h ****  *            @arg @ref GPIO_PIN_14
 306:C:/StellarStudio-7.1/SDKS/StellarESDK-1.8.0/Modules/Drivers/System/GPIO/include\gpio.h ****  *            @arg @ref GPIO_PIN_15
 307:C:/StellarStudio-7.1/SDKS/StellarESDK-1.8.0/Modules/Drivers/System/GPIO/include\gpio.h ****  * @return              unique pin identifier
 308:C:/StellarStudio-7.1/SDKS/StellarESDK-1.8.0/Modules/Drivers/System/GPIO/include\gpio.h ****  *
 309:C:/StellarStudio-7.1/SDKS/StellarESDK-1.8.0/Modules/Drivers/System/GPIO/include\gpio.h ****  * @api
 310:C:/StellarStudio-7.1/SDKS/StellarESDK-1.8.0/Modules/Drivers/System/GPIO/include\gpio.h ****  */
 311:C:/StellarStudio-7.1/SDKS/StellarESDK-1.8.0/Modules/Drivers/System/GPIO/include\gpio.h **** #define gpio_iopack(_port_, _pin_)                                             \
 312:C:/StellarStudio-7.1/SDKS/StellarESDK-1.8.0/Modules/Drivers/System/GPIO/include\gpio.h ****     ((gpio_io_t)((((uint32_t)(_port_)) << 4U) | (((uint32_t)(_pin_)) & 0x0FU)))
 313:C:/StellarStudio-7.1/SDKS/StellarESDK-1.8.0/Modules/Drivers/System/GPIO/include\gpio.h **** 
 314:C:/StellarStudio-7.1/SDKS/StellarESDK-1.8.0/Modules/Drivers/System/GPIO/include\gpio.h **** /**
 315:C:/StellarStudio-7.1/SDKS/StellarESDK-1.8.0/Modules/Drivers/System/GPIO/include\gpio.h ****  * @brief   Unpacks unique pin identifier.
 316:C:/StellarStudio-7.1/SDKS/StellarESDK-1.8.0/Modules/Drivers/System/GPIO/include\gpio.h ****  * @note    Returns port number related to the unique pin identifier.
 317:C:/StellarStudio-7.1/SDKS/StellarESDK-1.8.0/Modules/Drivers/System/GPIO/include\gpio.h ****  *
 318:C:/StellarStudio-7.1/SDKS/StellarESDK-1.8.0/Modules/Drivers/System/GPIO/include\gpio.h ****  * @param[in]           unique pin identifier
 319:C:/StellarStudio-7.1/SDKS/StellarESDK-1.8.0/Modules/Drivers/System/GPIO/include\gpio.h ****  * @return              port number; it can be one of the following values:
 320:C:/StellarStudio-7.1/SDKS/StellarESDK-1.8.0/Modules/Drivers/System/GPIO/include\gpio.h ****  *            @arg @ref GPIO_PORT_A
 321:C:/StellarStudio-7.1/SDKS/StellarESDK-1.8.0/Modules/Drivers/System/GPIO/include\gpio.h ****  *            @arg @ref GPIO_PORT_B
 322:C:/StellarStudio-7.1/SDKS/StellarESDK-1.8.0/Modules/Drivers/System/GPIO/include\gpio.h ****  *            @arg @ref GPIO_PORT_C
 323:C:/StellarStudio-7.1/SDKS/StellarESDK-1.8.0/Modules/Drivers/System/GPIO/include\gpio.h ****  *            @arg @ref GPIO_PORT_D
 324:C:/StellarStudio-7.1/SDKS/StellarESDK-1.8.0/Modules/Drivers/System/GPIO/include\gpio.h ****  *            @arg @ref GPIO_PORT_E
 325:C:/StellarStudio-7.1/SDKS/StellarESDK-1.8.0/Modules/Drivers/System/GPIO/include\gpio.h ****  *            @arg @ref GPIO_PORT_F
 326:C:/StellarStudio-7.1/SDKS/StellarESDK-1.8.0/Modules/Drivers/System/GPIO/include\gpio.h ****  *            @arg @ref GPIO_PORT_G
 327:C:/StellarStudio-7.1/SDKS/StellarESDK-1.8.0/Modules/Drivers/System/GPIO/include\gpio.h ****  *            @arg @ref GPIO_PORT_H
 328:C:/StellarStudio-7.1/SDKS/StellarESDK-1.8.0/Modules/Drivers/System/GPIO/include\gpio.h ****  *            @arg @ref GPIO_PORT_I
 329:C:/StellarStudio-7.1/SDKS/StellarESDK-1.8.0/Modules/Drivers/System/GPIO/include\gpio.h ****  *            @arg @ref GPIO_PORT_J
 330:C:/StellarStudio-7.1/SDKS/StellarESDK-1.8.0/Modules/Drivers/System/GPIO/include\gpio.h ****  *            @arg @ref GPIO_PORT_K
 331:C:/StellarStudio-7.1/SDKS/StellarESDK-1.8.0/Modules/Drivers/System/GPIO/include\gpio.h ****  *            @arg @ref GPIO_PORT_L
 332:C:/StellarStudio-7.1/SDKS/StellarESDK-1.8.0/Modules/Drivers/System/GPIO/include\gpio.h ****  *            @arg @ref GPIO_PORT_M
 333:C:/StellarStudio-7.1/SDKS/StellarESDK-1.8.0/Modules/Drivers/System/GPIO/include\gpio.h ****  *            @arg @ref GPIO_PORT_N
 334:C:/StellarStudio-7.1/SDKS/StellarESDK-1.8.0/Modules/Drivers/System/GPIO/include\gpio.h ****  *            @arg @ref GPIO_PORT_Q
 335:C:/StellarStudio-7.1/SDKS/StellarESDK-1.8.0/Modules/Drivers/System/GPIO/include\gpio.h ****  *            @arg @ref GPIO_PORT_R
 336:C:/StellarStudio-7.1/SDKS/StellarESDK-1.8.0/Modules/Drivers/System/GPIO/include\gpio.h ****  *            @arg @ref GPIO_PORT_S
 337:C:/StellarStudio-7.1/SDKS/StellarESDK-1.8.0/Modules/Drivers/System/GPIO/include\gpio.h ****  *            @arg @ref GPIO_PORT_T
 338:C:/StellarStudio-7.1/SDKS/StellarESDK-1.8.0/Modules/Drivers/System/GPIO/include\gpio.h ****  *            @arg @ref GPIO_PORT_V
 339:C:/StellarStudio-7.1/SDKS/StellarESDK-1.8.0/Modules/Drivers/System/GPIO/include\gpio.h ****  *            @arg @ref GPIO_PORT_W
 340:C:/StellarStudio-7.1/SDKS/StellarESDK-1.8.0/Modules/Drivers/System/GPIO/include\gpio.h ****  *            @arg @ref GPIO_PORT_X
 341:C:/StellarStudio-7.1/SDKS/StellarESDK-1.8.0/Modules/Drivers/System/GPIO/include\gpio.h ****  *            @arg @ref GPIO_PORT_Y
 342:C:/StellarStudio-7.1/SDKS/StellarESDK-1.8.0/Modules/Drivers/System/GPIO/include\gpio.h ****  *
 343:C:/StellarStudio-7.1/SDKS/StellarESDK-1.8.0/Modules/Drivers/System/GPIO/include\gpio.h ****  * @api
 344:C:/StellarStudio-7.1/SDKS/StellarESDK-1.8.0/Modules/Drivers/System/GPIO/include\gpio.h ****  */
 345:C:/StellarStudio-7.1/SDKS/StellarESDK-1.8.0/Modules/Drivers/System/GPIO/include\gpio.h **** #define gpio_iounpack_port(_io_)                                               \
 346:C:/StellarStudio-7.1/SDKS/StellarESDK-1.8.0/Modules/Drivers/System/GPIO/include\gpio.h ****     ((gpio_port_t)(((uint32_t)(_io_)) >> 4U))
 347:C:/StellarStudio-7.1/SDKS/StellarESDK-1.8.0/Modules/Drivers/System/GPIO/include\gpio.h **** 
 348:C:/StellarStudio-7.1/SDKS/StellarESDK-1.8.0/Modules/Drivers/System/GPIO/include\gpio.h **** /**
 349:C:/StellarStudio-7.1/SDKS/StellarESDK-1.8.0/Modules/Drivers/System/GPIO/include\gpio.h ****  * @brief   Unpacks unique pin identifier.
 350:C:/StellarStudio-7.1/SDKS/StellarESDK-1.8.0/Modules/Drivers/System/GPIO/include\gpio.h ****  * @note    Returns pin number related to the unique pin identifier.
 351:C:/StellarStudio-7.1/SDKS/StellarESDK-1.8.0/Modules/Drivers/System/GPIO/include\gpio.h ****  *
 352:C:/StellarStudio-7.1/SDKS/StellarESDK-1.8.0/Modules/Drivers/System/GPIO/include\gpio.h ****  * @param[in]           unique pin identifier
 353:C:/StellarStudio-7.1/SDKS/StellarESDK-1.8.0/Modules/Drivers/System/GPIO/include\gpio.h ****  * @return              pin number; it can be one of the following values:
 354:C:/StellarStudio-7.1/SDKS/StellarESDK-1.8.0/Modules/Drivers/System/GPIO/include\gpio.h ****  *            @arg @ref GPIO_PIN_0
 355:C:/StellarStudio-7.1/SDKS/StellarESDK-1.8.0/Modules/Drivers/System/GPIO/include\gpio.h ****  *            @arg @ref GPIO_PIN_1
 356:C:/StellarStudio-7.1/SDKS/StellarESDK-1.8.0/Modules/Drivers/System/GPIO/include\gpio.h ****  *            @arg @ref GPIO_PIN_2
 357:C:/StellarStudio-7.1/SDKS/StellarESDK-1.8.0/Modules/Drivers/System/GPIO/include\gpio.h ****  *            @arg @ref GPIO_PIN_3
 358:C:/StellarStudio-7.1/SDKS/StellarESDK-1.8.0/Modules/Drivers/System/GPIO/include\gpio.h ****  *            @arg @ref GPIO_PIN_4
 359:C:/StellarStudio-7.1/SDKS/StellarESDK-1.8.0/Modules/Drivers/System/GPIO/include\gpio.h ****  *            @arg @ref GPIO_PIN_5
 360:C:/StellarStudio-7.1/SDKS/StellarESDK-1.8.0/Modules/Drivers/System/GPIO/include\gpio.h ****  *            @arg @ref GPIO_PIN_6
 361:C:/StellarStudio-7.1/SDKS/StellarESDK-1.8.0/Modules/Drivers/System/GPIO/include\gpio.h ****  *            @arg @ref GPIO_PIN_7
 362:C:/StellarStudio-7.1/SDKS/StellarESDK-1.8.0/Modules/Drivers/System/GPIO/include\gpio.h ****  *            @arg @ref GPIO_PIN_8
 363:C:/StellarStudio-7.1/SDKS/StellarESDK-1.8.0/Modules/Drivers/System/GPIO/include\gpio.h ****  *            @arg @ref GPIO_PIN_9
 364:C:/StellarStudio-7.1/SDKS/StellarESDK-1.8.0/Modules/Drivers/System/GPIO/include\gpio.h ****  *            @arg @ref GPIO_PIN_10
 365:C:/StellarStudio-7.1/SDKS/StellarESDK-1.8.0/Modules/Drivers/System/GPIO/include\gpio.h ****  *            @arg @ref GPIO_PIN_11
 366:C:/StellarStudio-7.1/SDKS/StellarESDK-1.8.0/Modules/Drivers/System/GPIO/include\gpio.h ****  *            @arg @ref GPIO_PIN_12
 367:C:/StellarStudio-7.1/SDKS/StellarESDK-1.8.0/Modules/Drivers/System/GPIO/include\gpio.h ****  *            @arg @ref GPIO_PIN_13
 368:C:/StellarStudio-7.1/SDKS/StellarESDK-1.8.0/Modules/Drivers/System/GPIO/include\gpio.h ****  *            @arg @ref GPIO_PIN_14
 369:C:/StellarStudio-7.1/SDKS/StellarESDK-1.8.0/Modules/Drivers/System/GPIO/include\gpio.h ****  *            @arg @ref GPIO_PIN_15
 370:C:/StellarStudio-7.1/SDKS/StellarESDK-1.8.0/Modules/Drivers/System/GPIO/include\gpio.h ****  *
 371:C:/StellarStudio-7.1/SDKS/StellarESDK-1.8.0/Modules/Drivers/System/GPIO/include\gpio.h ****  * @api
 372:C:/StellarStudio-7.1/SDKS/StellarESDK-1.8.0/Modules/Drivers/System/GPIO/include\gpio.h ****  */
 373:C:/StellarStudio-7.1/SDKS/StellarESDK-1.8.0/Modules/Drivers/System/GPIO/include\gpio.h **** #define gpio_iounpack_pin(_io_)                                                \
 374:C:/StellarStudio-7.1/SDKS/StellarESDK-1.8.0/Modules/Drivers/System/GPIO/include\gpio.h ****     ((gpio_pin_t)(((uint32_t)(_io_)) & 0x0FU));
 375:C:/StellarStudio-7.1/SDKS/StellarESDK-1.8.0/Modules/Drivers/System/GPIO/include\gpio.h **** 
 376:C:/StellarStudio-7.1/SDKS/StellarESDK-1.8.0/Modules/Drivers/System/GPIO/include\gpio.h **** /*===========================================================================*/
 377:C:/StellarStudio-7.1/SDKS/StellarESDK-1.8.0/Modules/Drivers/System/GPIO/include\gpio.h **** /* External declarations.                                                    */
 378:C:/StellarStudio-7.1/SDKS/StellarESDK-1.8.0/Modules/Drivers/System/GPIO/include\gpio.h **** /*===========================================================================*/
 379:C:/StellarStudio-7.1/SDKS/StellarESDK-1.8.0/Modules/Drivers/System/GPIO/include\gpio.h **** 
 380:C:/StellarStudio-7.1/SDKS/StellarESDK-1.8.0/Modules/Drivers/System/GPIO/include\gpio.h **** /* Export driver modules.*/
 381:C:/StellarStudio-7.1/SDKS/StellarESDK-1.8.0/Modules/Drivers/System/GPIO/include\gpio.h **** #include <gpio_dev.h>
 382:C:/StellarStudio-7.1/SDKS/StellarESDK-1.8.0/Modules/Drivers/System/GPIO/include\gpio.h **** 
 383:C:/StellarStudio-7.1/SDKS/StellarESDK-1.8.0/Modules/Drivers/System/GPIO/include\gpio.h **** #ifdef __cplusplus
 384:C:/StellarStudio-7.1/SDKS/StellarESDK-1.8.0/Modules/Drivers/System/GPIO/include\gpio.h **** extern "C" {
 385:C:/StellarStudio-7.1/SDKS/StellarESDK-1.8.0/Modules/Drivers/System/GPIO/include\gpio.h **** #endif
 386:C:/StellarStudio-7.1/SDKS/StellarESDK-1.8.0/Modules/Drivers/System/GPIO/include\gpio.h **** 
 387:C:/StellarStudio-7.1/SDKS/StellarESDK-1.8.0/Modules/Drivers/System/GPIO/include\gpio.h **** /**
 388:C:/StellarStudio-7.1/SDKS/StellarESDK-1.8.0/Modules/Drivers/System/GPIO/include\gpio.h ****  * @brief   Initializes GPIO instances.
 389:C:/StellarStudio-7.1/SDKS/StellarESDK-1.8.0/Modules/Drivers/System/GPIO/include\gpio.h ****  *
 390:C:/StellarStudio-7.1/SDKS/StellarESDK-1.8.0/Modules/Drivers/System/GPIO/include\gpio.h ****  * @api
 391:C:/StellarStudio-7.1/SDKS/StellarESDK-1.8.0/Modules/Drivers/System/GPIO/include\gpio.h ****  */
 392:C:/StellarStudio-7.1/SDKS/StellarESDK-1.8.0/Modules/Drivers/System/GPIO/include\gpio.h **** void gpio_init(void);
 393:C:/StellarStudio-7.1/SDKS/StellarESDK-1.8.0/Modules/Drivers/System/GPIO/include\gpio.h **** 
 394:C:/StellarStudio-7.1/SDKS/StellarESDK-1.8.0/Modules/Drivers/System/GPIO/include\gpio.h **** /*===========================================================================*/
 395:C:/StellarStudio-7.1/SDKS/StellarESDK-1.8.0/Modules/Drivers/System/GPIO/include\gpio.h **** /* Module inline functions.                                                  */
 396:C:/StellarStudio-7.1/SDKS/StellarESDK-1.8.0/Modules/Drivers/System/GPIO/include\gpio.h **** /*===========================================================================*/
 397:C:/StellarStudio-7.1/SDKS/StellarESDK-1.8.0/Modules/Drivers/System/GPIO/include\gpio.h **** 
 398:C:/StellarStudio-7.1/SDKS/StellarESDK-1.8.0/Modules/Drivers/System/GPIO/include\gpio.h **** /**
 399:C:/StellarStudio-7.1/SDKS/StellarESDK-1.8.0/Modules/Drivers/System/GPIO/include\gpio.h ****  * @brief   Sets Mode Register pin value.
 400:C:/StellarStudio-7.1/SDKS/StellarESDK-1.8.0/Modules/Drivers/System/GPIO/include\gpio.h ****  * @note    Sets Mode value of the pin related to the unique pin identifier.
 401:C:/StellarStudio-7.1/SDKS/StellarESDK-1.8.0/Modules/Drivers/System/GPIO/include\gpio.h ****  *
 402:C:/StellarStudio-7.1/SDKS/StellarESDK-1.8.0/Modules/Drivers/System/GPIO/include\gpio.h ****  * @param[in] io        unique pin identifier
 403:C:/StellarStudio-7.1/SDKS/StellarESDK-1.8.0/Modules/Drivers/System/GPIO/include\gpio.h ****  * @param[in] mode      mode value; it can be one of the following values:
 404:C:/StellarStudio-7.1/SDKS/StellarESDK-1.8.0/Modules/Drivers/System/GPIO/include\gpio.h ****  *            @arg @ref GPIO_MODER_INPUT
 405:C:/StellarStudio-7.1/SDKS/StellarESDK-1.8.0/Modules/Drivers/System/GPIO/include\gpio.h ****  *            @arg @ref GPIO_MODER_OUTPUT
 406:C:/StellarStudio-7.1/SDKS/StellarESDK-1.8.0/Modules/Drivers/System/GPIO/include\gpio.h ****  *            @arg @ref GPIO_MODER_ALTERNATE
 407:C:/StellarStudio-7.1/SDKS/StellarESDK-1.8.0/Modules/Drivers/System/GPIO/include\gpio.h ****  *            @arg @ref GPIO_MODER_ANALOG
 408:C:/StellarStudio-7.1/SDKS/StellarESDK-1.8.0/Modules/Drivers/System/GPIO/include\gpio.h ****  *
 409:C:/StellarStudio-7.1/SDKS/StellarESDK-1.8.0/Modules/Drivers/System/GPIO/include\gpio.h ****  * @api
 410:C:/StellarStudio-7.1/SDKS/StellarESDK-1.8.0/Modules/Drivers/System/GPIO/include\gpio.h ****  */
 411:C:/StellarStudio-7.1/SDKS/StellarESDK-1.8.0/Modules/Drivers/System/GPIO/include\gpio.h **** __STATIC_INLINE void gpio_set_pin_moder(gpio_io_t io,
 412:C:/StellarStudio-7.1/SDKS/StellarESDK-1.8.0/Modules/Drivers/System/GPIO/include\gpio.h ****                                         gpio_mode_t mode) {
 413:C:/StellarStudio-7.1/SDKS/StellarESDK-1.8.0/Modules/Drivers/System/GPIO/include\gpio.h **** 
 414:C:/StellarStudio-7.1/SDKS/StellarESDK-1.8.0/Modules/Drivers/System/GPIO/include\gpio.h **** 
 415:C:/StellarStudio-7.1/SDKS/StellarESDK-1.8.0/Modules/Drivers/System/GPIO/include\gpio.h ****     gpio_port_t port = gpio_iounpack_port(io);
 416:C:/StellarStudio-7.1/SDKS/StellarESDK-1.8.0/Modules/Drivers/System/GPIO/include\gpio.h ****     gpio_pin_t pin   = gpio_iounpack_pin(io);
 417:C:/StellarStudio-7.1/SDKS/StellarESDK-1.8.0/Modules/Drivers/System/GPIO/include\gpio.h ****     GPIO_TypeDef *p  = gpio_dev_get_port_reg_ptr(port);
 418:C:/StellarStudio-7.1/SDKS/StellarESDK-1.8.0/Modules/Drivers/System/GPIO/include\gpio.h **** 
 419:C:/StellarStudio-7.1/SDKS/StellarESDK-1.8.0/Modules/Drivers/System/GPIO/include\gpio.h ****     if (p != NULL) {
 420:C:/StellarStudio-7.1/SDKS/StellarESDK-1.8.0/Modules/Drivers/System/GPIO/include\gpio.h ****         REG_SET_FIELD_POS(p->MODER, 0x3U, (2 * pin), mode);
 421:C:/StellarStudio-7.1/SDKS/StellarESDK-1.8.0/Modules/Drivers/System/GPIO/include\gpio.h ****     }
 422:C:/StellarStudio-7.1/SDKS/StellarESDK-1.8.0/Modules/Drivers/System/GPIO/include\gpio.h **** }
 423:C:/StellarStudio-7.1/SDKS/StellarESDK-1.8.0/Modules/Drivers/System/GPIO/include\gpio.h **** 
 424:C:/StellarStudio-7.1/SDKS/StellarESDK-1.8.0/Modules/Drivers/System/GPIO/include\gpio.h **** /**
 425:C:/StellarStudio-7.1/SDKS/StellarESDK-1.8.0/Modules/Drivers/System/GPIO/include\gpio.h ****  * @brief   Sets Output Type pin value.
 426:C:/StellarStudio-7.1/SDKS/StellarESDK-1.8.0/Modules/Drivers/System/GPIO/include\gpio.h ****  * @note    Sets Output Type value of the pin related to the unique pin
 427:C:/StellarStudio-7.1/SDKS/StellarESDK-1.8.0/Modules/Drivers/System/GPIO/include\gpio.h ****  *          identifier.
 428:C:/StellarStudio-7.1/SDKS/StellarESDK-1.8.0/Modules/Drivers/System/GPIO/include\gpio.h ****  *
 429:C:/StellarStudio-7.1/SDKS/StellarESDK-1.8.0/Modules/Drivers/System/GPIO/include\gpio.h ****  * @param[in] io        unique pin identifier
 430:C:/StellarStudio-7.1/SDKS/StellarESDK-1.8.0/Modules/Drivers/System/GPIO/include\gpio.h ****  * @param[in] otype     output type value; it can be one of the following
 431:C:/StellarStudio-7.1/SDKS/StellarESDK-1.8.0/Modules/Drivers/System/GPIO/include\gpio.h ****  *                      values:
 432:C:/StellarStudio-7.1/SDKS/StellarESDK-1.8.0/Modules/Drivers/System/GPIO/include\gpio.h ****  *            @arg @ref GPIO_OTYPER_PUSHPULL
 433:C:/StellarStudio-7.1/SDKS/StellarESDK-1.8.0/Modules/Drivers/System/GPIO/include\gpio.h ****  *            @arg @ref GPIO_OTYPER_OPENDRAIN
 434:C:/StellarStudio-7.1/SDKS/StellarESDK-1.8.0/Modules/Drivers/System/GPIO/include\gpio.h ****  *
 435:C:/StellarStudio-7.1/SDKS/StellarESDK-1.8.0/Modules/Drivers/System/GPIO/include\gpio.h ****  * @api
 436:C:/StellarStudio-7.1/SDKS/StellarESDK-1.8.0/Modules/Drivers/System/GPIO/include\gpio.h ****  */
 437:C:/StellarStudio-7.1/SDKS/StellarESDK-1.8.0/Modules/Drivers/System/GPIO/include\gpio.h **** __STATIC_INLINE void gpio_set_pin_otyper(gpio_io_t io,
 438:C:/StellarStudio-7.1/SDKS/StellarESDK-1.8.0/Modules/Drivers/System/GPIO/include\gpio.h ****                                          gpio_otype_t otype) {
 439:C:/StellarStudio-7.1/SDKS/StellarESDK-1.8.0/Modules/Drivers/System/GPIO/include\gpio.h **** 
 440:C:/StellarStudio-7.1/SDKS/StellarESDK-1.8.0/Modules/Drivers/System/GPIO/include\gpio.h ****     gpio_port_t port = gpio_iounpack_port(io);
 441:C:/StellarStudio-7.1/SDKS/StellarESDK-1.8.0/Modules/Drivers/System/GPIO/include\gpio.h ****     gpio_pin_t pin   = gpio_iounpack_pin(io);
 442:C:/StellarStudio-7.1/SDKS/StellarESDK-1.8.0/Modules/Drivers/System/GPIO/include\gpio.h ****     GPIO_TypeDef *p  = gpio_dev_get_port_reg_ptr(port);
 443:C:/StellarStudio-7.1/SDKS/StellarESDK-1.8.0/Modules/Drivers/System/GPIO/include\gpio.h **** 
 444:C:/StellarStudio-7.1/SDKS/StellarESDK-1.8.0/Modules/Drivers/System/GPIO/include\gpio.h ****     if (p != NULL) {
 445:C:/StellarStudio-7.1/SDKS/StellarESDK-1.8.0/Modules/Drivers/System/GPIO/include\gpio.h ****         REG_SET_FIELD_POS(p->OTYPER, 0x1U, pin, otype);
 446:C:/StellarStudio-7.1/SDKS/StellarESDK-1.8.0/Modules/Drivers/System/GPIO/include\gpio.h ****     }
 447:C:/StellarStudio-7.1/SDKS/StellarESDK-1.8.0/Modules/Drivers/System/GPIO/include\gpio.h **** }
 448:C:/StellarStudio-7.1/SDKS/StellarESDK-1.8.0/Modules/Drivers/System/GPIO/include\gpio.h **** 
 449:C:/StellarStudio-7.1/SDKS/StellarESDK-1.8.0/Modules/Drivers/System/GPIO/include\gpio.h **** /**
 450:C:/StellarStudio-7.1/SDKS/StellarESDK-1.8.0/Modules/Drivers/System/GPIO/include\gpio.h ****  * @brief   Sets Output Speed pin value.
 451:C:/StellarStudio-7.1/SDKS/StellarESDK-1.8.0/Modules/Drivers/System/GPIO/include\gpio.h ****  * @note    Sets Output Speed value of the pin related to the unique pin
 452:C:/StellarStudio-7.1/SDKS/StellarESDK-1.8.0/Modules/Drivers/System/GPIO/include\gpio.h ****  *          identifier.
 453:C:/StellarStudio-7.1/SDKS/StellarESDK-1.8.0/Modules/Drivers/System/GPIO/include\gpio.h ****  *
 454:C:/StellarStudio-7.1/SDKS/StellarESDK-1.8.0/Modules/Drivers/System/GPIO/include\gpio.h ****  * @param[in] io        unique pin identifier
 455:C:/StellarStudio-7.1/SDKS/StellarESDK-1.8.0/Modules/Drivers/System/GPIO/include\gpio.h ****  * @param[in] ospeed    output speed value; it can be one of the following
 456:C:/StellarStudio-7.1/SDKS/StellarESDK-1.8.0/Modules/Drivers/System/GPIO/include\gpio.h ****  *                      values:
 457:C:/StellarStudio-7.1/SDKS/StellarESDK-1.8.0/Modules/Drivers/System/GPIO/include\gpio.h ****  *            @arg @ref GPIO_OSPEEDR_LOW
 458:C:/StellarStudio-7.1/SDKS/StellarESDK-1.8.0/Modules/Drivers/System/GPIO/include\gpio.h ****  *            @arg @ref GPIO_OSPEEDR_MEDIUM
 459:C:/StellarStudio-7.1/SDKS/StellarESDK-1.8.0/Modules/Drivers/System/GPIO/include\gpio.h ****  *            @arg @ref GPIO_OSPEEDR_HIGH
 460:C:/StellarStudio-7.1/SDKS/StellarESDK-1.8.0/Modules/Drivers/System/GPIO/include\gpio.h ****  *            @arg @ref GPIO_OSPEEDR_VERYHIGH
 461:C:/StellarStudio-7.1/SDKS/StellarESDK-1.8.0/Modules/Drivers/System/GPIO/include\gpio.h ****  *
 462:C:/StellarStudio-7.1/SDKS/StellarESDK-1.8.0/Modules/Drivers/System/GPIO/include\gpio.h ****  * @api
 463:C:/StellarStudio-7.1/SDKS/StellarESDK-1.8.0/Modules/Drivers/System/GPIO/include\gpio.h ****  */
 464:C:/StellarStudio-7.1/SDKS/StellarESDK-1.8.0/Modules/Drivers/System/GPIO/include\gpio.h **** __STATIC_INLINE void gpio_set_pin_ospeedr(gpio_io_t io,
 465:C:/StellarStudio-7.1/SDKS/StellarESDK-1.8.0/Modules/Drivers/System/GPIO/include\gpio.h ****                                           gpio_ospeed_t ospeed) {
 466:C:/StellarStudio-7.1/SDKS/StellarESDK-1.8.0/Modules/Drivers/System/GPIO/include\gpio.h **** 
 467:C:/StellarStudio-7.1/SDKS/StellarESDK-1.8.0/Modules/Drivers/System/GPIO/include\gpio.h ****     gpio_port_t port = gpio_iounpack_port(io);
 468:C:/StellarStudio-7.1/SDKS/StellarESDK-1.8.0/Modules/Drivers/System/GPIO/include\gpio.h ****     gpio_pin_t pin   = gpio_iounpack_pin(io);
 469:C:/StellarStudio-7.1/SDKS/StellarESDK-1.8.0/Modules/Drivers/System/GPIO/include\gpio.h ****     GPIO_TypeDef *p  = gpio_dev_get_port_reg_ptr(port);
 470:C:/StellarStudio-7.1/SDKS/StellarESDK-1.8.0/Modules/Drivers/System/GPIO/include\gpio.h **** 
 471:C:/StellarStudio-7.1/SDKS/StellarESDK-1.8.0/Modules/Drivers/System/GPIO/include\gpio.h ****     if (p != NULL) {
 472:C:/StellarStudio-7.1/SDKS/StellarESDK-1.8.0/Modules/Drivers/System/GPIO/include\gpio.h ****         REG_SET_FIELD_POS(p->OSPEEDR, 0x3U, (2 * pin), ospeed);
 473:C:/StellarStudio-7.1/SDKS/StellarESDK-1.8.0/Modules/Drivers/System/GPIO/include\gpio.h ****     }
 474:C:/StellarStudio-7.1/SDKS/StellarESDK-1.8.0/Modules/Drivers/System/GPIO/include\gpio.h **** }
 475:C:/StellarStudio-7.1/SDKS/StellarESDK-1.8.0/Modules/Drivers/System/GPIO/include\gpio.h **** 
 476:C:/StellarStudio-7.1/SDKS/StellarESDK-1.8.0/Modules/Drivers/System/GPIO/include\gpio.h **** /**
 477:C:/StellarStudio-7.1/SDKS/StellarESDK-1.8.0/Modules/Drivers/System/GPIO/include\gpio.h ****  * @brief   Sets Pull-up/Pull-down pin value.
 478:C:/StellarStudio-7.1/SDKS/StellarESDK-1.8.0/Modules/Drivers/System/GPIO/include\gpio.h ****  * @note    Sets Pull-up/Pull-down value of the pin related to the unique pin
 479:C:/StellarStudio-7.1/SDKS/StellarESDK-1.8.0/Modules/Drivers/System/GPIO/include\gpio.h ****  *          identifier.
 480:C:/StellarStudio-7.1/SDKS/StellarESDK-1.8.0/Modules/Drivers/System/GPIO/include\gpio.h ****  *
 481:C:/StellarStudio-7.1/SDKS/StellarESDK-1.8.0/Modules/Drivers/System/GPIO/include\gpio.h ****  * @param[in] io        unique pin identifier
 482:C:/StellarStudio-7.1/SDKS/StellarESDK-1.8.0/Modules/Drivers/System/GPIO/include\gpio.h ****  * @param[in] pupd      pull-up/pull-down value; it can be one of the following
 483:C:/StellarStudio-7.1/SDKS/StellarESDK-1.8.0/Modules/Drivers/System/GPIO/include\gpio.h ****  *                      values:
 484:C:/StellarStudio-7.1/SDKS/StellarESDK-1.8.0/Modules/Drivers/System/GPIO/include\gpio.h ****  *            @arg @ref GPIO_PUPDR_FLOATING
 485:C:/StellarStudio-7.1/SDKS/StellarESDK-1.8.0/Modules/Drivers/System/GPIO/include\gpio.h ****  *            @arg @ref GPIO_PUPDR_PULLUP
 486:C:/StellarStudio-7.1/SDKS/StellarESDK-1.8.0/Modules/Drivers/System/GPIO/include\gpio.h ****  *            @arg @ref GPIO_PUPDR_PULLDOWN
 487:C:/StellarStudio-7.1/SDKS/StellarESDK-1.8.0/Modules/Drivers/System/GPIO/include\gpio.h ****  *
 488:C:/StellarStudio-7.1/SDKS/StellarESDK-1.8.0/Modules/Drivers/System/GPIO/include\gpio.h ****  * @api
 489:C:/StellarStudio-7.1/SDKS/StellarESDK-1.8.0/Modules/Drivers/System/GPIO/include\gpio.h ****  */
 490:C:/StellarStudio-7.1/SDKS/StellarESDK-1.8.0/Modules/Drivers/System/GPIO/include\gpio.h **** __STATIC_INLINE void gpio_set_pin_pupdr(gpio_io_t io,
 491:C:/StellarStudio-7.1/SDKS/StellarESDK-1.8.0/Modules/Drivers/System/GPIO/include\gpio.h ****                                         gpio_pupd_t pupd) {
 492:C:/StellarStudio-7.1/SDKS/StellarESDK-1.8.0/Modules/Drivers/System/GPIO/include\gpio.h **** 
 493:C:/StellarStudio-7.1/SDKS/StellarESDK-1.8.0/Modules/Drivers/System/GPIO/include\gpio.h ****     gpio_port_t port = gpio_iounpack_port(io);
 494:C:/StellarStudio-7.1/SDKS/StellarESDK-1.8.0/Modules/Drivers/System/GPIO/include\gpio.h ****     gpio_pin_t pin   = gpio_iounpack_pin(io);
 495:C:/StellarStudio-7.1/SDKS/StellarESDK-1.8.0/Modules/Drivers/System/GPIO/include\gpio.h ****     GPIO_TypeDef *p  = gpio_dev_get_port_reg_ptr(port);
 496:C:/StellarStudio-7.1/SDKS/StellarESDK-1.8.0/Modules/Drivers/System/GPIO/include\gpio.h **** 
 497:C:/StellarStudio-7.1/SDKS/StellarESDK-1.8.0/Modules/Drivers/System/GPIO/include\gpio.h ****     if (p != NULL) {
 498:C:/StellarStudio-7.1/SDKS/StellarESDK-1.8.0/Modules/Drivers/System/GPIO/include\gpio.h ****         REG_SET_FIELD_POS(p->PUPDR, 0x3U, (2 * pin), pupd);
 499:C:/StellarStudio-7.1/SDKS/StellarESDK-1.8.0/Modules/Drivers/System/GPIO/include\gpio.h ****     }
 500:C:/StellarStudio-7.1/SDKS/StellarESDK-1.8.0/Modules/Drivers/System/GPIO/include\gpio.h **** }
 501:C:/StellarStudio-7.1/SDKS/StellarESDK-1.8.0/Modules/Drivers/System/GPIO/include\gpio.h **** 
 502:C:/StellarStudio-7.1/SDKS/StellarESDK-1.8.0/Modules/Drivers/System/GPIO/include\gpio.h **** /**
 503:C:/StellarStudio-7.1/SDKS/StellarESDK-1.8.0/Modules/Drivers/System/GPIO/include\gpio.h ****  * @brief   Sets Output Data pin value.
 504:C:/StellarStudio-7.1/SDKS/StellarESDK-1.8.0/Modules/Drivers/System/GPIO/include\gpio.h ****  * @note    Sets Output Data value of the pin related to the unique pin
 505:C:/StellarStudio-7.1/SDKS/StellarESDK-1.8.0/Modules/Drivers/System/GPIO/include\gpio.h ****  *          identifier.
 506:C:/StellarStudio-7.1/SDKS/StellarESDK-1.8.0/Modules/Drivers/System/GPIO/include\gpio.h ****  *
 507:C:/StellarStudio-7.1/SDKS/StellarESDK-1.8.0/Modules/Drivers/System/GPIO/include\gpio.h ****  * @param[in] io        unique pin identifier
 508:C:/StellarStudio-7.1/SDKS/StellarESDK-1.8.0/Modules/Drivers/System/GPIO/include\gpio.h ****  * @param[in] od        output data value; it can be one of the following
 509:C:/StellarStudio-7.1/SDKS/StellarESDK-1.8.0/Modules/Drivers/System/GPIO/include\gpio.h ****  *                      values:
 510:C:/StellarStudio-7.1/SDKS/StellarESDK-1.8.0/Modules/Drivers/System/GPIO/include\gpio.h ****  *            @arg @ref GPIO_ODR_LOW
 511:C:/StellarStudio-7.1/SDKS/StellarESDK-1.8.0/Modules/Drivers/System/GPIO/include\gpio.h ****  *            @arg @ref GPIO_ODR_HIGH
 512:C:/StellarStudio-7.1/SDKS/StellarESDK-1.8.0/Modules/Drivers/System/GPIO/include\gpio.h ****  *
 513:C:/StellarStudio-7.1/SDKS/StellarESDK-1.8.0/Modules/Drivers/System/GPIO/include\gpio.h ****  * @api
 514:C:/StellarStudio-7.1/SDKS/StellarESDK-1.8.0/Modules/Drivers/System/GPIO/include\gpio.h ****  */
 515:C:/StellarStudio-7.1/SDKS/StellarESDK-1.8.0/Modules/Drivers/System/GPIO/include\gpio.h **** __STATIC_INLINE void gpio_set_pin_odr(gpio_io_t io,
 516:C:/StellarStudio-7.1/SDKS/StellarESDK-1.8.0/Modules/Drivers/System/GPIO/include\gpio.h ****                                       gpio_od_t od) {
 517:C:/StellarStudio-7.1/SDKS/StellarESDK-1.8.0/Modules/Drivers/System/GPIO/include\gpio.h **** 
 518:C:/StellarStudio-7.1/SDKS/StellarESDK-1.8.0/Modules/Drivers/System/GPIO/include\gpio.h ****     gpio_port_t port = gpio_iounpack_port(io);
 519:C:/StellarStudio-7.1/SDKS/StellarESDK-1.8.0/Modules/Drivers/System/GPIO/include\gpio.h ****     gpio_pin_t pin   = gpio_iounpack_pin(io);
 520:C:/StellarStudio-7.1/SDKS/StellarESDK-1.8.0/Modules/Drivers/System/GPIO/include\gpio.h ****     GPIO_TypeDef *p  = gpio_dev_get_port_reg_ptr(port);
 521:C:/StellarStudio-7.1/SDKS/StellarESDK-1.8.0/Modules/Drivers/System/GPIO/include\gpio.h **** 
 522:C:/StellarStudio-7.1/SDKS/StellarESDK-1.8.0/Modules/Drivers/System/GPIO/include\gpio.h ****     if (p != NULL) {
 523:C:/StellarStudio-7.1/SDKS/StellarESDK-1.8.0/Modules/Drivers/System/GPIO/include\gpio.h ****         REG_SET_FIELD_POS(p->ODR, 0x1U, pin, od);
 524:C:/StellarStudio-7.1/SDKS/StellarESDK-1.8.0/Modules/Drivers/System/GPIO/include\gpio.h ****     }
 525:C:/StellarStudio-7.1/SDKS/StellarESDK-1.8.0/Modules/Drivers/System/GPIO/include\gpio.h **** }
 526:C:/StellarStudio-7.1/SDKS/StellarESDK-1.8.0/Modules/Drivers/System/GPIO/include\gpio.h **** 
 527:C:/StellarStudio-7.1/SDKS/StellarESDK-1.8.0/Modules/Drivers/System/GPIO/include\gpio.h **** /**
 528:C:/StellarStudio-7.1/SDKS/StellarESDK-1.8.0/Modules/Drivers/System/GPIO/include\gpio.h ****  * @brief   Sets Alternate Function pin value.
 529:C:/StellarStudio-7.1/SDKS/StellarESDK-1.8.0/Modules/Drivers/System/GPIO/include\gpio.h ****  * @note    Sets Alternate Function value of the pin related to the unique pin
 530:C:/StellarStudio-7.1/SDKS/StellarESDK-1.8.0/Modules/Drivers/System/GPIO/include\gpio.h ****  *          identifier.
 531:C:/StellarStudio-7.1/SDKS/StellarESDK-1.8.0/Modules/Drivers/System/GPIO/include\gpio.h ****  *
 532:C:/StellarStudio-7.1/SDKS/StellarESDK-1.8.0/Modules/Drivers/System/GPIO/include\gpio.h ****  * @param[in] io        unique pin identifier
 533:C:/StellarStudio-7.1/SDKS/StellarESDK-1.8.0/Modules/Drivers/System/GPIO/include\gpio.h ****  * @param[in] af        alternate function value
 534:C:/StellarStudio-7.1/SDKS/StellarESDK-1.8.0/Modules/Drivers/System/GPIO/include\gpio.h ****  *
 535:C:/StellarStudio-7.1/SDKS/StellarESDK-1.8.0/Modules/Drivers/System/GPIO/include\gpio.h ****  * @api
 536:C:/StellarStudio-7.1/SDKS/StellarESDK-1.8.0/Modules/Drivers/System/GPIO/include\gpio.h ****  */
 537:C:/StellarStudio-7.1/SDKS/StellarESDK-1.8.0/Modules/Drivers/System/GPIO/include\gpio.h **** __STATIC_INLINE void gpio_set_pin_afr(gpio_io_t io,
 538:C:/StellarStudio-7.1/SDKS/StellarESDK-1.8.0/Modules/Drivers/System/GPIO/include\gpio.h ****                                       gpio_af_t af) {
 539:C:/StellarStudio-7.1/SDKS/StellarESDK-1.8.0/Modules/Drivers/System/GPIO/include\gpio.h **** 
 540:C:/StellarStudio-7.1/SDKS/StellarESDK-1.8.0/Modules/Drivers/System/GPIO/include\gpio.h ****     gpio_port_t port = gpio_iounpack_port(io);
 541:C:/StellarStudio-7.1/SDKS/StellarESDK-1.8.0/Modules/Drivers/System/GPIO/include\gpio.h ****     gpio_pin_t pin   = gpio_iounpack_pin(io);
 542:C:/StellarStudio-7.1/SDKS/StellarESDK-1.8.0/Modules/Drivers/System/GPIO/include\gpio.h ****     GPIO_TypeDef *p  = gpio_dev_get_port_reg_ptr(port);
 543:C:/StellarStudio-7.1/SDKS/StellarESDK-1.8.0/Modules/Drivers/System/GPIO/include\gpio.h **** 
 544:C:/StellarStudio-7.1/SDKS/StellarESDK-1.8.0/Modules/Drivers/System/GPIO/include\gpio.h ****     if (p != NULL) {
 545:C:/StellarStudio-7.1/SDKS/StellarESDK-1.8.0/Modules/Drivers/System/GPIO/include\gpio.h ****         if (pin < 8U) {
 546:C:/StellarStudio-7.1/SDKS/StellarESDK-1.8.0/Modules/Drivers/System/GPIO/include\gpio.h ****             REG_SET_FIELD_POS(p->AFR[0], 0xFU, (4 * pin), af);
 547:C:/StellarStudio-7.1/SDKS/StellarESDK-1.8.0/Modules/Drivers/System/GPIO/include\gpio.h ****         } else {
 548:C:/StellarStudio-7.1/SDKS/StellarESDK-1.8.0/Modules/Drivers/System/GPIO/include\gpio.h ****             REG_SET_FIELD_POS(p->AFR[1], 0xFU, (4 * (pin - 8)), af);
 549:C:/StellarStudio-7.1/SDKS/StellarESDK-1.8.0/Modules/Drivers/System/GPIO/include\gpio.h ****         }
 550:C:/StellarStudio-7.1/SDKS/StellarESDK-1.8.0/Modules/Drivers/System/GPIO/include\gpio.h ****     }
 551:C:/StellarStudio-7.1/SDKS/StellarESDK-1.8.0/Modules/Drivers/System/GPIO/include\gpio.h **** }
 552:C:/StellarStudio-7.1/SDKS/StellarESDK-1.8.0/Modules/Drivers/System/GPIO/include\gpio.h **** 
 553:C:/StellarStudio-7.1/SDKS/StellarESDK-1.8.0/Modules/Drivers/System/GPIO/include\gpio.h **** /**
 554:C:/StellarStudio-7.1/SDKS/StellarESDK-1.8.0/Modules/Drivers/System/GPIO/include\gpio.h ****  * @brief   Sets Hysteresis pin value.
 555:C:/StellarStudio-7.1/SDKS/StellarESDK-1.8.0/Modules/Drivers/System/GPIO/include\gpio.h ****  * @note    Sets Hysteresis value of the pin related to the unique pin
 556:C:/StellarStudio-7.1/SDKS/StellarESDK-1.8.0/Modules/Drivers/System/GPIO/include\gpio.h ****  *          identifier.
 557:C:/StellarStudio-7.1/SDKS/StellarESDK-1.8.0/Modules/Drivers/System/GPIO/include\gpio.h ****  *
 558:C:/StellarStudio-7.1/SDKS/StellarESDK-1.8.0/Modules/Drivers/System/GPIO/include\gpio.h ****  * @param[in] io        unique pin identifier
 559:C:/StellarStudio-7.1/SDKS/StellarESDK-1.8.0/Modules/Drivers/System/GPIO/include\gpio.h ****  * @param[in] ihyst     pin hysteresis value; it can be one of the following
 560:C:/StellarStudio-7.1/SDKS/StellarESDK-1.8.0/Modules/Drivers/System/GPIO/include\gpio.h ****  *                      values:
 561:C:/StellarStudio-7.1/SDKS/StellarESDK-1.8.0/Modules/Drivers/System/GPIO/include\gpio.h ****  *            @arg @ref GPIO_IHYSTR_CMOS
 562:C:/StellarStudio-7.1/SDKS/StellarESDK-1.8.0/Modules/Drivers/System/GPIO/include\gpio.h ****  *            @arg @ref GPIO_IHYSTR_TTL
 563:C:/StellarStudio-7.1/SDKS/StellarESDK-1.8.0/Modules/Drivers/System/GPIO/include\gpio.h ****  *            @arg @ref GPIO_IHYSTR_AUTO
 564:C:/StellarStudio-7.1/SDKS/StellarESDK-1.8.0/Modules/Drivers/System/GPIO/include\gpio.h ****  *
 565:C:/StellarStudio-7.1/SDKS/StellarESDK-1.8.0/Modules/Drivers/System/GPIO/include\gpio.h ****  * @api
 566:C:/StellarStudio-7.1/SDKS/StellarESDK-1.8.0/Modules/Drivers/System/GPIO/include\gpio.h ****  */
 567:C:/StellarStudio-7.1/SDKS/StellarESDK-1.8.0/Modules/Drivers/System/GPIO/include\gpio.h **** __STATIC_INLINE void gpio_set_pin_ihystr(gpio_io_t io,
 568:C:/StellarStudio-7.1/SDKS/StellarESDK-1.8.0/Modules/Drivers/System/GPIO/include\gpio.h ****                                          gpio_ihyst_t ihyst) {
 569:C:/StellarStudio-7.1/SDKS/StellarESDK-1.8.0/Modules/Drivers/System/GPIO/include\gpio.h **** 
 570:C:/StellarStudio-7.1/SDKS/StellarESDK-1.8.0/Modules/Drivers/System/GPIO/include\gpio.h ****     gpio_port_t port = gpio_iounpack_port(io);
 571:C:/StellarStudio-7.1/SDKS/StellarESDK-1.8.0/Modules/Drivers/System/GPIO/include\gpio.h ****     gpio_pin_t pin   = gpio_iounpack_pin(io);
 572:C:/StellarStudio-7.1/SDKS/StellarESDK-1.8.0/Modules/Drivers/System/GPIO/include\gpio.h ****     GPIO_TypeDef *p  = gpio_dev_get_port_reg_ptr(port);
 573:C:/StellarStudio-7.1/SDKS/StellarESDK-1.8.0/Modules/Drivers/System/GPIO/include\gpio.h **** 
 574:C:/StellarStudio-7.1/SDKS/StellarESDK-1.8.0/Modules/Drivers/System/GPIO/include\gpio.h ****     if (p != NULL) {
 575:C:/StellarStudio-7.1/SDKS/StellarESDK-1.8.0/Modules/Drivers/System/GPIO/include\gpio.h ****         REG_SET_FIELD_POS(p->IHYSTR, 0x3U, (2 * pin), ihyst);
 576:C:/StellarStudio-7.1/SDKS/StellarESDK-1.8.0/Modules/Drivers/System/GPIO/include\gpio.h ****     }
 577:C:/StellarStudio-7.1/SDKS/StellarESDK-1.8.0/Modules/Drivers/System/GPIO/include\gpio.h **** }
 578:C:/StellarStudio-7.1/SDKS/StellarESDK-1.8.0/Modules/Drivers/System/GPIO/include\gpio.h **** 
 579:C:/StellarStudio-7.1/SDKS/StellarESDK-1.8.0/Modules/Drivers/System/GPIO/include\gpio.h **** /**
 580:C:/StellarStudio-7.1/SDKS/StellarESDK-1.8.0/Modules/Drivers/System/GPIO/include\gpio.h ****  * @brief   Sets Port Input Buffer Enable pin value.
 581:C:/StellarStudio-7.1/SDKS/StellarESDK-1.8.0/Modules/Drivers/System/GPIO/include\gpio.h ****  * @note    Sets Port Input Buffer Enable value of the pin related to the
 582:C:/StellarStudio-7.1/SDKS/StellarESDK-1.8.0/Modules/Drivers/System/GPIO/include\gpio.h ****  *          unique pin identifier.
 583:C:/StellarStudio-7.1/SDKS/StellarESDK-1.8.0/Modules/Drivers/System/GPIO/include\gpio.h ****  *
 584:C:/StellarStudio-7.1/SDKS/StellarESDK-1.8.0/Modules/Drivers/System/GPIO/include\gpio.h ****  * @param[in] io        unique pin identifier
 585:C:/StellarStudio-7.1/SDKS/StellarESDK-1.8.0/Modules/Drivers/System/GPIO/include\gpio.h ****  * @param[in] trigen    pin input buffer enable value; it can be one of the
 586:C:/StellarStudio-7.1/SDKS/StellarESDK-1.8.0/Modules/Drivers/System/GPIO/include\gpio.h ****  *                      following values:
 587:C:/StellarStudio-7.1/SDKS/StellarESDK-1.8.0/Modules/Drivers/System/GPIO/include\gpio.h ****  *            @arg @ref GPIO_TRIGENR_IN_DISABLED
 588:C:/StellarStudio-7.1/SDKS/StellarESDK-1.8.0/Modules/Drivers/System/GPIO/include\gpio.h ****  *            @arg @ref GPIO_TRIGENR_IN_ENABLED
 589:C:/StellarStudio-7.1/SDKS/StellarESDK-1.8.0/Modules/Drivers/System/GPIO/include\gpio.h ****  *
 590:C:/StellarStudio-7.1/SDKS/StellarESDK-1.8.0/Modules/Drivers/System/GPIO/include\gpio.h ****  * @api
 591:C:/StellarStudio-7.1/SDKS/StellarESDK-1.8.0/Modules/Drivers/System/GPIO/include\gpio.h ****  */
 592:C:/StellarStudio-7.1/SDKS/StellarESDK-1.8.0/Modules/Drivers/System/GPIO/include\gpio.h **** __STATIC_INLINE void gpio_set_pin_trigenr(gpio_io_t io,
 593:C:/StellarStudio-7.1/SDKS/StellarESDK-1.8.0/Modules/Drivers/System/GPIO/include\gpio.h ****                                           gpio_trigen_t trigen) {
 594:C:/StellarStudio-7.1/SDKS/StellarESDK-1.8.0/Modules/Drivers/System/GPIO/include\gpio.h **** 
 595:C:/StellarStudio-7.1/SDKS/StellarESDK-1.8.0/Modules/Drivers/System/GPIO/include\gpio.h ****     gpio_port_t port = gpio_iounpack_port(io);
 596:C:/StellarStudio-7.1/SDKS/StellarESDK-1.8.0/Modules/Drivers/System/GPIO/include\gpio.h ****     gpio_pin_t pin   = gpio_iounpack_pin(io);
 597:C:/StellarStudio-7.1/SDKS/StellarESDK-1.8.0/Modules/Drivers/System/GPIO/include\gpio.h ****     GPIO_TypeDef *p  = gpio_dev_get_port_reg_ptr(port);
 598:C:/StellarStudio-7.1/SDKS/StellarESDK-1.8.0/Modules/Drivers/System/GPIO/include\gpio.h **** 
 599:C:/StellarStudio-7.1/SDKS/StellarESDK-1.8.0/Modules/Drivers/System/GPIO/include\gpio.h ****     if (p != NULL) {
 600:C:/StellarStudio-7.1/SDKS/StellarESDK-1.8.0/Modules/Drivers/System/GPIO/include\gpio.h ****         REG_SET_FIELD_POS(p->TRIGENR, 0x1U, pin, trigen);
 601:C:/StellarStudio-7.1/SDKS/StellarESDK-1.8.0/Modules/Drivers/System/GPIO/include\gpio.h ****     }
 602:C:/StellarStudio-7.1/SDKS/StellarESDK-1.8.0/Modules/Drivers/System/GPIO/include\gpio.h **** }
 603:C:/StellarStudio-7.1/SDKS/StellarESDK-1.8.0/Modules/Drivers/System/GPIO/include\gpio.h **** 
 604:C:/StellarStudio-7.1/SDKS/StellarESDK-1.8.0/Modules/Drivers/System/GPIO/include\gpio.h **** /**
 605:C:/StellarStudio-7.1/SDKS/StellarESDK-1.8.0/Modules/Drivers/System/GPIO/include\gpio.h ****  * @brief   Sets Safe IO Selection pin value.
 606:C:/StellarStudio-7.1/SDKS/StellarESDK-1.8.0/Modules/Drivers/System/GPIO/include\gpio.h ****  * @note    Sets Safe IO Selection value of the pin related to the unique pin
 607:C:/StellarStudio-7.1/SDKS/StellarESDK-1.8.0/Modules/Drivers/System/GPIO/include\gpio.h ****  *          identifier.
 608:C:/StellarStudio-7.1/SDKS/StellarESDK-1.8.0/Modules/Drivers/System/GPIO/include\gpio.h ****  *
 609:C:/StellarStudio-7.1/SDKS/StellarESDK-1.8.0/Modules/Drivers/System/GPIO/include\gpio.h ****  * @param[in] io        unique pin identifier
 610:C:/StellarStudio-7.1/SDKS/StellarESDK-1.8.0/Modules/Drivers/System/GPIO/include\gpio.h ****  * @param[in] safesel   safe io selection value; it can be one of the following
 611:C:/StellarStudio-7.1/SDKS/StellarESDK-1.8.0/Modules/Drivers/System/GPIO/include\gpio.h ****  *                      values:
 612:C:/StellarStudio-7.1/SDKS/StellarESDK-1.8.0/Modules/Drivers/System/GPIO/include\gpio.h ****  *            @arg @ref GPIO_SAFESEL_DISABLED
 613:C:/StellarStudio-7.1/SDKS/StellarESDK-1.8.0/Modules/Drivers/System/GPIO/include\gpio.h ****  *            @arg @ref GPIO_SAFESEL_ENABLED
 614:C:/StellarStudio-7.1/SDKS/StellarESDK-1.8.0/Modules/Drivers/System/GPIO/include\gpio.h ****  *
 615:C:/StellarStudio-7.1/SDKS/StellarESDK-1.8.0/Modules/Drivers/System/GPIO/include\gpio.h ****  * @api
 616:C:/StellarStudio-7.1/SDKS/StellarESDK-1.8.0/Modules/Drivers/System/GPIO/include\gpio.h ****  */
 617:C:/StellarStudio-7.1/SDKS/StellarESDK-1.8.0/Modules/Drivers/System/GPIO/include\gpio.h **** __STATIC_INLINE void gpio_set_pin_safeselr(gpio_io_t io,
 618:C:/StellarStudio-7.1/SDKS/StellarESDK-1.8.0/Modules/Drivers/System/GPIO/include\gpio.h ****                                            gpio_safesel_t safesel) {
 619:C:/StellarStudio-7.1/SDKS/StellarESDK-1.8.0/Modules/Drivers/System/GPIO/include\gpio.h **** 
 620:C:/StellarStudio-7.1/SDKS/StellarESDK-1.8.0/Modules/Drivers/System/GPIO/include\gpio.h ****     gpio_port_t port = gpio_iounpack_port(io);
 621:C:/StellarStudio-7.1/SDKS/StellarESDK-1.8.0/Modules/Drivers/System/GPIO/include\gpio.h ****     gpio_pin_t pin   = gpio_iounpack_pin(io);
 622:C:/StellarStudio-7.1/SDKS/StellarESDK-1.8.0/Modules/Drivers/System/GPIO/include\gpio.h ****     GPIO_TypeDef *p  = gpio_dev_get_port_reg_ptr(port);
 623:C:/StellarStudio-7.1/SDKS/StellarESDK-1.8.0/Modules/Drivers/System/GPIO/include\gpio.h **** 
 624:C:/StellarStudio-7.1/SDKS/StellarESDK-1.8.0/Modules/Drivers/System/GPIO/include\gpio.h ****     if (p != NULL) {
 625:C:/StellarStudio-7.1/SDKS/StellarESDK-1.8.0/Modules/Drivers/System/GPIO/include\gpio.h ****         REG_SET_FIELD_POS(p->SAFESELR, 0x1U, pin, safesel);
 626:C:/StellarStudio-7.1/SDKS/StellarESDK-1.8.0/Modules/Drivers/System/GPIO/include\gpio.h ****     }
 627:C:/StellarStudio-7.1/SDKS/StellarESDK-1.8.0/Modules/Drivers/System/GPIO/include\gpio.h **** }
 628:C:/StellarStudio-7.1/SDKS/StellarESDK-1.8.0/Modules/Drivers/System/GPIO/include\gpio.h **** 
 629:C:/StellarStudio-7.1/SDKS/StellarESDK-1.8.0/Modules/Drivers/System/GPIO/include\gpio.h **** /**
 630:C:/StellarStudio-7.1/SDKS/StellarESDK-1.8.0/Modules/Drivers/System/GPIO/include\gpio.h ****  * @brief   Sets Safe IO Output pin value.
 631:C:/StellarStudio-7.1/SDKS/StellarESDK-1.8.0/Modules/Drivers/System/GPIO/include\gpio.h ****  * @note    Sets Safe IO Output value of the pin related to the unique pin
 632:C:/StellarStudio-7.1/SDKS/StellarESDK-1.8.0/Modules/Drivers/System/GPIO/include\gpio.h ****  *          identifier.
 633:C:/StellarStudio-7.1/SDKS/StellarESDK-1.8.0/Modules/Drivers/System/GPIO/include\gpio.h ****  *
 634:C:/StellarStudio-7.1/SDKS/StellarESDK-1.8.0/Modules/Drivers/System/GPIO/include\gpio.h ****  * @param[in] io        unique pin identifier
 635:C:/StellarStudio-7.1/SDKS/StellarESDK-1.8.0/Modules/Drivers/System/GPIO/include\gpio.h ****  * @param[in] safeval   safe io output value; it can be one of the following
 636:C:/StellarStudio-7.1/SDKS/StellarESDK-1.8.0/Modules/Drivers/System/GPIO/include\gpio.h ****  *                      values:
 637:C:/StellarStudio-7.1/SDKS/StellarESDK-1.8.0/Modules/Drivers/System/GPIO/include\gpio.h ****  *            @arg @ref GPIO_SAFEVAL_LOW
 638:C:/StellarStudio-7.1/SDKS/StellarESDK-1.8.0/Modules/Drivers/System/GPIO/include\gpio.h ****  *            @arg @ref GPIO_SAFEVAL_HIGH
 639:C:/StellarStudio-7.1/SDKS/StellarESDK-1.8.0/Modules/Drivers/System/GPIO/include\gpio.h ****  *
 640:C:/StellarStudio-7.1/SDKS/StellarESDK-1.8.0/Modules/Drivers/System/GPIO/include\gpio.h ****  * @api
 641:C:/StellarStudio-7.1/SDKS/StellarESDK-1.8.0/Modules/Drivers/System/GPIO/include\gpio.h ****  */
 642:C:/StellarStudio-7.1/SDKS/StellarESDK-1.8.0/Modules/Drivers/System/GPIO/include\gpio.h **** __STATIC_INLINE void gpio_set_pin_safevalr(gpio_io_t io,
 643:C:/StellarStudio-7.1/SDKS/StellarESDK-1.8.0/Modules/Drivers/System/GPIO/include\gpio.h ****                                            gpio_safeval_t safeval) {
 644:C:/StellarStudio-7.1/SDKS/StellarESDK-1.8.0/Modules/Drivers/System/GPIO/include\gpio.h **** 
 645:C:/StellarStudio-7.1/SDKS/StellarESDK-1.8.0/Modules/Drivers/System/GPIO/include\gpio.h ****     gpio_port_t port = gpio_iounpack_port(io);
 646:C:/StellarStudio-7.1/SDKS/StellarESDK-1.8.0/Modules/Drivers/System/GPIO/include\gpio.h ****     gpio_pin_t pin   = gpio_iounpack_pin(io);
 647:C:/StellarStudio-7.1/SDKS/StellarESDK-1.8.0/Modules/Drivers/System/GPIO/include\gpio.h ****     GPIO_TypeDef *p  = gpio_dev_get_port_reg_ptr(port);
 648:C:/StellarStudio-7.1/SDKS/StellarESDK-1.8.0/Modules/Drivers/System/GPIO/include\gpio.h **** 
 649:C:/StellarStudio-7.1/SDKS/StellarESDK-1.8.0/Modules/Drivers/System/GPIO/include\gpio.h ****     if (p != NULL) {
 650:C:/StellarStudio-7.1/SDKS/StellarESDK-1.8.0/Modules/Drivers/System/GPIO/include\gpio.h ****         REG_SET_FIELD_POS(p->SAFEVALR, 0x1U, pin, safeval);
 651:C:/StellarStudio-7.1/SDKS/StellarESDK-1.8.0/Modules/Drivers/System/GPIO/include\gpio.h ****     }
 652:C:/StellarStudio-7.1/SDKS/StellarESDK-1.8.0/Modules/Drivers/System/GPIO/include\gpio.h **** }
 653:C:/StellarStudio-7.1/SDKS/StellarESDK-1.8.0/Modules/Drivers/System/GPIO/include\gpio.h **** 
 654:C:/StellarStudio-7.1/SDKS/StellarESDK-1.8.0/Modules/Drivers/System/GPIO/include\gpio.h **** /**
 655:C:/StellarStudio-7.1/SDKS/StellarESDK-1.8.0/Modules/Drivers/System/GPIO/include\gpio.h ****  * @brief   Configures pin mode
 656:C:/StellarStudio-7.1/SDKS/StellarESDK-1.8.0/Modules/Drivers/System/GPIO/include\gpio.h ****  * @note    Congigures properties of the pin related to the unique pin
 657:C:/StellarStudio-7.1/SDKS/StellarESDK-1.8.0/Modules/Drivers/System/GPIO/include\gpio.h ****  *          identifier.
 658:C:/StellarStudio-7.1/SDKS/StellarESDK-1.8.0/Modules/Drivers/System/GPIO/include\gpio.h ****  *
 659:C:/StellarStudio-7.1/SDKS/StellarESDK-1.8.0/Modules/Drivers/System/GPIO/include\gpio.h ****  * @param[in] io        unique pin identifier
 660:C:/StellarStudio-7.1/SDKS/StellarESDK-1.8.0/Modules/Drivers/System/GPIO/include\gpio.h ****  * @param[in] mode      pin configuration
 661:C:/StellarStudio-7.1/SDKS/StellarESDK-1.8.0/Modules/Drivers/System/GPIO/include\gpio.h ****  *
 662:C:/StellarStudio-7.1/SDKS/StellarESDK-1.8.0/Modules/Drivers/System/GPIO/include\gpio.h ****  * @api
 663:C:/StellarStudio-7.1/SDKS/StellarESDK-1.8.0/Modules/Drivers/System/GPIO/include\gpio.h ****  */
 664:C:/StellarStudio-7.1/SDKS/StellarESDK-1.8.0/Modules/Drivers/System/GPIO/include\gpio.h **** __STATIC_INLINE void gpio_set_pin_mode(gpio_io_t io,
 665:C:/StellarStudio-7.1/SDKS/StellarESDK-1.8.0/Modules/Drivers/System/GPIO/include\gpio.h ****                                        uint32_t mode) {
 666:C:/StellarStudio-7.1/SDKS/StellarESDK-1.8.0/Modules/Drivers/System/GPIO/include\gpio.h **** 
 667:C:/StellarStudio-7.1/SDKS/StellarESDK-1.8.0/Modules/Drivers/System/GPIO/include\gpio.h ****     gpio_set_pin_otyper  (io, (gpio_otype_t)((mode & GPIO_MODE_OTYPER_MASK) >> GPIO_MODE_OTYPER_POS
 668:C:/StellarStudio-7.1/SDKS/StellarESDK-1.8.0/Modules/Drivers/System/GPIO/include\gpio.h ****     gpio_set_pin_ospeedr (io, (gpio_ospeed_t)((mode & GPIO_MODE_OSPEEDR_MASK) >> GPIO_MODE_OSPEEDR_
 669:C:/StellarStudio-7.1/SDKS/StellarESDK-1.8.0/Modules/Drivers/System/GPIO/include\gpio.h ****     gpio_set_pin_pupdr   (io, (gpio_pupd_t)((mode & GPIO_MODE_PUPDR_MASK) >> GPIO_MODE_PUPDR_POS));
 670:C:/StellarStudio-7.1/SDKS/StellarESDK-1.8.0/Modules/Drivers/System/GPIO/include\gpio.h ****     gpio_set_pin_afr     (io, (gpio_af_t)((mode & GPIO_MODE_AFR_MASK) >> GPIO_MODE_AFR_POS));
 671:C:/StellarStudio-7.1/SDKS/StellarESDK-1.8.0/Modules/Drivers/System/GPIO/include\gpio.h ****     gpio_set_pin_ihystr  (io, (gpio_ihyst_t)((mode & GPIO_MODE_IHYSTR_MASK) >> GPIO_MODE_IHYSTR_POS
 672:C:/StellarStudio-7.1/SDKS/StellarESDK-1.8.0/Modules/Drivers/System/GPIO/include\gpio.h ****     gpio_set_pin_trigenr (io, (gpio_trigen_t)((mode & GPIO_MODE_TRIGENR_MASK) >> GPIO_MODE_TRIGENR_
 673:C:/StellarStudio-7.1/SDKS/StellarESDK-1.8.0/Modules/Drivers/System/GPIO/include\gpio.h ****     gpio_set_pin_safeselr(io, (gpio_safesel_t)((mode & GPIO_MODE_SAFESELR_MASK) >> GPIO_MODE_SAFESE
 674:C:/StellarStudio-7.1/SDKS/StellarESDK-1.8.0/Modules/Drivers/System/GPIO/include\gpio.h ****     gpio_set_pin_safevalr(io, (gpio_safeval_t)((mode & GPIO_MODE_SAFEVALR_MASK) >> GPIO_MODE_SAFEVA
 675:C:/StellarStudio-7.1/SDKS/StellarESDK-1.8.0/Modules/Drivers/System/GPIO/include\gpio.h ****     gpio_set_pin_moder   (io, (gpio_mode_t)((mode & GPIO_MODE_MODER_MASK) >> GPIO_MODE_MODER_POS));
 676:C:/StellarStudio-7.1/SDKS/StellarESDK-1.8.0/Modules/Drivers/System/GPIO/include\gpio.h **** }
 677:C:/StellarStudio-7.1/SDKS/StellarESDK-1.8.0/Modules/Drivers/System/GPIO/include\gpio.h **** 
 678:C:/StellarStudio-7.1/SDKS/StellarESDK-1.8.0/Modules/Drivers/System/GPIO/include\gpio.h **** /**
 679:C:/StellarStudio-7.1/SDKS/StellarESDK-1.8.0/Modules/Drivers/System/GPIO/include\gpio.h ****  * @brief   Reads Port input data.
 680:C:/StellarStudio-7.1/SDKS/StellarESDK-1.8.0/Modules/Drivers/System/GPIO/include\gpio.h ****  *
 681:C:/StellarStudio-7.1/SDKS/StellarESDK-1.8.0/Modules/Drivers/System/GPIO/include\gpio.h ****  * @param[in] io        unique pin identifier
 682:C:/StellarStudio-7.1/SDKS/StellarESDK-1.8.0/Modules/Drivers/System/GPIO/include\gpio.h ****  * @return              port input data
 683:C:/StellarStudio-7.1/SDKS/StellarESDK-1.8.0/Modules/Drivers/System/GPIO/include\gpio.h ****  *
 684:C:/StellarStudio-7.1/SDKS/StellarESDK-1.8.0/Modules/Drivers/System/GPIO/include\gpio.h ****  * @api
 685:C:/StellarStudio-7.1/SDKS/StellarESDK-1.8.0/Modules/Drivers/System/GPIO/include\gpio.h ****  */
 686:C:/StellarStudio-7.1/SDKS/StellarESDK-1.8.0/Modules/Drivers/System/GPIO/include\gpio.h **** __STATIC_INLINE uint32_t gpio_read_port(gpio_io_t io) {
 687:C:/StellarStudio-7.1/SDKS/StellarESDK-1.8.0/Modules/Drivers/System/GPIO/include\gpio.h **** 
 688:C:/StellarStudio-7.1/SDKS/StellarESDK-1.8.0/Modules/Drivers/System/GPIO/include\gpio.h ****     gpio_port_t port = gpio_iounpack_port(io);
 689:C:/StellarStudio-7.1/SDKS/StellarESDK-1.8.0/Modules/Drivers/System/GPIO/include\gpio.h ****     GPIO_TypeDef *p  = gpio_dev_get_port_reg_ptr(port);
 690:C:/StellarStudio-7.1/SDKS/StellarESDK-1.8.0/Modules/Drivers/System/GPIO/include\gpio.h **** 
 691:C:/StellarStudio-7.1/SDKS/StellarESDK-1.8.0/Modules/Drivers/System/GPIO/include\gpio.h ****     if (p != NULL) {
 692:C:/StellarStudio-7.1/SDKS/StellarESDK-1.8.0/Modules/Drivers/System/GPIO/include\gpio.h ****         return p->IDR;
 693:C:/StellarStudio-7.1/SDKS/StellarESDK-1.8.0/Modules/Drivers/System/GPIO/include\gpio.h ****     } else {
 694:C:/StellarStudio-7.1/SDKS/StellarESDK-1.8.0/Modules/Drivers/System/GPIO/include\gpio.h ****         return 0UL;
 695:C:/StellarStudio-7.1/SDKS/StellarESDK-1.8.0/Modules/Drivers/System/GPIO/include\gpio.h ****     }
 696:C:/StellarStudio-7.1/SDKS/StellarESDK-1.8.0/Modules/Drivers/System/GPIO/include\gpio.h **** }
 697:C:/StellarStudio-7.1/SDKS/StellarESDK-1.8.0/Modules/Drivers/System/GPIO/include\gpio.h **** 
 698:C:/StellarStudio-7.1/SDKS/StellarESDK-1.8.0/Modules/Drivers/System/GPIO/include\gpio.h **** /**
 699:C:/StellarStudio-7.1/SDKS/StellarESDK-1.8.0/Modules/Drivers/System/GPIO/include\gpio.h ****  * @brief   Reads Port output data.
 700:C:/StellarStudio-7.1/SDKS/StellarESDK-1.8.0/Modules/Drivers/System/GPIO/include\gpio.h ****  *
 701:C:/StellarStudio-7.1/SDKS/StellarESDK-1.8.0/Modules/Drivers/System/GPIO/include\gpio.h ****  * @param[in] io        unique pin identifier
 702:C:/StellarStudio-7.1/SDKS/StellarESDK-1.8.0/Modules/Drivers/System/GPIO/include\gpio.h ****  * @return              port output data
 703:C:/StellarStudio-7.1/SDKS/StellarESDK-1.8.0/Modules/Drivers/System/GPIO/include\gpio.h ****  *
 704:C:/StellarStudio-7.1/SDKS/StellarESDK-1.8.0/Modules/Drivers/System/GPIO/include\gpio.h ****  * @api
 705:C:/StellarStudio-7.1/SDKS/StellarESDK-1.8.0/Modules/Drivers/System/GPIO/include\gpio.h ****  */
 706:C:/StellarStudio-7.1/SDKS/StellarESDK-1.8.0/Modules/Drivers/System/GPIO/include\gpio.h **** __STATIC_INLINE uint32_t gpio_read_port_latch(gpio_io_t io) {
 707:C:/StellarStudio-7.1/SDKS/StellarESDK-1.8.0/Modules/Drivers/System/GPIO/include\gpio.h **** 
 708:C:/StellarStudio-7.1/SDKS/StellarESDK-1.8.0/Modules/Drivers/System/GPIO/include\gpio.h ****     gpio_port_t port = gpio_iounpack_port(io);
 709:C:/StellarStudio-7.1/SDKS/StellarESDK-1.8.0/Modules/Drivers/System/GPIO/include\gpio.h ****     GPIO_TypeDef *p  = gpio_dev_get_port_reg_ptr(port);
 710:C:/StellarStudio-7.1/SDKS/StellarESDK-1.8.0/Modules/Drivers/System/GPIO/include\gpio.h **** 
 711:C:/StellarStudio-7.1/SDKS/StellarESDK-1.8.0/Modules/Drivers/System/GPIO/include\gpio.h ****     if (p != NULL) {
 712:C:/StellarStudio-7.1/SDKS/StellarESDK-1.8.0/Modules/Drivers/System/GPIO/include\gpio.h ****         return p->ODR;
 713:C:/StellarStudio-7.1/SDKS/StellarESDK-1.8.0/Modules/Drivers/System/GPIO/include\gpio.h ****     } else {
 714:C:/StellarStudio-7.1/SDKS/StellarESDK-1.8.0/Modules/Drivers/System/GPIO/include\gpio.h ****         return 0UL;
 715:C:/StellarStudio-7.1/SDKS/StellarESDK-1.8.0/Modules/Drivers/System/GPIO/include\gpio.h ****     }
 716:C:/StellarStudio-7.1/SDKS/StellarESDK-1.8.0/Modules/Drivers/System/GPIO/include\gpio.h **** }
 717:C:/StellarStudio-7.1/SDKS/StellarESDK-1.8.0/Modules/Drivers/System/GPIO/include\gpio.h **** 
 718:C:/StellarStudio-7.1/SDKS/StellarESDK-1.8.0/Modules/Drivers/System/GPIO/include\gpio.h **** /**
 719:C:/StellarStudio-7.1/SDKS/StellarESDK-1.8.0/Modules/Drivers/System/GPIO/include\gpio.h ****  * @brief   Writes Port ouput data.
 720:C:/StellarStudio-7.1/SDKS/StellarESDK-1.8.0/Modules/Drivers/System/GPIO/include\gpio.h ****  *
 721:C:/StellarStudio-7.1/SDKS/StellarESDK-1.8.0/Modules/Drivers/System/GPIO/include\gpio.h ****  * @param[in] io        unique pin identifier
 722:C:/StellarStudio-7.1/SDKS/StellarESDK-1.8.0/Modules/Drivers/System/GPIO/include\gpio.h ****  * @param[in] value     output data to write
 723:C:/StellarStudio-7.1/SDKS/StellarESDK-1.8.0/Modules/Drivers/System/GPIO/include\gpio.h ****  *
 724:C:/StellarStudio-7.1/SDKS/StellarESDK-1.8.0/Modules/Drivers/System/GPIO/include\gpio.h ****  * @api
 725:C:/StellarStudio-7.1/SDKS/StellarESDK-1.8.0/Modules/Drivers/System/GPIO/include\gpio.h ****  */
 726:C:/StellarStudio-7.1/SDKS/StellarESDK-1.8.0/Modules/Drivers/System/GPIO/include\gpio.h **** __STATIC_INLINE void gpio_write_port(gpio_io_t io,
 727:C:/StellarStudio-7.1/SDKS/StellarESDK-1.8.0/Modules/Drivers/System/GPIO/include\gpio.h ****                                      uint32_t value) {
 728:C:/StellarStudio-7.1/SDKS/StellarESDK-1.8.0/Modules/Drivers/System/GPIO/include\gpio.h **** 
 729:C:/StellarStudio-7.1/SDKS/StellarESDK-1.8.0/Modules/Drivers/System/GPIO/include\gpio.h ****     gpio_port_t port = gpio_iounpack_port(io);
 730:C:/StellarStudio-7.1/SDKS/StellarESDK-1.8.0/Modules/Drivers/System/GPIO/include\gpio.h ****     GPIO_TypeDef *p  = gpio_dev_get_port_reg_ptr(port);
 731:C:/StellarStudio-7.1/SDKS/StellarESDK-1.8.0/Modules/Drivers/System/GPIO/include\gpio.h **** 
 732:C:/StellarStudio-7.1/SDKS/StellarESDK-1.8.0/Modules/Drivers/System/GPIO/include\gpio.h ****     if (p != NULL) {
 733:C:/StellarStudio-7.1/SDKS/StellarESDK-1.8.0/Modules/Drivers/System/GPIO/include\gpio.h ****         p->ODR = value;
 734:C:/StellarStudio-7.1/SDKS/StellarESDK-1.8.0/Modules/Drivers/System/GPIO/include\gpio.h ****     }
 735:C:/StellarStudio-7.1/SDKS/StellarESDK-1.8.0/Modules/Drivers/System/GPIO/include\gpio.h **** }
 736:C:/StellarStudio-7.1/SDKS/StellarESDK-1.8.0/Modules/Drivers/System/GPIO/include\gpio.h **** 
 737:C:/StellarStudio-7.1/SDKS/StellarESDK-1.8.0/Modules/Drivers/System/GPIO/include\gpio.h **** /**
 738:C:/StellarStudio-7.1/SDKS/StellarESDK-1.8.0/Modules/Drivers/System/GPIO/include\gpio.h ****  * @brief   Sets Port value.
 739:C:/StellarStudio-7.1/SDKS/StellarESDK-1.8.0/Modules/Drivers/System/GPIO/include\gpio.h ****  *
 740:C:/StellarStudio-7.1/SDKS/StellarESDK-1.8.0/Modules/Drivers/System/GPIO/include\gpio.h ****  * @param[in] io        unique pin identifier
 741:C:/StellarStudio-7.1/SDKS/StellarESDK-1.8.0/Modules/Drivers/System/GPIO/include\gpio.h ****  * @param[in] value     value to be set
 742:C:/StellarStudio-7.1/SDKS/StellarESDK-1.8.0/Modules/Drivers/System/GPIO/include\gpio.h ****  *
 743:C:/StellarStudio-7.1/SDKS/StellarESDK-1.8.0/Modules/Drivers/System/GPIO/include\gpio.h ****  * @api
 744:C:/StellarStudio-7.1/SDKS/StellarESDK-1.8.0/Modules/Drivers/System/GPIO/include\gpio.h ****  */
 745:C:/StellarStudio-7.1/SDKS/StellarESDK-1.8.0/Modules/Drivers/System/GPIO/include\gpio.h **** __STATIC_INLINE void gpio_set_port(gpio_io_t io,
 746:C:/StellarStudio-7.1/SDKS/StellarESDK-1.8.0/Modules/Drivers/System/GPIO/include\gpio.h ****                                    uint32_t value) {
 747:C:/StellarStudio-7.1/SDKS/StellarESDK-1.8.0/Modules/Drivers/System/GPIO/include\gpio.h **** 
 748:C:/StellarStudio-7.1/SDKS/StellarESDK-1.8.0/Modules/Drivers/System/GPIO/include\gpio.h ****     gpio_port_t port = gpio_iounpack_port(io);
 749:C:/StellarStudio-7.1/SDKS/StellarESDK-1.8.0/Modules/Drivers/System/GPIO/include\gpio.h ****     GPIO_TypeDef *p  = gpio_dev_get_port_reg_ptr(port);
 750:C:/StellarStudio-7.1/SDKS/StellarESDK-1.8.0/Modules/Drivers/System/GPIO/include\gpio.h **** 
 751:C:/StellarStudio-7.1/SDKS/StellarESDK-1.8.0/Modules/Drivers/System/GPIO/include\gpio.h ****     if (p != NULL) {
 752:C:/StellarStudio-7.1/SDKS/StellarESDK-1.8.0/Modules/Drivers/System/GPIO/include\gpio.h ****         p->BSRR = value;
 753:C:/StellarStudio-7.1/SDKS/StellarESDK-1.8.0/Modules/Drivers/System/GPIO/include\gpio.h ****     }
 754:C:/StellarStudio-7.1/SDKS/StellarESDK-1.8.0/Modules/Drivers/System/GPIO/include\gpio.h **** }
 755:C:/StellarStudio-7.1/SDKS/StellarESDK-1.8.0/Modules/Drivers/System/GPIO/include\gpio.h **** 
 756:C:/StellarStudio-7.1/SDKS/StellarESDK-1.8.0/Modules/Drivers/System/GPIO/include\gpio.h **** /**
 757:C:/StellarStudio-7.1/SDKS/StellarESDK-1.8.0/Modules/Drivers/System/GPIO/include\gpio.h ****  * @brief   Resets Port value.
 758:C:/StellarStudio-7.1/SDKS/StellarESDK-1.8.0/Modules/Drivers/System/GPIO/include\gpio.h ****  *
 759:C:/StellarStudio-7.1/SDKS/StellarESDK-1.8.0/Modules/Drivers/System/GPIO/include\gpio.h ****  * @param[in] io        unique pin identifier
 760:C:/StellarStudio-7.1/SDKS/StellarESDK-1.8.0/Modules/Drivers/System/GPIO/include\gpio.h ****  * @param[in] value     reset value
 761:C:/StellarStudio-7.1/SDKS/StellarESDK-1.8.0/Modules/Drivers/System/GPIO/include\gpio.h ****  *
 762:C:/StellarStudio-7.1/SDKS/StellarESDK-1.8.0/Modules/Drivers/System/GPIO/include\gpio.h ****  * @api
 763:C:/StellarStudio-7.1/SDKS/StellarESDK-1.8.0/Modules/Drivers/System/GPIO/include\gpio.h ****  */
 764:C:/StellarStudio-7.1/SDKS/StellarESDK-1.8.0/Modules/Drivers/System/GPIO/include\gpio.h **** __STATIC_INLINE void gpio_clear_port(gpio_io_t io,
 765:C:/StellarStudio-7.1/SDKS/StellarESDK-1.8.0/Modules/Drivers/System/GPIO/include\gpio.h ****                                      uint32_t value) {
 766:C:/StellarStudio-7.1/SDKS/StellarESDK-1.8.0/Modules/Drivers/System/GPIO/include\gpio.h **** 
 767:C:/StellarStudio-7.1/SDKS/StellarESDK-1.8.0/Modules/Drivers/System/GPIO/include\gpio.h ****     gpio_port_t port = gpio_iounpack_port(io);
 768:C:/StellarStudio-7.1/SDKS/StellarESDK-1.8.0/Modules/Drivers/System/GPIO/include\gpio.h ****     GPIO_TypeDef *p  = gpio_dev_get_port_reg_ptr(port);
 769:C:/StellarStudio-7.1/SDKS/StellarESDK-1.8.0/Modules/Drivers/System/GPIO/include\gpio.h **** 
 770:C:/StellarStudio-7.1/SDKS/StellarESDK-1.8.0/Modules/Drivers/System/GPIO/include\gpio.h ****     if (p != NULL) {
 771:C:/StellarStudio-7.1/SDKS/StellarESDK-1.8.0/Modules/Drivers/System/GPIO/include\gpio.h ****         p->BSRR = (value << 16U);
 772:C:/StellarStudio-7.1/SDKS/StellarESDK-1.8.0/Modules/Drivers/System/GPIO/include\gpio.h ****     }
 773:C:/StellarStudio-7.1/SDKS/StellarESDK-1.8.0/Modules/Drivers/System/GPIO/include\gpio.h **** }
 774:C:/StellarStudio-7.1/SDKS/StellarESDK-1.8.0/Modules/Drivers/System/GPIO/include\gpio.h **** 
 775:C:/StellarStudio-7.1/SDKS/StellarESDK-1.8.0/Modules/Drivers/System/GPIO/include\gpio.h **** /**
 776:C:/StellarStudio-7.1/SDKS/StellarESDK-1.8.0/Modules/Drivers/System/GPIO/include\gpio.h ****  * @brief   Reads Pin input data.
 777:C:/StellarStudio-7.1/SDKS/StellarESDK-1.8.0/Modules/Drivers/System/GPIO/include\gpio.h ****  *
 778:C:/StellarStudio-7.1/SDKS/StellarESDK-1.8.0/Modules/Drivers/System/GPIO/include\gpio.h ****  * @param[in] io        unique pin identifier
 779:C:/StellarStudio-7.1/SDKS/StellarESDK-1.8.0/Modules/Drivers/System/GPIO/include\gpio.h ****  * @return              pin input data
 780:C:/StellarStudio-7.1/SDKS/StellarESDK-1.8.0/Modules/Drivers/System/GPIO/include\gpio.h ****  *
 781:C:/StellarStudio-7.1/SDKS/StellarESDK-1.8.0/Modules/Drivers/System/GPIO/include\gpio.h ****  * @api
 782:C:/StellarStudio-7.1/SDKS/StellarESDK-1.8.0/Modules/Drivers/System/GPIO/include\gpio.h ****  */
 783:C:/StellarStudio-7.1/SDKS/StellarESDK-1.8.0/Modules/Drivers/System/GPIO/include\gpio.h **** __STATIC_INLINE uint32_t gpio_read_pin(gpio_io_t io) {
  28              		.loc 1 783 54
  29              		.cfi_startproc
  30              		@ args = 0, pretend = 0, frame = 16
  31              		@ frame_needed = 0, uses_anonymous_args = 0
  32 0000 00B5     		push	{lr}
  33              		.cfi_def_cfa_offset 4
  34              		.cfi_offset 14, -4
  35 0002 85B0     		sub	sp, sp, #20
  36              		.cfi_def_cfa_offset 24
  37 0004 0346     		mov	r3, r0
  38 0006 ADF80630 		strh	r3, [sp, #6]	@ movhi
 784:C:/StellarStudio-7.1/SDKS/StellarESDK-1.8.0/Modules/Drivers/System/GPIO/include\gpio.h **** 
 785:C:/StellarStudio-7.1/SDKS/StellarESDK-1.8.0/Modules/Drivers/System/GPIO/include\gpio.h ****     gpio_port_t port = gpio_iounpack_port(io);
  39              		.loc 1 785 24
  40 000a BDF80630 		ldrh	r3, [sp, #6]
  41 000e 1B09     		lsrs	r3, r3, #4
  42 0010 9BB2     		uxth	r3, r3
  43              		.loc 1 785 17
  44 0012 8DF80F30 		strb	r3, [sp, #15]
 786:C:/StellarStudio-7.1/SDKS/StellarESDK-1.8.0/Modules/Drivers/System/GPIO/include\gpio.h ****     gpio_pin_t pin   = gpio_iounpack_pin(io);
  45              		.loc 1 786 24
  46 0016 BDF80630 		ldrh	r3, [sp, #6]	@ movhi
  47 001a DBB2     		uxtb	r3, r3
  48              		.loc 1 786 16
  49 001c 03F00F03 		and	r3, r3, #15
  50 0020 8DF80E30 		strb	r3, [sp, #14]
 787:C:/StellarStudio-7.1/SDKS/StellarESDK-1.8.0/Modules/Drivers/System/GPIO/include\gpio.h ****     GPIO_TypeDef *p  = gpio_dev_get_port_reg_ptr(port);
  51              		.loc 1 787 24
  52 0024 9DF80F30 		ldrb	r3, [sp, #15]	@ zero_extendqisi2
  53 0028 1846     		mov	r0, r3
  54 002a FFF7FEFF 		bl	gpio_dev_get_port_reg_ptr
  55 002e 0290     		str	r0, [sp, #8]
 788:C:/StellarStudio-7.1/SDKS/StellarESDK-1.8.0/Modules/Drivers/System/GPIO/include\gpio.h **** 
 789:C:/StellarStudio-7.1/SDKS/StellarESDK-1.8.0/Modules/Drivers/System/GPIO/include\gpio.h ****     if (p != NULL) {
  56              		.loc 1 789 8
  57 0030 029B     		ldr	r3, [sp, #8]
  58 0032 002B     		cmp	r3, #0
  59 0034 0DD0     		beq	.L2
 790:C:/StellarStudio-7.1/SDKS/StellarESDK-1.8.0/Modules/Drivers/System/GPIO/include\gpio.h ****         return (p->IDR & (1U << pin)) != 0U;
  60              		.loc 1 790 18
  61 0036 029B     		ldr	r3, [sp, #8]
  62 0038 1A69     		ldr	r2, [r3, #16]
  63              		.loc 1 790 30
  64 003a 9DF80E30 		ldrb	r3, [sp, #14]	@ zero_extendqisi2
  65 003e 0121     		movs	r1, #1
  66 0040 01FA03F3 		lsl	r3, r1, r3
  67              		.loc 1 790 24
  68 0044 1340     		ands	r3, r3, r2
  69              		.loc 1 790 39
  70 0046 002B     		cmp	r3, #0
  71 0048 14BF     		ite	ne
  72 004a 0123     		movne	r3, #1
  73 004c 0023     		moveq	r3, #0
  74 004e DBB2     		uxtb	r3, r3
  75 0050 00E0     		b	.L3
  76              	.L2:
 791:C:/StellarStudio-7.1/SDKS/StellarESDK-1.8.0/Modules/Drivers/System/GPIO/include\gpio.h ****     } else {
 792:C:/StellarStudio-7.1/SDKS/StellarESDK-1.8.0/Modules/Drivers/System/GPIO/include\gpio.h ****         return 0UL;
  77              		.loc 1 792 16
  78 0052 0023     		movs	r3, #0
  79              	.L3:
 793:C:/StellarStudio-7.1/SDKS/StellarESDK-1.8.0/Modules/Drivers/System/GPIO/include\gpio.h ****     }
 794:C:/StellarStudio-7.1/SDKS/StellarESDK-1.8.0/Modules/Drivers/System/GPIO/include\gpio.h **** }
  80              		.loc 1 794 1
  81 0054 1846     		mov	r0, r3
  82 0056 05B0     		add	sp, sp, #20
  83              		.cfi_def_cfa_offset 4
  84              		@ sp needed
  85 0058 5DF804FB 		ldr	pc, [sp], #4
  86              		.cfi_endproc
  87              	.LFE452:
  89              		.section	.text.gpio_set_pin,"ax",%progbits
  90              		.align	1
  91              		.p2align 4,,15
  92              		.syntax unified
  93              		.thumb
  94              		.thumb_func
  96              	gpio_set_pin:
  97              	.LFB455:
 795:C:/StellarStudio-7.1/SDKS/StellarESDK-1.8.0/Modules/Drivers/System/GPIO/include\gpio.h **** 
 796:C:/StellarStudio-7.1/SDKS/StellarESDK-1.8.0/Modules/Drivers/System/GPIO/include\gpio.h **** /**
 797:C:/StellarStudio-7.1/SDKS/StellarESDK-1.8.0/Modules/Drivers/System/GPIO/include\gpio.h ****  * @brief   Reads Pin output data.
 798:C:/StellarStudio-7.1/SDKS/StellarESDK-1.8.0/Modules/Drivers/System/GPIO/include\gpio.h ****  *
 799:C:/StellarStudio-7.1/SDKS/StellarESDK-1.8.0/Modules/Drivers/System/GPIO/include\gpio.h ****  * @param[in] io        unique pin identifier
 800:C:/StellarStudio-7.1/SDKS/StellarESDK-1.8.0/Modules/Drivers/System/GPIO/include\gpio.h ****  * @return              pin output data
 801:C:/StellarStudio-7.1/SDKS/StellarESDK-1.8.0/Modules/Drivers/System/GPIO/include\gpio.h ****  *
 802:C:/StellarStudio-7.1/SDKS/StellarESDK-1.8.0/Modules/Drivers/System/GPIO/include\gpio.h ****  * @api
 803:C:/StellarStudio-7.1/SDKS/StellarESDK-1.8.0/Modules/Drivers/System/GPIO/include\gpio.h ****  */
 804:C:/StellarStudio-7.1/SDKS/StellarESDK-1.8.0/Modules/Drivers/System/GPIO/include\gpio.h **** __STATIC_INLINE uint32_t gpio_read_pin_latch(gpio_io_t io) {
 805:C:/StellarStudio-7.1/SDKS/StellarESDK-1.8.0/Modules/Drivers/System/GPIO/include\gpio.h **** 
 806:C:/StellarStudio-7.1/SDKS/StellarESDK-1.8.0/Modules/Drivers/System/GPIO/include\gpio.h ****     gpio_port_t port = gpio_iounpack_port(io);
 807:C:/StellarStudio-7.1/SDKS/StellarESDK-1.8.0/Modules/Drivers/System/GPIO/include\gpio.h ****     gpio_pin_t pin   = gpio_iounpack_pin(io);
 808:C:/StellarStudio-7.1/SDKS/StellarESDK-1.8.0/Modules/Drivers/System/GPIO/include\gpio.h ****     GPIO_TypeDef *p  = gpio_dev_get_port_reg_ptr(port);
 809:C:/StellarStudio-7.1/SDKS/StellarESDK-1.8.0/Modules/Drivers/System/GPIO/include\gpio.h **** 
 810:C:/StellarStudio-7.1/SDKS/StellarESDK-1.8.0/Modules/Drivers/System/GPIO/include\gpio.h ****     if (p != NULL) {
 811:C:/StellarStudio-7.1/SDKS/StellarESDK-1.8.0/Modules/Drivers/System/GPIO/include\gpio.h ****         return (p->ODR & (1U << pin)) != 0U;
 812:C:/StellarStudio-7.1/SDKS/StellarESDK-1.8.0/Modules/Drivers/System/GPIO/include\gpio.h ****     } else {
 813:C:/StellarStudio-7.1/SDKS/StellarESDK-1.8.0/Modules/Drivers/System/GPIO/include\gpio.h ****         return 0UL;
 814:C:/StellarStudio-7.1/SDKS/StellarESDK-1.8.0/Modules/Drivers/System/GPIO/include\gpio.h ****     }
 815:C:/StellarStudio-7.1/SDKS/StellarESDK-1.8.0/Modules/Drivers/System/GPIO/include\gpio.h **** }
 816:C:/StellarStudio-7.1/SDKS/StellarESDK-1.8.0/Modules/Drivers/System/GPIO/include\gpio.h **** 
 817:C:/StellarStudio-7.1/SDKS/StellarESDK-1.8.0/Modules/Drivers/System/GPIO/include\gpio.h **** /**
 818:C:/StellarStudio-7.1/SDKS/StellarESDK-1.8.0/Modules/Drivers/System/GPIO/include\gpio.h ****  * @brief   Writes Pin ouput data.
 819:C:/StellarStudio-7.1/SDKS/StellarESDK-1.8.0/Modules/Drivers/System/GPIO/include\gpio.h ****  *
 820:C:/StellarStudio-7.1/SDKS/StellarESDK-1.8.0/Modules/Drivers/System/GPIO/include\gpio.h ****  * @param[in] io        unique pin identifier
 821:C:/StellarStudio-7.1/SDKS/StellarESDK-1.8.0/Modules/Drivers/System/GPIO/include\gpio.h ****  * @param[in] bit       output data to write
 822:C:/StellarStudio-7.1/SDKS/StellarESDK-1.8.0/Modules/Drivers/System/GPIO/include\gpio.h ****  *
 823:C:/StellarStudio-7.1/SDKS/StellarESDK-1.8.0/Modules/Drivers/System/GPIO/include\gpio.h ****  * @api
 824:C:/StellarStudio-7.1/SDKS/StellarESDK-1.8.0/Modules/Drivers/System/GPIO/include\gpio.h ****  */
 825:C:/StellarStudio-7.1/SDKS/StellarESDK-1.8.0/Modules/Drivers/System/GPIO/include\gpio.h **** __STATIC_INLINE void gpio_write_pin(gpio_io_t io, uint32_t bit) {
 826:C:/StellarStudio-7.1/SDKS/StellarESDK-1.8.0/Modules/Drivers/System/GPIO/include\gpio.h **** 
 827:C:/StellarStudio-7.1/SDKS/StellarESDK-1.8.0/Modules/Drivers/System/GPIO/include\gpio.h ****     gpio_port_t port = gpio_iounpack_port(io);
 828:C:/StellarStudio-7.1/SDKS/StellarESDK-1.8.0/Modules/Drivers/System/GPIO/include\gpio.h ****     gpio_pin_t pin   = gpio_iounpack_pin(io);
 829:C:/StellarStudio-7.1/SDKS/StellarESDK-1.8.0/Modules/Drivers/System/GPIO/include\gpio.h ****     GPIO_TypeDef *p  = gpio_dev_get_port_reg_ptr(port);
 830:C:/StellarStudio-7.1/SDKS/StellarESDK-1.8.0/Modules/Drivers/System/GPIO/include\gpio.h **** 
 831:C:/StellarStudio-7.1/SDKS/StellarESDK-1.8.0/Modules/Drivers/System/GPIO/include\gpio.h ****     if (p != NULL) {
 832:C:/StellarStudio-7.1/SDKS/StellarESDK-1.8.0/Modules/Drivers/System/GPIO/include\gpio.h ****         if (bit != 0U) {
 833:C:/StellarStudio-7.1/SDKS/StellarESDK-1.8.0/Modules/Drivers/System/GPIO/include\gpio.h ****             p->BSRR = (uint32_t)(1U << pin);
 834:C:/StellarStudio-7.1/SDKS/StellarESDK-1.8.0/Modules/Drivers/System/GPIO/include\gpio.h ****         }
 835:C:/StellarStudio-7.1/SDKS/StellarESDK-1.8.0/Modules/Drivers/System/GPIO/include\gpio.h ****         else {
 836:C:/StellarStudio-7.1/SDKS/StellarESDK-1.8.0/Modules/Drivers/System/GPIO/include\gpio.h ****             p->BSRR = (uint32_t)(0x10000U << pin);
 837:C:/StellarStudio-7.1/SDKS/StellarESDK-1.8.0/Modules/Drivers/System/GPIO/include\gpio.h ****         }
 838:C:/StellarStudio-7.1/SDKS/StellarESDK-1.8.0/Modules/Drivers/System/GPIO/include\gpio.h ****     }
 839:C:/StellarStudio-7.1/SDKS/StellarESDK-1.8.0/Modules/Drivers/System/GPIO/include\gpio.h **** }
 840:C:/StellarStudio-7.1/SDKS/StellarESDK-1.8.0/Modules/Drivers/System/GPIO/include\gpio.h **** 
 841:C:/StellarStudio-7.1/SDKS/StellarESDK-1.8.0/Modules/Drivers/System/GPIO/include\gpio.h **** /**
 842:C:/StellarStudio-7.1/SDKS/StellarESDK-1.8.0/Modules/Drivers/System/GPIO/include\gpio.h ****  * @brief   Sets Pin value.
 843:C:/StellarStudio-7.1/SDKS/StellarESDK-1.8.0/Modules/Drivers/System/GPIO/include\gpio.h ****  *
 844:C:/StellarStudio-7.1/SDKS/StellarESDK-1.8.0/Modules/Drivers/System/GPIO/include\gpio.h ****  * @param[in] io        unique pin identifier
 845:C:/StellarStudio-7.1/SDKS/StellarESDK-1.8.0/Modules/Drivers/System/GPIO/include\gpio.h ****  *
 846:C:/StellarStudio-7.1/SDKS/StellarESDK-1.8.0/Modules/Drivers/System/GPIO/include\gpio.h ****  * @api
 847:C:/StellarStudio-7.1/SDKS/StellarESDK-1.8.0/Modules/Drivers/System/GPIO/include\gpio.h ****  */
 848:C:/StellarStudio-7.1/SDKS/StellarESDK-1.8.0/Modules/Drivers/System/GPIO/include\gpio.h **** __STATIC_INLINE void gpio_set_pin(gpio_io_t io) {
  98              		.loc 1 848 49
  99              		.cfi_startproc
 100              		@ args = 0, pretend = 0, frame = 16
 101              		@ frame_needed = 0, uses_anonymous_args = 0
 102 0000 00B5     		push	{lr}
 103              		.cfi_def_cfa_offset 4
 104              		.cfi_offset 14, -4
 105 0002 85B0     		sub	sp, sp, #20
 106              		.cfi_def_cfa_offset 24
 107 0004 0346     		mov	r3, r0
 108 0006 ADF80630 		strh	r3, [sp, #6]	@ movhi
 849:C:/StellarStudio-7.1/SDKS/StellarESDK-1.8.0/Modules/Drivers/System/GPIO/include\gpio.h **** 
 850:C:/StellarStudio-7.1/SDKS/StellarESDK-1.8.0/Modules/Drivers/System/GPIO/include\gpio.h ****     gpio_port_t port = gpio_iounpack_port(io);
 109              		.loc 1 850 24
 110 000a BDF80630 		ldrh	r3, [sp, #6]
 111 000e 1B09     		lsrs	r3, r3, #4
 112 0010 9BB2     		uxth	r3, r3
 113              		.loc 1 850 17
 114 0012 8DF80F30 		strb	r3, [sp, #15]
 851:C:/StellarStudio-7.1/SDKS/StellarESDK-1.8.0/Modules/Drivers/System/GPIO/include\gpio.h ****     gpio_pin_t pin   = gpio_iounpack_pin(io);
 115              		.loc 1 851 24
 116 0016 BDF80630 		ldrh	r3, [sp, #6]	@ movhi
 117 001a DBB2     		uxtb	r3, r3
 118              		.loc 1 851 16
 119 001c 03F00F03 		and	r3, r3, #15
 120 0020 8DF80E30 		strb	r3, [sp, #14]
 852:C:/StellarStudio-7.1/SDKS/StellarESDK-1.8.0/Modules/Drivers/System/GPIO/include\gpio.h ****     GPIO_TypeDef *p  = gpio_dev_get_port_reg_ptr(port);
 121              		.loc 1 852 24
 122 0024 9DF80F30 		ldrb	r3, [sp, #15]	@ zero_extendqisi2
 123 0028 1846     		mov	r0, r3
 124 002a FFF7FEFF 		bl	gpio_dev_get_port_reg_ptr
 125 002e 0290     		str	r0, [sp, #8]
 853:C:/StellarStudio-7.1/SDKS/StellarESDK-1.8.0/Modules/Drivers/System/GPIO/include\gpio.h **** 
 854:C:/StellarStudio-7.1/SDKS/StellarESDK-1.8.0/Modules/Drivers/System/GPIO/include\gpio.h ****     if (p != NULL) {
 126              		.loc 1 854 8
 127 0030 029B     		ldr	r3, [sp, #8]
 128 0032 002B     		cmp	r3, #0
 129 0034 05D0     		beq	.L6
 855:C:/StellarStudio-7.1/SDKS/StellarESDK-1.8.0/Modules/Drivers/System/GPIO/include\gpio.h ****         p->BSRR = (uint32_t)(1U << pin);
 130              		.loc 1 855 19
 131 0036 9DF80E30 		ldrb	r3, [sp, #14]	@ zero_extendqisi2
 132              		.loc 1 855 33
 133 003a 0122     		movs	r2, #1
 134 003c 9A40     		lsls	r2, r2, r3
 135              		.loc 1 855 17
 136 003e 029B     		ldr	r3, [sp, #8]
 137 0040 9A61     		str	r2, [r3, #24]
 138              	.L6:
 856:C:/StellarStudio-7.1/SDKS/StellarESDK-1.8.0/Modules/Drivers/System/GPIO/include\gpio.h ****     }
 857:C:/StellarStudio-7.1/SDKS/StellarESDK-1.8.0/Modules/Drivers/System/GPIO/include\gpio.h **** }
 139              		.loc 1 857 1
 140 0042 00BF     		nop
 141 0044 05B0     		add	sp, sp, #20
 142              		.cfi_def_cfa_offset 4
 143              		@ sp needed
 144 0046 5DF804FB 		ldr	pc, [sp], #4
 145              		.cfi_endproc
 146              	.LFE455:
 148 004a 00BF     		.section	.text.gpio_clear_pin,"ax",%progbits
 149              		.align	1
 150              		.p2align 4,,15
 151              		.syntax unified
 152              		.thumb
 153              		.thumb_func
 155              	gpio_clear_pin:
 156              	.LFB456:
 858:C:/StellarStudio-7.1/SDKS/StellarESDK-1.8.0/Modules/Drivers/System/GPIO/include\gpio.h **** 
 859:C:/StellarStudio-7.1/SDKS/StellarESDK-1.8.0/Modules/Drivers/System/GPIO/include\gpio.h **** /**
 860:C:/StellarStudio-7.1/SDKS/StellarESDK-1.8.0/Modules/Drivers/System/GPIO/include\gpio.h ****  * @brief   Resets Pin value.
 861:C:/StellarStudio-7.1/SDKS/StellarESDK-1.8.0/Modules/Drivers/System/GPIO/include\gpio.h ****  *
 862:C:/StellarStudio-7.1/SDKS/StellarESDK-1.8.0/Modules/Drivers/System/GPIO/include\gpio.h ****  * @param[in] io        unique pin identifier
 863:C:/StellarStudio-7.1/SDKS/StellarESDK-1.8.0/Modules/Drivers/System/GPIO/include\gpio.h ****  *
 864:C:/StellarStudio-7.1/SDKS/StellarESDK-1.8.0/Modules/Drivers/System/GPIO/include\gpio.h ****  * @api
 865:C:/StellarStudio-7.1/SDKS/StellarESDK-1.8.0/Modules/Drivers/System/GPIO/include\gpio.h ****  */
 866:C:/StellarStudio-7.1/SDKS/StellarESDK-1.8.0/Modules/Drivers/System/GPIO/include\gpio.h **** __STATIC_INLINE void gpio_clear_pin(gpio_io_t io) {
 157              		.loc 1 866 51
 158              		.cfi_startproc
 159              		@ args = 0, pretend = 0, frame = 16
 160              		@ frame_needed = 0, uses_anonymous_args = 0
 161 0000 00B5     		push	{lr}
 162              		.cfi_def_cfa_offset 4
 163              		.cfi_offset 14, -4
 164 0002 85B0     		sub	sp, sp, #20
 165              		.cfi_def_cfa_offset 24
 166 0004 0346     		mov	r3, r0
 167 0006 ADF80630 		strh	r3, [sp, #6]	@ movhi
 867:C:/StellarStudio-7.1/SDKS/StellarESDK-1.8.0/Modules/Drivers/System/GPIO/include\gpio.h **** 
 868:C:/StellarStudio-7.1/SDKS/StellarESDK-1.8.0/Modules/Drivers/System/GPIO/include\gpio.h ****     gpio_port_t port = gpio_iounpack_port(io);
 168              		.loc 1 868 24
 169 000a BDF80630 		ldrh	r3, [sp, #6]
 170 000e 1B09     		lsrs	r3, r3, #4
 171 0010 9BB2     		uxth	r3, r3
 172              		.loc 1 868 17
 173 0012 8DF80F30 		strb	r3, [sp, #15]
 869:C:/StellarStudio-7.1/SDKS/StellarESDK-1.8.0/Modules/Drivers/System/GPIO/include\gpio.h ****     gpio_pin_t pin   = gpio_iounpack_pin(io);
 174              		.loc 1 869 24
 175 0016 BDF80630 		ldrh	r3, [sp, #6]	@ movhi
 176 001a DBB2     		uxtb	r3, r3
 177              		.loc 1 869 16
 178 001c 03F00F03 		and	r3, r3, #15
 179 0020 8DF80E30 		strb	r3, [sp, #14]
 870:C:/StellarStudio-7.1/SDKS/StellarESDK-1.8.0/Modules/Drivers/System/GPIO/include\gpio.h ****     GPIO_TypeDef *p  = gpio_dev_get_port_reg_ptr(port);
 180              		.loc 1 870 24
 181 0024 9DF80F30 		ldrb	r3, [sp, #15]	@ zero_extendqisi2
 182 0028 1846     		mov	r0, r3
 183 002a FFF7FEFF 		bl	gpio_dev_get_port_reg_ptr
 184 002e 0290     		str	r0, [sp, #8]
 871:C:/StellarStudio-7.1/SDKS/StellarESDK-1.8.0/Modules/Drivers/System/GPIO/include\gpio.h **** 
 872:C:/StellarStudio-7.1/SDKS/StellarESDK-1.8.0/Modules/Drivers/System/GPIO/include\gpio.h ****     if (p != NULL) {
 185              		.loc 1 872 8
 186 0030 029B     		ldr	r3, [sp, #8]
 187 0032 002B     		cmp	r3, #0
 188 0034 06D0     		beq	.L9
 873:C:/StellarStudio-7.1/SDKS/StellarESDK-1.8.0/Modules/Drivers/System/GPIO/include\gpio.h ****         p->BSRR = (uint32_t)(0x10000U << pin);
 189              		.loc 1 873 19
 190 0036 9DF80E30 		ldrb	r3, [sp, #14]	@ zero_extendqisi2
 191              		.loc 1 873 39
 192 003a 4FF48032 		mov	r2, #65536
 193 003e 9A40     		lsls	r2, r2, r3
 194              		.loc 1 873 17
 195 0040 029B     		ldr	r3, [sp, #8]
 196 0042 9A61     		str	r2, [r3, #24]
 197              	.L9:
 874:C:/StellarStudio-7.1/SDKS/StellarESDK-1.8.0/Modules/Drivers/System/GPIO/include\gpio.h ****     }
 875:C:/StellarStudio-7.1/SDKS/StellarESDK-1.8.0/Modules/Drivers/System/GPIO/include\gpio.h **** }
 198              		.loc 1 875 1
 199 0044 00BF     		nop
 200 0046 05B0     		add	sp, sp, #20
 201              		.cfi_def_cfa_offset 4
 202              		@ sp needed
 203 0048 5DF804FB 		ldr	pc, [sp], #4
 204              		.cfi_endproc
 205              	.LFE456:
 207              		.global	p_pin_in
 208              		.section	.bss.p_pin_in,"aw",%nobits
 209              		.align	2
 212              	p_pin_in:
 213 0000 00000000 		.space	4
 214              		.global	pin_mask
 215              		.section	.bss.pin_mask,"aw",%nobits
 216              		.align	2
 219              	pin_mask:
 220 0000 00000000 		.space	4
 221              		.global	p_pin_clk
 222              		.section	.bss.p_pin_clk,"aw",%nobits
 223              		.align	2
 226              	p_pin_clk:
 227 0000 00000000 		.space	4
 228              		.global	pin_mask_clk
 229              		.section	.bss.pin_mask_clk,"aw",%nobits
 230              		.align	2
 233              	pin_mask_clk:
 234 0000 00000000 		.space	4
 235              		.section	.text.Clock_Test,"ax",%progbits
 236              		.align	1
 237              		.p2align 4,,15
 238              		.global	Clock_Test
 239              		.syntax unified
 240              		.thumb
 241              		.thumb_func
 243              	Clock_Test:
 244              	.LFB470:
 245              		.file 2 "src/main.c"
   1:src/main.c    **** /****************************************************************************
   2:src/main.c    **** *
   3:src/main.c    **** * Copyright (c) 2024 STMicroelectronics - All Rights Reserved
   4:src/main.c    **** *
   5:src/main.c    **** * License terms: STMicroelectronics Proprietary in accordance with licensing
   6:src/main.c    **** * terms SLA0098 at www.st.com.
   7:src/main.c    **** *
   8:src/main.c    **** * THIS SOFTWARE IS DISTRIBUTED "AS IS," AND ALL WARRANTIES ARE DISCLAIMED,
   9:src/main.c    **** * INCLUDING MERCHANTABILITY AND FITNESS FOR A PARTICULAR PURPOSE.
  10:src/main.c    **** *
  11:src/main.c    **** * EVALUATION ONLY - NOT FOR USE IN PRODUCTION
  12:src/main.c    **** *****************************************************************************/
  13:src/main.c    **** 
  14:src/main.c    **** #include <test_env.h>
  15:src/main.c    **** #include <uart_cfg.h>
  16:src/main.c    **** 
  17:src/main.c    **** 
  18:src/main.c    **** //HRTIM1_B2 = 86
  19:src/main.c    **** //HRTIM1_B1 = 87
  20:src/main.c    **** //HRTIM1_A2 = 88
  21:src/main.c    **** //HRTIM1_A1 = 89
  22:src/main.c    **** 
  23:src/main.c    **** //pin_gpio_4_1 = 86
  24:src/main.c    **** //pin_gpio_4_2 = 87
  25:src/main.c    **** //pin_gpio_4_3 = 88
  26:src/main.c    **** //pin_gpio_4_4 = 89
  27:src/main.c    **** 
  28:src/main.c    **** 
  29:src/main.c    **** #define CLK_ON  gpio_set_pin(PIN_GPIO4_1)
  30:src/main.c    **** #define CLK_OFF gpio_clear_pin(PIN_GPIO4_1)
  31:src/main.c    **** 
  32:src/main.c    **** #define D_OUT_ON  gpio_set_pin(PIN_GPIO4_2)
  33:src/main.c    **** #define D_OUT_OFF gpio_clear_pin(PIN_GPIO4_2)
  34:src/main.c    **** 
  35:src/main.c    **** #define DE_ON  gpio_set_pin(PIN_GPIO4_3)
  36:src/main.c    **** #define DE_OFF gpio_clear_pin(PIN_GPIO4_3)
  37:src/main.c    **** 
  38:src/main.c    **** #define DIN PIN_GPIO4_4
  39:src/main.c    **** 
  40:src/main.c    **** /*
  41:src/main.c    **** const uint8_t MODE_RESET = 0b101010;
  42:src/main.c    **** const uint8_t MODE_MRS   = 0b001110;
  43:src/main.c    **** const uint8_t MODE_RECEIVE_TEST = 0b110001;
  44:src/main.c    **** */
  45:src/main.c    **** 
  46:src/main.c    **** GPIO_TypeDef *p_pin_in;
  47:src/main.c    **** uint32_t pin_mask;
  48:src/main.c    **** 
  49:src/main.c    **** 
  50:src/main.c    **** GPIO_TypeDef *p_pin_clk;
  51:src/main.c    **** uint32_t pin_mask_clk;
  52:src/main.c    **** 
  53:src/main.c    **** 
  54:src/main.c    **** void EnDat_Command(unsigned long ec_data_out, unsigned char ec_data_in_clk,
  55:src/main.c    ****         unsigned long long *ec_pos, unsigned char *ec_status,
  56:src/main.c    **** 							unsigned char ec_mode_type);
  57:src/main.c    **** 
  58:src/main.c    **** void EnDat_Mode_Command (unsigned int emc_mode, unsigned int emc_adr, unsigned int *emc_data, unsig
  59:src/main.c    **** 
  60:src/main.c    **** void Clock_Test() {
 246              		.loc 2 60 19
 247              		.cfi_startproc
 248              		@ args = 0, pretend = 0, frame = 0
 249              		@ frame_needed = 0, uses_anonymous_args = 0
 250 0000 08B5     		push	{r3, lr}
 251              		.cfi_def_cfa_offset 8
 252              		.cfi_offset 3, -8
 253              		.cfi_offset 14, -4
  61:src/main.c    **** 	CLK_ON;
 254              		.loc 2 61 2
 255 0002 4120     		movs	r0, #65
 256 0004 FFF7FEFF 		bl	gpio_set_pin
  62:src/main.c    **** 	CLK_OFF;
 257              		.loc 2 62 2
 258 0008 4120     		movs	r0, #65
 259 000a FFF7FEFF 		bl	gpio_clear_pin
  63:src/main.c    **** 	CLK_ON;
 260              		.loc 2 63 2
 261 000e 4120     		movs	r0, #65
 262 0010 FFF7FEFF 		bl	gpio_set_pin
  64:src/main.c    **** 	CLK_OFF;
 263              		.loc 2 64 2
 264 0014 4120     		movs	r0, #65
 265 0016 FFF7FEFF 		bl	gpio_clear_pin
  65:src/main.c    **** 	CLK_ON;
 266              		.loc 2 65 2
 267 001a 4120     		movs	r0, #65
 268 001c FFF7FEFF 		bl	gpio_set_pin
  66:src/main.c    **** 	CLK_OFF;
 269              		.loc 2 66 2
 270 0020 4120     		movs	r0, #65
 271 0022 FFF7FEFF 		bl	gpio_clear_pin
  67:src/main.c    **** }
 272              		.loc 2 67 1
 273 0026 00BF     		nop
 274 0028 08BD     		pop	{r3, pc}
 275              		.cfi_endproc
 276              	.LFE470:
 278 002a 00BF     		.section	.text.EnDat_Mode_Command,"ax",%progbits
 279              		.align	1
 280              		.p2align 4,,15
 281              		.global	EnDat_Mode_Command
 282              		.syntax unified
 283              		.thumb
 284              		.thumb_func
 286              	EnDat_Mode_Command:
 287              	.LFB471:
  68:src/main.c    **** 
  69:src/main.c    **** void EnDat_Mode_Command (unsigned int emc_mode, unsigned int emc_adr, unsigned int *emc_data, unsig
  70:src/main.c    **** {
 288              		.loc 2 70 1
 289              		.cfi_startproc
 290              		@ args = 0, pretend = 0, frame = 48
 291              		@ frame_needed = 0, uses_anonymous_args = 0
 292 0000 00B5     		push	{lr}
 293              		.cfi_def_cfa_offset 4
 294              		.cfi_offset 14, -4
 295 0002 8FB0     		sub	sp, sp, #60
 296              		.cfi_def_cfa_offset 64
 297 0004 0590     		str	r0, [sp, #20]
 298 0006 0491     		str	r1, [sp, #16]
 299 0008 0392     		str	r2, [sp, #12]
 300 000a 0293     		str	r3, [sp, #8]
  71:src/main.c    ****   unsigned long data_out;		// 32-bit value containing the bitstream that is sent to the encoder
  72:src/main.c    ****   unsigned long long pos;		// 64-bit variable for positon / address + data
  73:src/main.c    ****   unsigned int stored_adr;		// store address for F-Type II calculation
  74:src/main.c    ****   int i;						// auxiliary variable
  75:src/main.c    ****   unsigned int ec_adr = 0;		// needed to sort address
 301              		.loc 2 75 16
 302 000c 0023     		movs	r3, #0
 303 000e 0C93     		str	r3, [sp, #48]
  76:src/main.c    ****   unsigned int ec_data = 0;		// needed to sort data
 304              		.loc 2 76 16
 305 0010 0023     		movs	r3, #0
 306 0012 0B93     		str	r3, [sp, #44]
  77:src/main.c    **** 
  78:src/main.c    ****   // store address for later F-Type II calculation
  79:src/main.c    ****   stored_adr = emc_adr;
 307              		.loc 2 79 14
 308 0014 049B     		ldr	r3, [sp, #16]
 309 0016 0A93     		str	r3, [sp, #40]
  80:src/main.c    ****   // these mode commands have a 30bit datastream that is sent to the encoder:
  81:src/main.c    ****   // 6bit mode command + 8bit address + 16bit data
  82:src/main.c    ****   // to make sending routine easier the bitstream is sorted accordingly
  83:src/main.c    **** 
  84:src/main.c    ****   // reverse data direction of address
  85:src/main.c    ****   for (i=0; i < 8; i++)
 310              		.loc 2 85 9
 311 0018 0023     		movs	r3, #0
 312 001a 0D93     		str	r3, [sp, #52]
 313              		.loc 2 85 3
 314 001c 0EE0     		b	.L12
 315              	.L13:
  86:src/main.c    ****    {
  87:src/main.c    ****      ec_adr <<= 1;
 316              		.loc 2 87 13 discriminator 3
 317 001e 0C9B     		ldr	r3, [sp, #48]
 318 0020 5B00     		lsls	r3, r3, #1
 319 0022 0C93     		str	r3, [sp, #48]
  88:src/main.c    ****      ec_adr += ((emc_adr & 1));
 320              		.loc 2 88 26 discriminator 3
 321 0024 049B     		ldr	r3, [sp, #16]
 322 0026 03F00103 		and	r3, r3, #1
 323              		.loc 2 88 13 discriminator 3
 324 002a 0C9A     		ldr	r2, [sp, #48]
 325 002c 1344     		add	r3, r3, r2
 326 002e 0C93     		str	r3, [sp, #48]
  89:src/main.c    ****      emc_adr >>= 1;
 327              		.loc 2 89 14 discriminator 3
 328 0030 049B     		ldr	r3, [sp, #16]
 329 0032 5B08     		lsrs	r3, r3, #1
 330 0034 0493     		str	r3, [sp, #16]
  85:src/main.c    ****    {
 331              		.loc 2 85 21 discriminator 3
 332 0036 0D9B     		ldr	r3, [sp, #52]
 333 0038 0133     		adds	r3, r3, #1
 334 003a 0D93     		str	r3, [sp, #52]
 335              	.L12:
  85:src/main.c    ****    {
 336              		.loc 2 85 3 discriminator 1
 337 003c 0D9B     		ldr	r3, [sp, #52]
 338 003e 072B     		cmp	r3, #7
 339 0040 EDDD     		ble	.L13
  90:src/main.c    ****    };
  91:src/main.c    ****   // reverse data direction of data
  92:src/main.c    ****   for (i=0; i < 16; i++)
 340              		.loc 2 92 9
 341 0042 0023     		movs	r3, #0
 342 0044 0D93     		str	r3, [sp, #52]
 343              		.loc 2 92 3
 344 0046 11E0     		b	.L14
 345              	.L15:
  93:src/main.c    ****    {
  94:src/main.c    ****     ec_data <<= 1;
 346              		.loc 2 94 13 discriminator 3
 347 0048 0B9B     		ldr	r3, [sp, #44]
 348 004a 5B00     		lsls	r3, r3, #1
 349 004c 0B93     		str	r3, [sp, #44]
  95:src/main.c    ****     ec_data += ((*emc_data & 1));
 350              		.loc 2 95 18 discriminator 3
 351 004e 039B     		ldr	r3, [sp, #12]
 352 0050 1B68     		ldr	r3, [r3]
 353              		.loc 2 95 28 discriminator 3
 354 0052 03F00103 		and	r3, r3, #1
 355              		.loc 2 95 13 discriminator 3
 356 0056 0B9A     		ldr	r2, [sp, #44]
 357 0058 1344     		add	r3, r3, r2
 358 005a 0B93     		str	r3, [sp, #44]
  96:src/main.c    ****      *emc_data >>= 1;
 359              		.loc 2 96 16 discriminator 3
 360 005c 039B     		ldr	r3, [sp, #12]
 361 005e 1B68     		ldr	r3, [r3]
 362 0060 5A08     		lsrs	r2, r3, #1
 363 0062 039B     		ldr	r3, [sp, #12]
 364 0064 1A60     		str	r2, [r3]
  92:src/main.c    ****    {
 365              		.loc 2 92 22 discriminator 3
 366 0066 0D9B     		ldr	r3, [sp, #52]
 367 0068 0133     		adds	r3, r3, #1
 368 006a 0D93     		str	r3, [sp, #52]
 369              	.L14:
  92:src/main.c    ****    {
 370              		.loc 2 92 3 discriminator 1
 371 006c 0D9B     		ldr	r3, [sp, #52]
 372 006e 0F2B     		cmp	r3, #15
 373 0070 EADD     		ble	.L15
  97:src/main.c    ****    };
  98:src/main.c    ****    // and connect all data to a bitstream that can be sent accordingly to
  99:src/main.c    ****    // EnDat definition by sending starting with LSB
 100:src/main.c    ****   data_out = emc_mode + ((long)ec_adr<<6) + ((long)ec_data<<14);
 374              		.loc 2 100 26
 375 0072 0C9B     		ldr	r3, [sp, #48]
 376              		.loc 2 100 38
 377 0074 9B01     		lsls	r3, r3, #6
 378 0076 1A46     		mov	r2, r3
 379              		.loc 2 100 23
 380 0078 059B     		ldr	r3, [sp, #20]
 381 007a 1344     		add	r3, r3, r2
 382              		.loc 2 100 46
 383 007c 0B9A     		ldr	r2, [sp, #44]
 384              		.loc 2 100 59
 385 007e 9203     		lsls	r2, r2, #14
 386              		.loc 2 100 12
 387 0080 1344     		add	r3, r3, r2
 388 0082 0993     		str	r3, [sp, #36]
 101:src/main.c    **** 
 102:src/main.c    ****   // Send EnDat mode command; 24 bit are read in from encoder: 8 bit address + 16 bit data
 103:src/main.c    ****   EnDat_Command (data_out, 24, &pos, emc_status, 1);
 389              		.loc 2 103 3
 390 0084 06AA     		add	r2, sp, #24
 391 0086 0123     		movs	r3, #1
 392 0088 0093     		str	r3, [sp]
 393 008a 029B     		ldr	r3, [sp, #8]
 394 008c 1821     		movs	r1, #24
 395 008e 0998     		ldr	r0, [sp, #36]
 396 0090 FFF7FEFF 		bl	EnDat_Command
 104:src/main.c    **** 
 105:src/main.c    ****   /*emc_adr = (pos & 0xFF);		// address is lower 8 bit of pos
 106:src/main.c    ****   *emc_data = (pos & 0xFFFF0000) >> 16; // data is mid 16 bit of pos
 107:src/main.c    **** */
 108:src/main.c    **** 
 109:src/main.c    ****   emc_adr = (pos & 0xFF0000);
 397              		.loc 2 109 18
 398 0094 DDE90623 		ldrd	r2, [sp, #24]
 399 0098 1346     		mov	r3, r2
 400              		.loc 2 109 11
 401 009a 03F47F03 		and	r3, r3, #16711680
 402 009e 0493     		str	r3, [sp, #16]
 110:src/main.c    ****   *emc_data = (pos & 0xFFFF);
 403              		.loc 2 110 20
 404 00a0 DDE90623 		ldrd	r2, [sp, #24]
 405 00a4 1346     		mov	r3, r2
 406 00a6 9AB2     		uxth	r2, r3
 407              		.loc 2 110 13
 408 00a8 039B     		ldr	r3, [sp, #12]
 409 00aa 1A60     		str	r2, [r3]
 111:src/main.c    ****   // and check for F-tpye 2: sent and received address differ --> set bit 2
 112:src/main.c    ****   if (stored_adr != emc_adr)
 410              		.loc 2 112 6
 411 00ac 0A9A     		ldr	r2, [sp, #40]
 412 00ae 049B     		ldr	r3, [sp, #16]
 413 00b0 9A42     		cmp	r2, r3
 414 00b2 05D0     		beq	.L17
 113:src/main.c    ****     *emc_status += 4;
 415              		.loc 2 113 17
 416 00b4 029B     		ldr	r3, [sp, #8]
 417 00b6 1B78     		ldrb	r3, [r3]	@ zero_extendqisi2
 418 00b8 0433     		adds	r3, r3, #4
 419 00ba DAB2     		uxtb	r2, r3
 420 00bc 029B     		ldr	r3, [sp, #8]
 421 00be 1A70     		strb	r2, [r3]
 422              	.L17:
 114:src/main.c    **** };
 423              		.loc 2 114 1
 424 00c0 00BF     		nop
 425 00c2 0FB0     		add	sp, sp, #60
 426              		.cfi_def_cfa_offset 4
 427              		@ sp needed
 428 00c4 5DF804FB 		ldr	pc, [sp], #4
 429              		.cfi_endproc
 430              	.LFE471:
 432              		.section	.rodata
 433              		.align	2
 434              	.LC1:
 435 0000 000000   		.ascii	"\000\000\000"
 436 0003 00       		.align	2
 437              	.LC0:
 438 0004 01000000 		.word	1
 439 0008 01000000 		.word	1
 440 000c 01000000 		.word	1
 441 0010 01000000 		.word	1
 442 0014 01000000 		.word	1
 443              		.section	.text.EnDat_Command,"ax",%progbits
 444              		.align	1
 445              		.p2align 4,,15
 446              		.global	EnDat_Command
 447              		.syntax unified
 448              		.thumb
 449              		.thumb_func
 451              	EnDat_Command:
 452              	.LFB472:
 115:src/main.c    **** 
 116:src/main.c    **** 
 117:src/main.c    **** void EnDat_Command(unsigned long ec_data_out, unsigned char ec_data_in_clk,
 118:src/main.c    ****         unsigned long long *ec_pos, unsigned char *ec_status,
 119:src/main.c    **** 							unsigned char ec_mode_type) {
 453              		.loc 2 119 36
 454              		.cfi_startproc
 455              		@ args = 4, pretend = 0, frame = 112
 456              		@ frame_needed = 0, uses_anonymous_args = 0
 457 0000 2DE9F043 		push	{r4, r5, r6, r7, r8, r9, lr}
 458              		.cfi_def_cfa_offset 28
 459              		.cfi_offset 4, -28
 460              		.cfi_offset 5, -24
 461              		.cfi_offset 6, -20
 462              		.cfi_offset 7, -16
 463              		.cfi_offset 8, -12
 464              		.cfi_offset 9, -8
 465              		.cfi_offset 14, -4
 466 0004 9DB0     		sub	sp, sp, #116
 467              		.cfi_def_cfa_offset 144
 468 0006 0390     		str	r0, [sp, #12]
 469 0008 0192     		str	r2, [sp, #4]
 470 000a 0093     		str	r3, [sp]
 471 000c 0B46     		mov	r3, r1
 472 000e 8DF80B30 		strb	r3, [sp, #11]
 120:src/main.c    **** 
 121:src/main.c    **** 	unsigned char n_cnt[3] = {0,0,0};	    // number of clocks to send
 473              		.loc 2 121 16
 474 0012 984A     		ldr	r2, .L47
 475 0014 10AB     		add	r3, sp, #64
 476 0016 1268     		ldr	r2, [r2]
 477 0018 1146     		mov	r1, r2	@ movhi
 478 001a 1980     		strh	r1, [r3]	@ movhi
 479 001c 0233     		adds	r3, r3, #2
 480 001e 120C     		lsrs	r2, r2, #16
 481 0020 1A70     		strb	r2, [r3]
 122:src/main.c    **** 	unsigned int data_in[3] = {0,0,0};	    // position is max. 48-bit --> 3x16bit variable
 482              		.loc 2 122 15
 483 0022 0023     		movs	r3, #0
 484 0024 0D93     		str	r3, [sp, #52]
 485 0026 0023     		movs	r3, #0
 486 0028 0E93     		str	r3, [sp, #56]
 487 002a 0023     		movs	r3, #0
 488 002c 0F93     		str	r3, [sp, #60]
 123:src/main.c    **** 	unsigned int data_in_copy[3] = {0,0,0};
 489              		.loc 2 123 15
 490 002e 0023     		movs	r3, #0
 491 0030 0A93     		str	r3, [sp, #40]
 492 0032 0023     		movs	r3, #0
 493 0034 0B93     		str	r3, [sp, #44]
 494 0036 0023     		movs	r3, #0
 495 0038 0C93     		str	r3, [sp, #48]
 124:src/main.c    **** 	int i,a;                                    // auxiliary varibles
 125:src/main.c    **** 	unsigned int  Data_Out_Clk = 6;             // number of clocks to send; default for position comm
 496              		.loc 2 125 16
 497 003a 0623     		movs	r3, #6
 498 003c 1A93     		str	r3, [sp, #104]
 126:src/main.c    **** 	unsigned int crc_in = 0;                    // CRC sent from the encoder
 499              		.loc 2 126 15
 500 003e 0023     		movs	r3, #0
 501 0040 1993     		str	r3, [sp, #100]
 127:src/main.c    **** 	unsigned int crc_out = 0;                   // CRC calculated based on the read-in data
 502              		.loc 2 127 15
 503 0042 0023     		movs	r3, #0
 504 0044 1893     		str	r3, [sp, #96]
 128:src/main.c    **** 	unsigned int f_bit = 0;                     // EnDat F1 bit
 505              		.loc 2 128 15
 506 0046 0023     		movs	r3, #0
 507 0048 1793     		str	r3, [sp, #92]
 129:src/main.c    **** 	unsigned int ex = 0;                        // auxiliary variable for CRC calculation
 508              		.loc 2 129 15
 509 004a 0023     		movs	r3, #0
 510 004c 1193     		str	r3, [sp, #68]
 130:src/main.c    **** 	unsigned int ff[5] = {1,1,1,1,1};           // Flip-Flop for CRC calculation
 511              		.loc 2 130 15
 512 004e 8A4B     		ldr	r3, .L47+4
 513 0050 05AC     		add	r4, sp, #20
 514 0052 1D46     		mov	r5, r3
 515 0054 0FCD     		ldmia	r5!, {r0, r1, r2, r3}
 516 0056 0FC4     		stmia	r4!, {r0, r1, r2, r3}
 517 0058 2B68     		ldr	r3, [r5]
 518 005a 2360     		str	r3, [r4]
 131:src/main.c    **** 	char bit_in;
 132:src/main.c    **** 
 133:src/main.c    **** 	uint32_t data_in_test = 0;
 519              		.loc 2 133 11
 520 005c 0023     		movs	r3, #0
 521 005e 1693     		str	r3, [sp, #88]
 134:src/main.c    **** 	uint32_t tmp_test = 0;
 522              		.loc 2 134 11
 523 0060 0023     		movs	r3, #0
 524 0062 1593     		str	r3, [sp, #84]
 135:src/main.c    **** 
 136:src/main.c    **** 	if (ec_data_in_clk < 33) {
 525              		.loc 2 136 5
 526 0064 9DF80B30 		ldrb	r3, [sp, #11]	@ zero_extendqisi2
 527 0068 202B     		cmp	r3, #32
 528 006a 0CD8     		bhi	.L19
 137:src/main.c    **** 		n_cnt[0] = 16;
 529              		.loc 2 137 12
 530 006c 1023     		movs	r3, #16
 531 006e 8DF84030 		strb	r3, [sp, #64]
 138:src/main.c    **** 		n_cnt[1] = ec_data_in_clk-16;
 532              		.loc 2 138 28
 533 0072 9DF80B30 		ldrb	r3, [sp, #11]
 534 0076 103B     		subs	r3, r3, #16
 535 0078 DBB2     		uxtb	r3, r3
 536              		.loc 2 138 12
 537 007a 8DF84130 		strb	r3, [sp, #65]
 139:src/main.c    **** 		n_cnt[2] = 0;
 538              		.loc 2 139 12
 539 007e 0023     		movs	r3, #0
 540 0080 8DF84230 		strb	r3, [sp, #66]
 541 0084 0BE0     		b	.L20
 542              	.L19:
 140:src/main.c    **** 	} else {
 141:src/main.c    **** 		n_cnt[0] = 16;
 543              		.loc 2 141 12
 544 0086 1023     		movs	r3, #16
 545 0088 8DF84030 		strb	r3, [sp, #64]
 142:src/main.c    **** 		n_cnt[1] = 16;
 546              		.loc 2 142 12
 547 008c 1023     		movs	r3, #16
 548 008e 8DF84130 		strb	r3, [sp, #65]
 143:src/main.c    **** 		n_cnt[2] = ec_data_in_clk - 32;
 549              		.loc 2 143 29
 550 0092 9DF80B30 		ldrb	r3, [sp, #11]
 551 0096 203B     		subs	r3, r3, #32
 552 0098 DBB2     		uxtb	r3, r3
 553              		.loc 2 143 12
 554 009a 8DF84230 		strb	r3, [sp, #66]
 555              	.L20:
 144:src/main.c    **** 	}
 145:src/main.c    **** 
 146:src/main.c    **** 	if (ec_data_in_clk < 17) {
 556              		.loc 2 146 5
 557 009e 9DF80B30 		ldrb	r3, [sp, #11]	@ zero_extendqisi2
 558 00a2 102B     		cmp	r3, #16
 559 00a4 09D8     		bhi	.L21
 147:src/main.c    **** 		n_cnt[0] = ec_data_in_clk;
 560              		.loc 2 147 12
 561 00a6 9DF80B30 		ldrb	r3, [sp, #11]
 562 00aa 8DF84030 		strb	r3, [sp, #64]
 148:src/main.c    **** 		n_cnt[1] = 0;
 563              		.loc 2 148 12
 564 00ae 0023     		movs	r3, #0
 565 00b0 8DF84130 		strb	r3, [sp, #65]
 149:src/main.c    **** 		n_cnt[2] = 0;
 566              		.loc 2 149 12
 567 00b4 0023     		movs	r3, #0
 568 00b6 8DF84230 		strb	r3, [sp, #66]
 569              	.L21:
 150:src/main.c    **** 	}
 151:src/main.c    **** 
 152:src/main.c    **** 	// if the mode command is of type "1", the n_cnt variable is defined in that way that
 153:src/main.c    **** 	// the lower 16 bit contain the address
 154:src/main.c    **** 	// and the mid 16 bit contain the data
 155:src/main.c    **** 	if (ec_mode_type == 1) {
 570              		.loc 2 155 5
 571 00ba 9DF89030 		ldrb	r3, [sp, #144]	@ zero_extendqisi2
 572 00be 012B     		cmp	r3, #1
 573 00c0 0AD1     		bne	.L22
 156:src/main.c    **** 		n_cnt[0] = 8;
 574              		.loc 2 156 12
 575 00c2 0823     		movs	r3, #8
 576 00c4 8DF84030 		strb	r3, [sp, #64]
 157:src/main.c    **** 		n_cnt[1] = 16;
 577              		.loc 2 157 12
 578 00c8 1023     		movs	r3, #16
 579 00ca 8DF84130 		strb	r3, [sp, #65]
 158:src/main.c    **** 		n_cnt[2] = 0;
 580              		.loc 2 158 12
 581 00ce 0023     		movs	r3, #0
 582 00d0 8DF84230 		strb	r3, [sp, #66]
 159:src/main.c    **** 		Data_Out_Clk = 30;
 583              		.loc 2 159 16
 584 00d4 1E23     		movs	r3, #30
 585 00d6 1A93     		str	r3, [sp, #104]
 586              	.L22:
 160:src/main.c    **** 	}
 161:src/main.c    **** 
 162:src/main.c    **** 	// first part of EnDat communication is to send data to the encoder
 163:src/main.c    **** 	// mode-command
 164:src/main.c    **** 	// and address and data for mode-commands type "1"
 165:src/main.c    **** 	// two clocks to switch data direction at the beginning
 166:src/main.c    **** 	// two clocks after sending data to the encoder --> "Data_Out_Clk + 4"
 167:src/main.c    **** 
 168:src/main.c    **** 
 169:src/main.c    **** 	for ( i = 0; i < (Data_Out_Clk+4) ; i++) {
 587              		.loc 2 169 10
 588 00d8 0023     		movs	r3, #0
 589 00da 1B93     		str	r3, [sp, #108]
 590              		.loc 2 169 2
 591 00dc 28E0     		b	.L23
 592              	.L29:
 170:src/main.c    **** 		CLK_OFF;
 593              		.loc 2 170 3
 594 00de 4120     		movs	r0, #65
 595 00e0 FFF7FEFF 		bl	gpio_clear_pin
 171:src/main.c    **** 
 172:src/main.c    **** 		//after first clock pulse, data enable on
 173:src/main.c    **** 		if (i == 1)
 596              		.loc 2 173 6
 597 00e4 1B9B     		ldr	r3, [sp, #108]
 598 00e6 012B     		cmp	r3, #1
 599 00e8 02D1     		bne	.L24
 174:src/main.c    **** 			DE_ON;
 600              		.loc 2 174 4
 601 00ea 4320     		movs	r0, #67
 602 00ec FFF7FEFF 		bl	gpio_set_pin
 603              	.L24:
 175:src/main.c    **** 
 176:src/main.c    **** 		//after sending the data, data enable off to listen for
 177:src/main.c    **** 		//the start bit
 178:src/main.c    **** 		if (i == (Data_Out_Clk + 2))
 604              		.loc 2 178 26
 605 00f0 1A9B     		ldr	r3, [sp, #104]
 606 00f2 9A1C     		adds	r2, r3, #2
 607              		.loc 2 178 9
 608 00f4 1B9B     		ldr	r3, [sp, #108]
 609              		.loc 2 178 6
 610 00f6 9A42     		cmp	r2, r3
 611 00f8 02D1     		bne	.L25
 179:src/main.c    **** 			DE_OFF;
 612              		.loc 2 179 4
 613 00fa 4320     		movs	r0, #67
 614 00fc FFF7FEFF 		bl	gpio_clear_pin
 615              	.L25:
 180:src/main.c    **** 
 181:src/main.c    **** 		if (i > 1) {
 616              		.loc 2 181 6
 617 0100 1B9B     		ldr	r3, [sp, #108]
 618 0102 012B     		cmp	r3, #1
 619 0104 0EDD     		ble	.L26
 182:src/main.c    **** 			if (ec_data_out & 1)
 620              		.loc 2 182 20
 621 0106 039B     		ldr	r3, [sp, #12]
 622 0108 03F00103 		and	r3, r3, #1
 623              		.loc 2 182 7
 624 010c 002B     		cmp	r3, #0
 625 010e 03D0     		beq	.L27
 183:src/main.c    **** 				D_OUT_ON;
 626              		.loc 2 183 5
 627 0110 4220     		movs	r0, #66
 628 0112 FFF7FEFF 		bl	gpio_set_pin
 629 0116 02E0     		b	.L28
 630              	.L27:
 184:src/main.c    **** 			else
 185:src/main.c    **** 				D_OUT_OFF;
 631              		.loc 2 185 5
 632 0118 4220     		movs	r0, #66
 633 011a FFF7FEFF 		bl	gpio_clear_pin
 634              	.L28:
 186:src/main.c    **** 
 187:src/main.c    **** 			ec_data_out >>= 1;
 635              		.loc 2 187 16
 636 011e 039B     		ldr	r3, [sp, #12]
 637 0120 5B08     		lsrs	r3, r3, #1
 638 0122 0393     		str	r3, [sp, #12]
 639              	.L26:
 188:src/main.c    **** 		}
 189:src/main.c    **** 
 190:src/main.c    **** 		//osal_delay_microsec(5);
 191:src/main.c    **** 		CLK_ON;
 640              		.loc 2 191 3 discriminator 2
 641 0124 4120     		movs	r0, #65
 642 0126 FFF7FEFF 		bl	gpio_set_pin
 169:src/main.c    **** 		CLK_OFF;
 643              		.loc 2 169 39 discriminator 2
 644 012a 1B9B     		ldr	r3, [sp, #108]
 645 012c 0133     		adds	r3, r3, #1
 646 012e 1B93     		str	r3, [sp, #108]
 647              	.L23:
 169:src/main.c    **** 		CLK_OFF;
 648              		.loc 2 169 32 discriminator 1
 649 0130 1A9B     		ldr	r3, [sp, #104]
 650 0132 1A1D     		adds	r2, r3, #4
 169:src/main.c    **** 		CLK_OFF;
 651              		.loc 2 169 17 discriminator 1
 652 0134 1B9B     		ldr	r3, [sp, #108]
 169:src/main.c    **** 		CLK_OFF;
 653              		.loc 2 169 2 discriminator 1
 654 0136 9A42     		cmp	r2, r3
 655 0138 D1D8     		bhi	.L29
 192:src/main.c    **** 		//osal_delay_microsec(5);
 193:src/main.c    **** 	}
 194:src/main.c    **** 
 195:src/main.c    **** 
 196:src/main.c    **** 	CLK_OFF;
 656              		.loc 2 196 2
 657 013a 4120     		movs	r0, #65
 658 013c FFF7FEFF 		bl	gpio_clear_pin
 197:src/main.c    **** 	osal_delay_microsec(2);
 659              		.loc 2 197 2
 660 0140 0220     		movs	r0, #2
 661 0142 FFF7FEFF 		bl	osal_delay_microsec
 198:src/main.c    **** 
 199:src/main.c    **** 	//polling start bit
 200:src/main.c    **** 	while(!gpio_read_pin(DIN)) {
 662              		.loc 2 200 7
 663 0146 05E0     		b	.L30
 664              	.L31:
 201:src/main.c    **** 	//while(!(p_pin_in->IDR & pin_mask)) {
 202:src/main.c    **** 
 203:src/main.c    **** 		CLK_ON;
 665              		.loc 2 203 3
 666 0148 4120     		movs	r0, #65
 667 014a FFF7FEFF 		bl	gpio_set_pin
 204:src/main.c    **** 		//osal_delay_microsec(5);
 205:src/main.c    **** 		CLK_OFF;
 668              		.loc 2 205 3
 669 014e 4120     		movs	r0, #65
 670 0150 FFF7FEFF 		bl	gpio_clear_pin
 671              	.L30:
 200:src/main.c    **** 	//while(!(p_pin_in->IDR & pin_mask)) {
 672              		.loc 2 200 9
 673 0154 4420     		movs	r0, #68
 674 0156 FFF7FEFF 		bl	gpio_read_pin
 675 015a 0346     		mov	r3, r0
 200:src/main.c    **** 	//while(!(p_pin_in->IDR & pin_mask)) {
 676              		.loc 2 200 7
 677 015c 002B     		cmp	r3, #0
 678 015e F3D0     		beq	.L31
 206:src/main.c    **** 		//osal_delay_microsec(5);
 207:src/main.c    **** 		//can the encoder have enough time to send data so i can see it in readPin?
 208:src/main.c    **** 	}
 209:src/main.c    **** 
 210:src/main.c    **** 	if (ec_mode_type == 0) {
 679              		.loc 2 210 5
 680 0160 9DF89030 		ldrb	r3, [sp, #144]	@ zero_extendqisi2
 681 0164 002B     		cmp	r3, #0
 682 0166 23D1     		bne	.L32
 211:src/main.c    **** 		CLK_ON;
 683              		.loc 2 211 3
 684 0168 4120     		movs	r0, #65
 685 016a FFF7FEFF 		bl	gpio_set_pin
 212:src/main.c    **** 		//osal_delay_microsec(5);
 213:src/main.c    **** 		CLK_OFF;
 686              		.loc 2 213 3
 687 016e 4120     		movs	r0, #65
 688 0170 FFF7FEFF 		bl	gpio_clear_pin
 214:src/main.c    **** 		//osal_delay_microsec(5);
 215:src/main.c    **** 		//f_bit = (gpio_read_pin(DIN) ? 1:0);
 216:src/main.c    **** 		f_bit = (p_pin_in->IDR & pin_mask ? 1:0);
 689              		.loc 2 216 20
 690 0174 414B     		ldr	r3, .L47+8
 691 0176 1B68     		ldr	r3, [r3]
 692 0178 1A69     		ldr	r2, [r3, #16]
 693              		.loc 2 216 26
 694 017a 414B     		ldr	r3, .L47+12
 695 017c 1B68     		ldr	r3, [r3]
 696 017e 1340     		ands	r3, r3, r2
 697              		.loc 2 216 40
 698 0180 002B     		cmp	r3, #0
 699 0182 14BF     		ite	ne
 700 0184 0123     		movne	r3, #1
 701 0186 0023     		moveq	r3, #0
 702 0188 DBB2     		uxtb	r3, r3
 703              		.loc 2 216 9
 704 018a 1793     		str	r3, [sp, #92]
 217:src/main.c    **** 
 218:src/main.c    **** 		// calculate CRC
 219:src/main.c    **** 		ex = ff[4] ^ f_bit;
 705              		.loc 2 219 10
 706 018c 099B     		ldr	r3, [sp, #36]
 707              		.loc 2 219 6
 708 018e 179A     		ldr	r2, [sp, #92]
 709 0190 5340     		eors	r3, r3, r2
 710 0192 1193     		str	r3, [sp, #68]
 220:src/main.c    **** 		ff[4] = ff[3];
 711              		.loc 2 220 13
 712 0194 089B     		ldr	r3, [sp, #32]
 713              		.loc 2 220 9
 714 0196 0993     		str	r3, [sp, #36]
 221:src/main.c    **** 		ff[3] = ff[2] ^ ex;
 715              		.loc 2 221 13
 716 0198 079A     		ldr	r2, [sp, #28]
 717              		.loc 2 221 17
 718 019a 119B     		ldr	r3, [sp, #68]
 719 019c 5340     		eors	r3, r3, r2
 720              		.loc 2 221 9
 721 019e 0893     		str	r3, [sp, #32]
 222:src/main.c    **** 		ff[2] = ff[1];
 722              		.loc 2 222 13
 723 01a0 069B     		ldr	r3, [sp, #24]
 724              		.loc 2 222 9
 725 01a2 0793     		str	r3, [sp, #28]
 223:src/main.c    **** 		ff[1] = ff[0] ^ ex;
 726              		.loc 2 223 13
 727 01a4 059A     		ldr	r2, [sp, #20]
 728              		.loc 2 223 17
 729 01a6 119B     		ldr	r3, [sp, #68]
 730 01a8 5340     		eors	r3, r3, r2
 731              		.loc 2 223 9
 732 01aa 0693     		str	r3, [sp, #24]
 224:src/main.c    **** 		ff[0] = ex;
 733              		.loc 2 224 9
 734 01ac 119B     		ldr	r3, [sp, #68]
 735 01ae 0593     		str	r3, [sp, #20]
 736              	.L32:
 225:src/main.c    **** 	}
 226:src/main.c    **** 
 227:src/main.c    **** 	// now position / address + data is read in
 228:src/main.c    **** 	// read 3 times as 3x 16bit variable is used
 229:src/main.c    **** 	/*for (a=0; a<3;a++) {
 230:src/main.c    **** 		// read data in
 231:src/main.c    **** 		for (i=0; i < n_cnt[a]; i++) {
 232:src/main.c    **** 			CLK_ON;
 233:src/main.c    **** 			osal_delay_microsec(5);
 234:src/main.c    **** 			CLK_OFF;
 235:src/main.c    **** 			osal_delay_microsec(5);
 236:src/main.c    **** 
 237:src/main.c    **** 			bit_in = (gpio_read_pin(DIN)) ? 1:0;
 238:src/main.c    **** 			// calculate CRC
 239:src/main.c    **** 			ex = ff[4] ^ bit_in;
 240:src/main.c    **** 			ff[4] = ff[3];
 241:src/main.c    **** 			ff[3] = ff[2] ^ ex;
 242:src/main.c    **** 			ff[2] = ff[1];
 243:src/main.c    **** 			ff[1] = ff[0] ^ ex;
 244:src/main.c    **** 			ff[0] = ex;
 245:src/main.c    **** 			if(ec_mode_type == 0){		// position mode command: position is read-in LSB first             			/
 246:src/main.c    **** 				data_in[a] >>= 1;
 247:src/main.c    **** 				data_in[a] += (bit_in << (n_cnt[a]-1));
 248:src/main.c    **** 			} else {			// address and data is MSB-first
 249:src/main.c    **** 				data_in[a] <<= 1; // shift-direction is accordingly
 250:src/main.c    **** 				data_in[a] += bit_in;
 251:src/main.c    **** 			}
 252:src/main.c    **** 
 253:src/main.c    **** 		 }
 254:src/main.c    **** 	}*/
 255:src/main.c    **** 
 256:src/main.c    **** 
 257:src/main.c    **** 	//Parte del codice ottimizzato, il crc e il bit shift devono essere fatti dopo
 258:src/main.c    **** 	for (i = 0;i < ec_data_in_clk; i++) {
 737              		.loc 2 258 9
 738 01b0 0023     		movs	r3, #0
 739 01b2 1B93     		str	r3, [sp, #108]
 740              		.loc 2 258 2
 741 01b4 1FE0     		b	.L33
 742              	.L34:
 259:src/main.c    **** 		p_pin_clk->BSRR = pin_mask_clk;
 743              		.loc 2 259 12 discriminator 3
 744 01b6 334B     		ldr	r3, .L47+16
 745 01b8 1B68     		ldr	r3, [r3]
 746              		.loc 2 259 19 discriminator 3
 747 01ba 334A     		ldr	r2, .L47+20
 748 01bc 1268     		ldr	r2, [r2]
 749 01be 9A61     		str	r2, [r3, #24]
 260:src/main.c    **** 		data_in_test <<= 1;
 750              		.loc 2 260 16 discriminator 3
 751 01c0 169B     		ldr	r3, [sp, #88]
 752 01c2 5B00     		lsls	r3, r3, #1
 753 01c4 1693     		str	r3, [sp, #88]
 261:src/main.c    **** 		CLK_OFF;
 754              		.loc 2 261 3 discriminator 3
 755 01c6 4120     		movs	r0, #65
 756 01c8 FFF7FEFF 		bl	gpio_clear_pin
 262:src/main.c    **** 
 263:src/main.c    **** 		bit_in = ((p_pin_in->IDR & pin_mask)) ? 1:0;
 757              		.loc 2 263 22 discriminator 3
 758 01cc 2B4B     		ldr	r3, .L47+8
 759 01ce 1B68     		ldr	r3, [r3]
 760 01d0 1A69     		ldr	r2, [r3, #16]
 761              		.loc 2 263 28 discriminator 3
 762 01d2 2B4B     		ldr	r3, .L47+12
 763 01d4 1B68     		ldr	r3, [r3]
 764 01d6 1340     		ands	r3, r3, r2
 765              		.loc 2 263 44 discriminator 3
 766 01d8 002B     		cmp	r3, #0
 767 01da 14BF     		ite	ne
 768 01dc 0123     		movne	r3, #1
 769 01de 0023     		moveq	r3, #0
 770 01e0 DBB2     		uxtb	r3, r3
 771              		.loc 2 263 10 discriminator 3
 772 01e2 8DF84330 		strb	r3, [sp, #67]
 264:src/main.c    **** 		data_in_test += bit_in;
 773              		.loc 2 264 16 discriminator 3
 774 01e6 9DF94330 		ldrsb	r3, [sp, #67]
 775 01ea 169A     		ldr	r2, [sp, #88]
 776 01ec 1344     		add	r3, r3, r2
 777 01ee 1693     		str	r3, [sp, #88]
 258:src/main.c    **** 		p_pin_clk->BSRR = pin_mask_clk;
 778              		.loc 2 258 34 discriminator 3
 779 01f0 1B9B     		ldr	r3, [sp, #108]
 780 01f2 0133     		adds	r3, r3, #1
 781 01f4 1B93     		str	r3, [sp, #108]
 782              	.L33:
 258:src/main.c    **** 		p_pin_clk->BSRR = pin_mask_clk;
 783              		.loc 2 258 15 discriminator 1
 784 01f6 9DF80B30 		ldrb	r3, [sp, #11]	@ zero_extendqisi2
 258:src/main.c    **** 		p_pin_clk->BSRR = pin_mask_clk;
 785              		.loc 2 258 2 discriminator 1
 786 01fa 1B9A     		ldr	r2, [sp, #108]
 787 01fc 9A42     		cmp	r2, r3
 788 01fe DADB     		blt	.L34
 265:src/main.c    **** 	}
 266:src/main.c    **** 
 267:src/main.c    **** 
 268:src/main.c    **** 	// finally the 5 bit for CRC need to be read
 269:src/main.c    **** 	// CRC is send MSB first, shift direction is accordingly
 270:src/main.c    **** 	for (i=0; i < 5; i++) {
 789              		.loc 2 270 8
 790 0200 0023     		movs	r3, #0
 791 0202 1B93     		str	r3, [sp, #108]
 792              		.loc 2 270 2
 793 0204 1AE0     		b	.L35
 794              	.L36:
 271:src/main.c    **** 		CLK_ON;
 795              		.loc 2 271 3 discriminator 3
 796 0206 4120     		movs	r0, #65
 797 0208 FFF7FEFF 		bl	gpio_set_pin
 272:src/main.c    **** 		//osal_delay_microsec(5);
 273:src/main.c    **** 		crc_in <<= 1;
 798              		.loc 2 273 10 discriminator 3
 799 020c 199B     		ldr	r3, [sp, #100]
 800 020e 5B00     		lsls	r3, r3, #1
 801 0210 1993     		str	r3, [sp, #100]
 274:src/main.c    **** 		CLK_OFF;
 802              		.loc 2 274 3 discriminator 3
 803 0212 4120     		movs	r0, #65
 804 0214 FFF7FEFF 		bl	gpio_clear_pin
 275:src/main.c    **** 		//osal_delay_microsec(5);
 276:src/main.c    **** 		crc_in += ((p_pin_in->IDR & pin_mask)) ? 1:0;
 805              		.loc 2 276 23 discriminator 3
 806 0218 184B     		ldr	r3, .L47+8
 807 021a 1B68     		ldr	r3, [r3]
 808 021c 1A69     		ldr	r2, [r3, #16]
 809              		.loc 2 276 29 discriminator 3
 810 021e 184B     		ldr	r3, .L47+12
 811 0220 1B68     		ldr	r3, [r3]
 812 0222 1340     		ands	r3, r3, r2
 813              		.loc 2 276 45 discriminator 3
 814 0224 002B     		cmp	r3, #0
 815 0226 14BF     		ite	ne
 816 0228 0123     		movne	r3, #1
 817 022a 0023     		moveq	r3, #0
 818 022c DBB2     		uxtb	r3, r3
 819 022e 1A46     		mov	r2, r3
 820              		.loc 2 276 10 discriminator 3
 821 0230 199B     		ldr	r3, [sp, #100]
 822 0232 1344     		add	r3, r3, r2
 823 0234 1993     		str	r3, [sp, #100]
 270:src/main.c    **** 		CLK_ON;
 824              		.loc 2 270 20 discriminator 3
 825 0236 1B9B     		ldr	r3, [sp, #108]
 826 0238 0133     		adds	r3, r3, #1
 827 023a 1B93     		str	r3, [sp, #108]
 828              	.L35:
 270:src/main.c    **** 		CLK_ON;
 829              		.loc 2 270 2 discriminator 1
 830 023c 1B9B     		ldr	r3, [sp, #108]
 831 023e 042B     		cmp	r3, #4
 832 0240 E1DD     		ble	.L36
 277:src/main.c    **** 
 278:src/main.c    **** 	};
 279:src/main.c    **** 
 280:src/main.c    **** 	// set CLK-line to high to finish transmission; the high-time must be > 30 µs (ellapse of recover
 281:src/main.c    **** 	// due to that it can be an advantage to calculate CRC after finishing transmission
 282:src/main.c    **** 	CLK_ON;
 833              		.loc 2 282 2
 834 0242 4120     		movs	r0, #65
 835 0244 FFF7FEFF 		bl	gpio_set_pin
 283:src/main.c    **** 
 284:src/main.c    **** 	int bitmask = 1 << (ec_data_in_clk - 1);
 836              		.loc 2 284 37
 837 0248 9DF80B30 		ldrb	r3, [sp, #11]	@ zero_extendqisi2
 838 024c 013B     		subs	r3, r3, #1
 839              		.loc 2 284 6
 840 024e 0122     		movs	r2, #1
 841 0250 02FA03F3 		lsl	r3, r2, r3
 842 0254 1493     		str	r3, [sp, #80]
 285:src/main.c    **** 	/*for(int i = 0; i < ec_data_in_clk; i++) {
 286:src/main.c    **** 		bit_in = (data_in_test & bitmask) ? 1:0;
 287:src/main.c    **** 
 288:src/main.c    **** 		ex = ff[4] ^ bit_in;
 289:src/main.c    **** 		ff[4] = ff[3];
 290:src/main.c    **** 		ff[3] = ff[2] ^ ex;
 291:src/main.c    **** 		ff[2] = ff[1];
 292:src/main.c    **** 		ff[1] = ff[0] ^ ex;
 293:src/main.c    **** 		ff[0] = ex;
 294:src/main.c    **** 
 295:src/main.c    **** 		bitmask >>= 1;
 296:src/main.c    **** 	}*/
 297:src/main.c    **** 
 298:src/main.c    **** 	if (ec_mode_type == 0) {
 843              		.loc 2 298 5
 844 0256 9DF89030 		ldrb	r3, [sp, #144]	@ zero_extendqisi2
 845 025a 002B     		cmp	r3, #0
 846 025c 4FD1     		bne	.L37
 299:src/main.c    **** 		//for(int i = (ex_data_in_clk-1); i >= 0; i--) {
 300:src/main.c    **** 		/*for(int i = 0; i < ec_data_in_clk; i ++) {
 301:src/main.c    **** 			bit_in = data_in_test & 1;
 302:src/main.c    **** 			data_in_test >>= 1;
 303:src/main.c    **** 			tmp_test <<= 1; // shift-direction is accordingly
 304:src/main.c    **** 			tmp_test += bit_in;
 305:src/main.c    **** 		}*/
 306:src/main.c    **** 		bitmask = 1 << (ec_data_in_clk - 1);
 847              		.loc 2 306 34
 848 025e 9DF80B30 		ldrb	r3, [sp, #11]	@ zero_extendqisi2
 849 0262 013B     		subs	r3, r3, #1
 850              		.loc 2 306 11
 851 0264 0122     		movs	r2, #1
 852 0266 02FA03F3 		lsl	r3, r2, r3
 853 026a 1493     		str	r3, [sp, #80]
 854              	.LBB2:
 307:src/main.c    **** 		for(int i = 0; i < ec_data_in_clk; i++) {
 855              		.loc 2 307 11
 856 026c 0023     		movs	r3, #0
 857 026e 1393     		str	r3, [sp, #76]
 858              		.loc 2 307 3
 859 0270 38E0     		b	.L38
 860              	.L48:
 861 0272 00BF     		.align	2
 862              	.L47:
 863 0274 00000000 		.word	.LC1
 864 0278 04000000 		.word	.LC0
 865 027c 00000000 		.word	p_pin_in
 866 0280 00000000 		.word	pin_mask
 867 0284 00000000 		.word	p_pin_clk
 868 0288 00000000 		.word	pin_mask_clk
 869              	.L39:
 308:src/main.c    **** 			bit_in = (data_in_test & bitmask) ? 1:0;
 870              		.loc 2 308 27 discriminator 3
 871 028c 149A     		ldr	r2, [sp, #80]
 872 028e 169B     		ldr	r3, [sp, #88]
 873 0290 1340     		ands	r3, r3, r2
 874              		.loc 2 308 41 discriminator 3
 875 0292 002B     		cmp	r3, #0
 876 0294 14BF     		ite	ne
 877 0296 0123     		movne	r3, #1
 878 0298 0023     		moveq	r3, #0
 879 029a DBB2     		uxtb	r3, r3
 880              		.loc 2 308 11 discriminator 3
 881 029c 8DF84330 		strb	r3, [sp, #67]
 309:src/main.c    **** 
 310:src/main.c    **** 			ex = ff[4] ^ bit_in;
 882              		.loc 2 310 11 discriminator 3
 883 02a0 099A     		ldr	r2, [sp, #36]
 884              		.loc 2 310 15 discriminator 3
 885 02a2 9DF94330 		ldrsb	r3, [sp, #67]
 886              		.loc 2 310 7 discriminator 3
 887 02a6 5340     		eors	r3, r3, r2
 888 02a8 1193     		str	r3, [sp, #68]
 311:src/main.c    **** 			ff[4] = ff[3];
 889              		.loc 2 311 14 discriminator 3
 890 02aa 089B     		ldr	r3, [sp, #32]
 891              		.loc 2 311 10 discriminator 3
 892 02ac 0993     		str	r3, [sp, #36]
 312:src/main.c    **** 			ff[3] = ff[2] ^ ex;
 893              		.loc 2 312 14 discriminator 3
 894 02ae 079A     		ldr	r2, [sp, #28]
 895              		.loc 2 312 18 discriminator 3
 896 02b0 119B     		ldr	r3, [sp, #68]
 897 02b2 5340     		eors	r3, r3, r2
 898              		.loc 2 312 10 discriminator 3
 899 02b4 0893     		str	r3, [sp, #32]
 313:src/main.c    **** 			ff[2] = ff[1];
 900              		.loc 2 313 14 discriminator 3
 901 02b6 069B     		ldr	r3, [sp, #24]
 902              		.loc 2 313 10 discriminator 3
 903 02b8 0793     		str	r3, [sp, #28]
 314:src/main.c    **** 			ff[1] = ff[0] ^ ex;
 904              		.loc 2 314 14 discriminator 3
 905 02ba 059A     		ldr	r2, [sp, #20]
 906              		.loc 2 314 18 discriminator 3
 907 02bc 119B     		ldr	r3, [sp, #68]
 908 02be 5340     		eors	r3, r3, r2
 909              		.loc 2 314 10 discriminator 3
 910 02c0 0693     		str	r3, [sp, #24]
 315:src/main.c    **** 			ff[0] = ex;
 911              		.loc 2 315 10 discriminator 3
 912 02c2 119B     		ldr	r3, [sp, #68]
 913 02c4 0593     		str	r3, [sp, #20]
 316:src/main.c    **** 
 317:src/main.c    **** 			tmp_test += bit_in << i;
 914              		.loc 2 317 23 discriminator 3
 915 02c6 9DF94320 		ldrsb	r2, [sp, #67]
 916 02ca 139B     		ldr	r3, [sp, #76]
 917 02cc 02FA03F3 		lsl	r3, r2, r3
 918 02d0 1A46     		mov	r2, r3
 919              		.loc 2 317 13 discriminator 3
 920 02d2 159B     		ldr	r3, [sp, #84]
 921 02d4 1344     		add	r3, r3, r2
 922 02d6 1593     		str	r3, [sp, #84]
 318:src/main.c    **** 			bitmask >>= 1;
 923              		.loc 2 318 12 discriminator 3
 924 02d8 149B     		ldr	r3, [sp, #80]
 925 02da 5B10     		asrs	r3, r3, #1
 926 02dc 1493     		str	r3, [sp, #80]
 307:src/main.c    **** 			bit_in = (data_in_test & bitmask) ? 1:0;
 927              		.loc 2 307 39 discriminator 3
 928 02de 139B     		ldr	r3, [sp, #76]
 929 02e0 0133     		adds	r3, r3, #1
 930 02e2 1393     		str	r3, [sp, #76]
 931              	.L38:
 307:src/main.c    **** 			bit_in = (data_in_test & bitmask) ? 1:0;
 932              		.loc 2 307 20 discriminator 1
 933 02e4 9DF80B30 		ldrb	r3, [sp, #11]	@ zero_extendqisi2
 307:src/main.c    **** 			bit_in = (data_in_test & bitmask) ? 1:0;
 934              		.loc 2 307 3 discriminator 1
 935 02e8 139A     		ldr	r2, [sp, #76]
 936 02ea 9A42     		cmp	r2, r3
 937 02ec CEDB     		blt	.L39
 938              	.LBE2:
 319:src/main.c    **** 		}
 320:src/main.c    **** 
 321:src/main.c    **** 		//*ec_pos = (data_in_copy[0] + ((long long)data_in_copy[1] <<16) + ((long long)data_in_copy[2] <<
 322:src/main.c    **** 		*ec_pos = tmp_test;
 939              		.loc 2 322 11
 940 02ee 159B     		ldr	r3, [sp, #84]
 941 02f0 0022     		movs	r2, #0
 942 02f2 9846     		mov	r8, r3
 943 02f4 9146     		mov	r9, r2
 944 02f6 019B     		ldr	r3, [sp, #4]
 945 02f8 C3E90089 		strd	r8, [r3]
 946 02fc 38E0     		b	.L40
 947              	.L37:
 323:src/main.c    **** 	} else {
 324:src/main.c    **** 		//*ec_pos = (data_in[0] + ((long long)data_in[1] <<16) + ((long long)data_in[2] << 32));
 325:src/main.c    **** 		bitmask = 1 << (ec_data_in_clk - 1);
 948              		.loc 2 325 34
 949 02fe 9DF80B30 		ldrb	r3, [sp, #11]	@ zero_extendqisi2
 950 0302 013B     		subs	r3, r3, #1
 951              		.loc 2 325 11
 952 0304 0122     		movs	r2, #1
 953 0306 02FA03F3 		lsl	r3, r2, r3
 954 030a 1493     		str	r3, [sp, #80]
 955              	.LBB3:
 326:src/main.c    **** 		for(int i = 0; i < ec_data_in_clk; i++) {
 956              		.loc 2 326 11
 957 030c 0023     		movs	r3, #0
 958 030e 1293     		str	r3, [sp, #72]
 959              		.loc 2 326 3
 960 0310 22E0     		b	.L41
 961              	.L42:
 327:src/main.c    **** 			bit_in = (data_in_test & bitmask) ? 1:0;
 962              		.loc 2 327 27 discriminator 3
 963 0312 149A     		ldr	r2, [sp, #80]
 964 0314 169B     		ldr	r3, [sp, #88]
 965 0316 1340     		ands	r3, r3, r2
 966              		.loc 2 327 41 discriminator 3
 967 0318 002B     		cmp	r3, #0
 968 031a 14BF     		ite	ne
 969 031c 0123     		movne	r3, #1
 970 031e 0023     		moveq	r3, #0
 971 0320 DBB2     		uxtb	r3, r3
 972              		.loc 2 327 11 discriminator 3
 973 0322 8DF84330 		strb	r3, [sp, #67]
 328:src/main.c    **** 
 329:src/main.c    **** 			ex = ff[4] ^ bit_in;
 974              		.loc 2 329 11 discriminator 3
 975 0326 099A     		ldr	r2, [sp, #36]
 976              		.loc 2 329 15 discriminator 3
 977 0328 9DF94330 		ldrsb	r3, [sp, #67]
 978              		.loc 2 329 7 discriminator 3
 979 032c 5340     		eors	r3, r3, r2
 980 032e 1193     		str	r3, [sp, #68]
 330:src/main.c    **** 			ff[4] = ff[3];
 981              		.loc 2 330 14 discriminator 3
 982 0330 089B     		ldr	r3, [sp, #32]
 983              		.loc 2 330 10 discriminator 3
 984 0332 0993     		str	r3, [sp, #36]
 331:src/main.c    **** 			ff[3] = ff[2] ^ ex;
 985              		.loc 2 331 14 discriminator 3
 986 0334 079A     		ldr	r2, [sp, #28]
 987              		.loc 2 331 18 discriminator 3
 988 0336 119B     		ldr	r3, [sp, #68]
 989 0338 5340     		eors	r3, r3, r2
 990              		.loc 2 331 10 discriminator 3
 991 033a 0893     		str	r3, [sp, #32]
 332:src/main.c    **** 			ff[2] = ff[1];
 992              		.loc 2 332 14 discriminator 3
 993 033c 069B     		ldr	r3, [sp, #24]
 994              		.loc 2 332 10 discriminator 3
 995 033e 0793     		str	r3, [sp, #28]
 333:src/main.c    **** 			ff[1] = ff[0] ^ ex;
 996              		.loc 2 333 14 discriminator 3
 997 0340 059A     		ldr	r2, [sp, #20]
 998              		.loc 2 333 18 discriminator 3
 999 0342 119B     		ldr	r3, [sp, #68]
 1000 0344 5340     		eors	r3, r3, r2
 1001              		.loc 2 333 10 discriminator 3
 1002 0346 0693     		str	r3, [sp, #24]
 334:src/main.c    **** 			ff[0] = ex;
 1003              		.loc 2 334 10 discriminator 3
 1004 0348 119B     		ldr	r3, [sp, #68]
 1005 034a 0593     		str	r3, [sp, #20]
 335:src/main.c    **** 
 336:src/main.c    **** 			bitmask >>= 1;
 1006              		.loc 2 336 12 discriminator 3
 1007 034c 149B     		ldr	r3, [sp, #80]
 1008 034e 5B10     		asrs	r3, r3, #1
 1009 0350 1493     		str	r3, [sp, #80]
 326:src/main.c    **** 			bit_in = (data_in_test & bitmask) ? 1:0;
 1010              		.loc 2 326 39 discriminator 3
 1011 0352 129B     		ldr	r3, [sp, #72]
 1012 0354 0133     		adds	r3, r3, #1
 1013 0356 1293     		str	r3, [sp, #72]
 1014              	.L41:
 326:src/main.c    **** 			bit_in = (data_in_test & bitmask) ? 1:0;
 1015              		.loc 2 326 20 discriminator 1
 1016 0358 9DF80B30 		ldrb	r3, [sp, #11]	@ zero_extendqisi2
 326:src/main.c    **** 			bit_in = (data_in_test & bitmask) ? 1:0;
 1017              		.loc 2 326 3 discriminator 1
 1018 035c 129A     		ldr	r2, [sp, #72]
 1019 035e 9A42     		cmp	r2, r3
 1020 0360 D7DB     		blt	.L42
 1021              	.LBE3:
 337:src/main.c    **** 		}
 338:src/main.c    **** 		*ec_pos = data_in_test;
 1022              		.loc 2 338 11
 1023 0362 169B     		ldr	r3, [sp, #88]
 1024 0364 0022     		movs	r2, #0
 1025 0366 1E46     		mov	r6, r3
 1026 0368 1746     		mov	r7, r2
 1027 036a 019B     		ldr	r3, [sp, #4]
 1028 036c C3E90067 		strd	r6, [r3]
 1029              	.L40:
 339:src/main.c    **** 	}
 340:src/main.c    **** 
 341:src/main.c    **** 
 342:src/main.c    **** 
 343:src/main.c    **** 
 344:src/main.c    **** 	//*ec_pos = (data_in[0] + ((long long)data_in[1] <<16) + ((long long)data_in[2] << 32));
 345:src/main.c    **** 	osal_delay_microsec(30);
 1030              		.loc 2 345 2
 1031 0370 1E20     		movs	r0, #30
 1032 0372 FFF7FEFF 		bl	osal_delay_microsec
 346:src/main.c    **** 
 347:src/main.c    **** 	// calculate position value
 348:src/main.c    **** 
 349:src/main.c    **** 
 350:src/main.c    **** 	// CRC value must be sorted to calculate the final value
 351:src/main.c    **** 	crc_out = 0;
 1033              		.loc 2 351 10
 1034 0376 0023     		movs	r3, #0
 1035 0378 1893     		str	r3, [sp, #96]
 352:src/main.c    **** 	for (i=4; i>=0; i--) {
 1036              		.loc 2 352 8
 1037 037a 0423     		movs	r3, #4
 1038 037c 1B93     		str	r3, [sp, #108]
 1039              		.loc 2 352 2
 1040 037e 20E0     		b	.L43
 1041              	.L44:
 353:src/main.c    **** 		ff[i] = ff[i] ? 0 : 1;
 1042              		.loc 2 353 13 discriminator 3
 1043 0380 1B9B     		ldr	r3, [sp, #108]
 1044 0382 9B00     		lsls	r3, r3, #2
 1045 0384 7033     		adds	r3, r3, #112
 1046 0386 6B44     		add	r3, sp, r3
 1047 0388 53F85C3C 		ldr	r3, [r3, #-92]
 1048              		.loc 2 353 21 discriminator 3
 1049 038c 002B     		cmp	r3, #0
 1050 038e 0CBF     		ite	eq
 1051 0390 0123     		moveq	r3, #1
 1052 0392 0023     		movne	r3, #0
 1053 0394 DBB2     		uxtb	r3, r3
 1054 0396 1A46     		mov	r2, r3
 1055              		.loc 2 353 9 discriminator 3
 1056 0398 1B9B     		ldr	r3, [sp, #108]
 1057 039a 9B00     		lsls	r3, r3, #2
 1058 039c 7033     		adds	r3, r3, #112
 1059 039e 6B44     		add	r3, sp, r3
 1060 03a0 43F85C2C 		str	r2, [r3, #-92]
 354:src/main.c    **** 		crc_out <<= 1;
 1061              		.loc 2 354 11 discriminator 3
 1062 03a4 189B     		ldr	r3, [sp, #96]
 1063 03a6 5B00     		lsls	r3, r3, #1
 1064 03a8 1893     		str	r3, [sp, #96]
 355:src/main.c    **** 		crc_out |= ff[i];
 1065              		.loc 2 355 16 discriminator 3
 1066 03aa 1B9B     		ldr	r3, [sp, #108]
 1067 03ac 9B00     		lsls	r3, r3, #2
 1068 03ae 7033     		adds	r3, r3, #112
 1069 03b0 6B44     		add	r3, sp, r3
 1070 03b2 53F85C3C 		ldr	r3, [r3, #-92]
 1071              		.loc 2 355 11 discriminator 3
 1072 03b6 189A     		ldr	r2, [sp, #96]
 1073 03b8 1343     		orrs	r3, r3, r2
 1074 03ba 1893     		str	r3, [sp, #96]
 352:src/main.c    **** 		ff[i] = ff[i] ? 0 : 1;
 1075              		.loc 2 352 19 discriminator 3
 1076 03bc 1B9B     		ldr	r3, [sp, #108]
 1077 03be 013B     		subs	r3, r3, #1
 1078 03c0 1B93     		str	r3, [sp, #108]
 1079              	.L43:
 352:src/main.c    **** 		ff[i] = ff[i] ? 0 : 1;
 1080              		.loc 2 352 2 discriminator 1
 1081 03c2 1B9B     		ldr	r3, [sp, #108]
 1082 03c4 002B     		cmp	r3, #0
 1083 03c6 DBDA     		bge	.L44
 356:src/main.c    **** 	};
 357:src/main.c    **** 
 358:src/main.c    **** 	// calculate status
 359:src/main.c    **** 	// bit0: F-bit
 360:src/main.c    **** 	// bit1: CRC check
 361:src/main.c    **** 	*ec_status = f_bit;
 1084              		.loc 2 361 13
 1085 03c8 179B     		ldr	r3, [sp, #92]
 1086 03ca DAB2     		uxtb	r2, r3
 1087 03cc 009B     		ldr	r3, [sp]
 1088 03ce 1A70     		strb	r2, [r3]
 362:src/main.c    **** 	if (crc_in != crc_out){
 1089              		.loc 2 362 5
 1090 03d0 199A     		ldr	r2, [sp, #100]
 1091 03d2 189B     		ldr	r3, [sp, #96]
 1092 03d4 9A42     		cmp	r2, r3
 1093 03d6 05D0     		beq	.L46
 363:src/main.c    **** 		*ec_status = *ec_status + 2;
 1094              		.loc 2 363 16
 1095 03d8 009B     		ldr	r3, [sp]
 1096 03da 1B78     		ldrb	r3, [r3]	@ zero_extendqisi2
 1097              		.loc 2 363 27
 1098 03dc 0233     		adds	r3, r3, #2
 1099 03de DAB2     		uxtb	r2, r3
 1100              		.loc 2 363 14
 1101 03e0 009B     		ldr	r3, [sp]
 1102 03e2 1A70     		strb	r2, [r3]
 1103              	.L46:
 364:src/main.c    **** 	}
 365:src/main.c    **** }
 1104              		.loc 2 365 1
 1105 03e4 00BF     		nop
 1106 03e6 1DB0     		add	sp, sp, #116
 1107              		.cfi_def_cfa_offset 28
 1108              		@ sp needed
 1109 03e8 BDE8F083 		pop	{r4, r5, r6, r7, r8, r9, pc}
 1110              		.cfi_endproc
 1111              	.LFE472:
 1113              		.section	.text.Endat_startup,"ax",%progbits
 1114              		.align	1
 1115              		.p2align 4,,15
 1116              		.global	Endat_startup
 1117              		.syntax unified
 1118              		.thumb
 1119              		.thumb_func
 1121              	Endat_startup:
 1122              	.LFB473:
 366:src/main.c    **** 
 367:src/main.c    **** 
 368:src/main.c    **** 
 369:src/main.c    **** void Endat_startup() {
 1123              		.loc 2 369 22
 1124              		.cfi_startproc
 1125              		@ args = 0, pretend = 0, frame = 0
 1126              		@ frame_needed = 0, uses_anonymous_args = 0
 1127 0000 08B5     		push	{r3, lr}
 1128              		.cfi_def_cfa_offset 8
 1129              		.cfi_offset 3, -8
 1130              		.cfi_offset 14, -4
 370:src/main.c    **** 	//hal delay 20
 371:src/main.c    **** 
 372:src/main.c    **** 	//first clock pulse after power-up hard reset.
 373:src/main.c    **** 	CLK_ON;
 1131              		.loc 2 373 2
 1132 0002 4120     		movs	r0, #65
 1133 0004 FFF7FEFF 		bl	gpio_set_pin
 374:src/main.c    **** 	osal_delay_microsec(5);
 1134              		.loc 2 374 2
 1135 0008 0520     		movs	r0, #5
 1136 000a FFF7FEFF 		bl	osal_delay_microsec
 375:src/main.c    **** 
 376:src/main.c    **** 	CLK_OFF;
 1137              		.loc 2 376 2
 1138 000e 4120     		movs	r0, #65
 1139 0010 FFF7FEFF 		bl	gpio_clear_pin
 377:src/main.c    **** 	osal_delay_microsec(5);
 1140              		.loc 2 377 2
 1141 0014 0520     		movs	r0, #5
 1142 0016 FFF7FEFF 		bl	osal_delay_microsec
 378:src/main.c    **** 
 379:src/main.c    **** 	CLK_ON;
 1143              		.loc 2 379 2
 1144 001a 4120     		movs	r0, #65
 1145 001c FFF7FEFF 		bl	gpio_set_pin
 380:src/main.c    **** 	osal_delay_microsec(5);
 1146              		.loc 2 380 2
 1147 0020 0520     		movs	r0, #5
 1148 0022 FFF7FEFF 		bl	osal_delay_microsec
 381:src/main.c    **** 
 382:src/main.c    **** 
 383:src/main.c    **** 	DE_OFF; //data enable disattivato
 1149              		.loc 2 383 2
 1150 0026 4320     		movs	r0, #67
 1151 0028 FFF7FEFF 		bl	gpio_clear_pin
 384:src/main.c    **** 
 385:src/main.c    **** 	//delay 30 microsecond
 386:src/main.c    **** 	osal_delay_microsec(30);
 1152              		.loc 2 386 2
 1153 002c 1E20     		movs	r0, #30
 1154 002e FFF7FEFF 		bl	osal_delay_microsec
 387:src/main.c    **** 
 388:src/main.c    **** 
 389:src/main.c    **** 	//Sending reset mode command
 390:src/main.c    **** 	//Set MRS Code
 391:src/main.c    **** 	//read error register
 392:src/main.c    **** 	//delete error
 393:src/main.c    **** 
 394:src/main.c    **** }
 1155              		.loc 2 394 1
 1156 0032 00BF     		nop
 1157 0034 08BD     		pop	{r3, pc}
 1158              		.cfi_endproc
 1159              	.LFE473:
 1161              		.global	mode_pos
 1162 0036 00BF     		.section	.rodata.mode_pos,"a"
 1163              		.align	2
 1166              	mode_pos:
 1167 0000 38000000 		.word	56
 1168              		.global	mode_MRS
 1169              		.section	.rodata.mode_MRS,"a"
 1170              		.align	2
 1173              	mode_MRS:
 1174 0000 1C000000 		.word	28
 1175              		.global	mode_send
 1176              		.section	.rodata.mode_send,"a"
 1177              		.align	2
 1180              	mode_send:
 1181 0000 31000000 		.word	49
 1182              		.global	mode_receive
 1183              		.section	.rodata.mode_receive,"a"
 1184              		.align	2
 1187              	mode_receive:
 1188 0000 0E000000 		.word	14
 1189              		.global	mode_reset
 1190              		.section	.rodata.mode_reset,"a"
 1191              		.align	2
 1194              	mode_reset:
 1195 0000 15000000 		.word	21
 1196              		.global	mode_test
 1197              		.section	.rodata.mode_test,"a"
 1198              		.align	2
 1201              	mode_test:
 1202 0000 23000000 		.word	35
 1203              		.global	MRS_E21_1
 1204              		.section	.rodata.MRS_E21_1,"a"
 1205              		.align	2
 1208              	MRS_E21_1:
 1209 0000 A1000000 		.word	161
 1210              		.global	MRS_E21_2
 1211              		.section	.rodata.MRS_E21_2,"a"
 1212              		.align	2
 1215              	MRS_E21_2:
 1216 0000 A3000000 		.word	163
 1217              		.global	MRS_E21_3
 1218              		.section	.rodata.MRS_E21_3,"a"
 1219              		.align	2
 1222              	MRS_E21_3:
 1223 0000 A5000000 		.word	165
 1224              		.global	MRS_OP_Conditions
 1225              		.section	.rodata.MRS_OP_Conditions,"a"
 1226              		.align	2
 1229              	MRS_OP_Conditions:
 1230 0000 B9000000 		.word	185
 1231              		.global	MRS_OP_Parameters
 1232              		.section	.rodata.MRS_OP_Parameters,"a"
 1233              		.align	2
 1236              	MRS_OP_Parameters:
 1237 0000 A7000000 		.word	167
 1238              		.global	Data
 1239              		.section	.bss.Data,"aw",%nobits
 1240              		.align	2
 1243              	Data:
 1244 0000 00000000 		.space	4
 1245              		.global	Pos_Bit
 1246              		.section	.bss.Pos_Bit,"aw",%nobits
 1247              		.align	2
 1250              	Pos_Bit:
 1251 0000 00000000 		.space	4
 1252              		.global	Data_Out
 1253              		.section	.bss.Data_Out,"aw",%nobits
 1254              		.align	2
 1257              	Data_Out:
 1258 0000 00000000 		.space	4
 1259              		.global	Error_Status
 1260              		.section	.bss.Error_Status,"aw",%nobits
 1263              	Error_Status:
 1264 0000 00       		.space	1
 1265              		.global	Meas_Step
 1266              		.section	.bss.Meas_Step,"aw",%nobits
 1267              		.align	2
 1270              	Meas_Step:
 1271 0000 00000000 		.space	4
 1272              		.global	Meas_Step_Copy
 1273              		.section	.bss.Meas_Step_Copy,"aw",%nobits
 1274              		.align	2
 1277              	Meas_Step_Copy:
 1278 0000 00000000 		.space	4
 1279              		.global	Meas_Step_Bit
 1280              		.section	.bss.Meas_Step_Bit,"aw",%nobits
 1281              		.align	2
 1284              	Meas_Step_Bit:
 1285 0000 00000000 		.space	4
 1286              		.global	Revolutions
 1287              		.section	.bss.Revolutions,"aw",%nobits
 1288              		.align	2
 1291              	Revolutions:
 1292 0000 00000000 		.space	4
 1293              		.global	Enc_Model
 1294              		.section	.bss.Enc_Model,"aw",%nobits
 1295              		.align	2
 1298              	Enc_Model:
 1299 0000 00000000 		.space	4
 1300              		.global	Enc_Position
 1301              		.section	.bss.Enc_Position,"aw",%nobits
 1302              		.align	3
 1305              	Enc_Position:
 1306 0000 00000000 		.space	8
 1306      00000000 
 1307              		.global	MT_Value
 1308              		.section	.bss.MT_Value,"aw",%nobits
 1309              		.align	2
 1312              	MT_Value:
 1313 0000 00000000 		.space	4
 1314              		.global	Pos_Final
 1315              		.section	.bss.Pos_Final,"aw",%nobits
 1316              		.align	2
 1319              	Pos_Final:
 1320 0000 00000000 		.space	4
 1321              		.section	.rodata
 1322              		.align	2
 1323              	.LC2:
 1324 0018 48656C6C 		.ascii	"Hello World!!!\012\015\000"
 1324      6F20576F 
 1324      726C6421 
 1324      21210A0D 
 1324      00
 1325 0029 000000   		.align	2
 1326              	.LC3:
 1327 002c 52657365 		.ascii	"Reset status\012\015\000"
 1327      74207374 
 1327      61747573 
 1327      0A0D00
 1328 003b 00       		.align	2
 1329              	.LC4:
 1330 003c 0A0D00   		.ascii	"\012\015\000"
 1331              		.global	__aeabi_ul2f
 1332              		.section	.text.main,"ax",%progbits
 1333              		.align	1
 1334              		.p2align 4,,15
 1335              		.global	main
 1336              		.syntax unified
 1337              		.thumb
 1338              		.thumb_func
 1340              	main:
 1341              	.LFB474:
 395:src/main.c    **** 
 396:src/main.c    **** 
 397:src/main.c    **** // definition of constants
 398:src/main.c    **** // definition of 6-bit values for mode commands
 399:src/main.c    **** const unsigned int mode_pos     = 0x38;
 400:src/main.c    **** const unsigned int mode_MRS     = 0x1C;
 401:src/main.c    **** const unsigned int mode_send    = 0x31;
 402:src/main.c    **** const unsigned int mode_receive = 0x0E;
 403:src/main.c    **** const unsigned int mode_reset   = 0x15;
 404:src/main.c    **** const unsigned int mode_test 	= 0b00100011;
 405:src/main.c    **** // definition or MRS-codes for EnDat parameter
 406:src/main.c    **** const unsigned int MRS_E21_1 = 0xA1;
 407:src/main.c    **** const unsigned int MRS_E21_2 = 0xA3;
 408:src/main.c    **** const unsigned int MRS_E21_3 = 0xA5;
 409:src/main.c    **** const unsigned int MRS_OP_Conditions = (unsigned int) 0xB9;
 410:src/main.c    **** 
 411:src/main.c    **** const unsigned int MRS_OP_Parameters = 0b10100111;
 412:src/main.c    **** 
 413:src/main.c    **** unsigned int Data;			// data for parameters read from the encoder
 414:src/main.c    **** 
 415:src/main.c    **** // declaration of variables
 416:src/main.c    **** unsigned int Pos_Bit;			// nr. of bits for positon, EnDat 2.1 parameter word 13
 417:src/main.c    **** unsigned long Data_Out;			// data sent to the encoder
 418:src/main.c    **** unsigned char Error_Status;		// error status: bit0 = F1; bit1 = CRC error; bit2 = F-type II
 419:src/main.c    **** unsigned int Data;			// data for parameters read from the encoder
 420:src/main.c    **** unsigned long Meas_Step;		// measuring step or nr. of measuring steps per revolution; EnDat 2.1 par
 421:src/main.c    **** unsigned long Meas_Step_Copy;		// local copy for calculation
 422:src/main.c    **** unsigned int Meas_Step_Bit;		// especially for rotary encoders the bit-count of Meas_Step must be c
 423:src/main.c    **** unsigned int Revolutions;		// for multiturn encoders, EnDat 2.1 word 17
 424:src/main.c    **** unsigned int Enc_Model;			// type of encoder, EnDat 2.1 word 14
 425:src/main.c    **** unsigned long long Enc_Position;	// 64-bit variable for the 48-bit encoder position
 426:src/main.c    **** unsigned int MT_Value;			// actual number of revolutions; for multiturn encoder
 427:src/main.c    **** float Pos_Final;			// position in µm or deg
 428:src/main.c    **** 
 429:src/main.c    **** 
 430:src/main.c    **** int main(void)
 431:src/main.c    **** {
 1342              		.loc 2 431 1
 1343              		.cfi_startproc
 1344              		@ args = 0, pretend = 0, frame = 8
 1345              		@ frame_needed = 0, uses_anonymous_args = 0
 1346 0000 00B5     		push	{lr}
 1347              		.cfi_def_cfa_offset 4
 1348              		.cfi_offset 14, -4
 1349 0002 85B0     		sub	sp, sp, #20
 1350              		.cfi_def_cfa_offset 24
 432:src/main.c    ****     /* Enable interrupts.*/
 433:src/main.c    ****     osal_sys_unlock();
 1351              		.loc 2 433 5
 1352 0004 FFF7FEFF 		bl	osal_sys_unlock
 434:src/main.c    **** 
 435:src/main.c    **** 	test_env_init((TestInit_t)
 1353              		.loc 2 435 2
 1354 0008 1F20     		movs	r0, #31
 1355 000a FFF7FEFF 		bl	test_env_init
 436:src/main.c    ****                   (TEST_INIT_CLOCK    |
 437:src/main.c    ****                    TEST_INIT_GPIO     |
 438:src/main.c    ****                    TEST_INIT_BOARD    |
 439:src/main.c    ****                    TEST_INIT_IRQ      |
 440:src/main.c    ****                    TEST_INIT_OSAL));
 441:src/main.c    **** 
 442:src/main.c    ****     /* Application main loop */
 443:src/main.c    ****     uart_init(&DRV_UART3);
 1356              		.loc 2 443 5
 1357 000e 8E48     		ldr	r0, .L56
 1358 0010 FFF7FEFF 		bl	uart_init
 444:src/main.c    ****     uart_cfg1(&DRV_UART3);
 1359              		.loc 2 444 5
 1360 0014 8C48     		ldr	r0, .L56
 1361 0016 FFF7FEFF 		bl	uart_cfg1
 445:src/main.c    ****     uart_start(&DRV_UART3);
 1362              		.loc 2 445 5
 1363 001a 8B48     		ldr	r0, .L56
 1364 001c FFF7FEFF 		bl	uart_start
 446:src/main.c    **** 
 447:src/main.c    ****     //Clock_Test();
 448:src/main.c    **** 
 449:src/main.c    ****     Endat_startup();
 1365              		.loc 2 449 5
 1366 0020 FFF7FEFF 		bl	Endat_startup
 450:src/main.c    **** 	osal_delay_microsec(200);
 1367              		.loc 2 450 2
 1368 0024 C820     		movs	r0, #200
 1369 0026 FFF7FEFF 		bl	osal_delay_microsec
 451:src/main.c    **** 
 452:src/main.c    ****     (void)uart_write(&DRV_UART3, (uint8_t *)"Hello World!!!\n\r", 16U);
 1370              		.loc 2 452 11
 1371 002a 1022     		movs	r2, #16
 1372 002c 8749     		ldr	r1, .L56+4
 1373 002e 8648     		ldr	r0, .L56
 1374 0030 FFF7FEFF 		bl	uart_write
 453:src/main.c    **** 
 454:src/main.c    **** 
 455:src/main.c    **** 
 456:src/main.c    ****     gpio_port_t port = gpio_iounpack_port(DIN);
 1375              		.loc 2 456 17
 1376 0034 0423     		movs	r3, #4
 1377 0036 8DF80F30 		strb	r3, [sp, #15]
 457:src/main.c    ****     gpio_pin_t pin   = gpio_iounpack_pin(DIN);
 1378              		.loc 2 457 16
 1379 003a 0423     		movs	r3, #4
 1380 003c 8DF80E30 		strb	r3, [sp, #14]
 458:src/main.c    ****     p_pin_in = gpio_dev_get_port_reg_ptr(port);
 1381              		.loc 2 458 16
 1382 0040 9DF80F30 		ldrb	r3, [sp, #15]	@ zero_extendqisi2
 1383 0044 1846     		mov	r0, r3
 1384 0046 FFF7FEFF 		bl	gpio_dev_get_port_reg_ptr
 1385 004a 0346     		mov	r3, r0
 1386              		.loc 2 458 14
 1387 004c 804A     		ldr	r2, .L56+8
 1388 004e 1360     		str	r3, [r2]
 459:src/main.c    ****     pin_mask = (1U << pin);
 1389              		.loc 2 459 20
 1390 0050 9DF80E30 		ldrb	r3, [sp, #14]	@ zero_extendqisi2
 1391 0054 0122     		movs	r2, #1
 1392 0056 02FA03F3 		lsl	r3, r2, r3
 1393              		.loc 2 459 14
 1394 005a 7E4A     		ldr	r2, .L56+12
 1395 005c 1360     		str	r3, [r2]
 460:src/main.c    **** 
 461:src/main.c    ****     gpio_port_t port_ = gpio_iounpack_port(PIN_GPIO4_1);
 1396              		.loc 2 461 17
 1397 005e 0423     		movs	r3, #4
 1398 0060 8DF80D30 		strb	r3, [sp, #13]
 462:src/main.c    **** 	gpio_pin_t pin_   = gpio_iounpack_pin(PIN_GPIO4_1);
 1399              		.loc 2 462 13
 1400 0064 0123     		movs	r3, #1
 1401 0066 8DF80C30 		strb	r3, [sp, #12]
 463:src/main.c    **** 	p_pin_clk  = gpio_dev_get_port_reg_ptr(port_);
 1402              		.loc 2 463 15
 1403 006a 9DF80D30 		ldrb	r3, [sp, #13]	@ zero_extendqisi2
 1404 006e 1846     		mov	r0, r3
 1405 0070 FFF7FEFF 		bl	gpio_dev_get_port_reg_ptr
 1406 0074 0346     		mov	r3, r0
 1407              		.loc 2 463 13
 1408 0076 784A     		ldr	r2, .L56+16
 1409 0078 1360     		str	r3, [r2]
 464:src/main.c    **** 	pin_mask_clk = 1U << pin_;
 1410              		.loc 2 464 20
 1411 007a 9DF80C30 		ldrb	r3, [sp, #12]	@ zero_extendqisi2
 1412 007e 0122     		movs	r2, #1
 1413 0080 02FA03F3 		lsl	r3, r2, r3
 1414              		.loc 2 464 15
 1415 0084 754A     		ldr	r2, .L56+20
 1416 0086 1360     		str	r3, [r2]
 465:src/main.c    **** 
 466:src/main.c    **** 
 467:src/main.c    **** 
 468:src/main.c    ****     //send reset to the encoder
 469:src/main.c    ****     EnDat_Mode_Command (mode_reset, 0, &Data, &Error_Status);
 1417              		.loc 2 469 5
 1418 0088 1520     		movs	r0, #21
 1419 008a 754B     		ldr	r3, .L56+24
 1420 008c 754A     		ldr	r2, .L56+28
 1421 008e 0021     		movs	r1, #0
 1422 0090 FFF7FEFF 		bl	EnDat_Mode_Command
 470:src/main.c    ****     (void)uart_write(&DRV_UART3, (uint8_t *)"Reset status\n\r", 14U);
 1423              		.loc 2 470 11
 1424 0094 0E22     		movs	r2, #14
 1425 0096 7449     		ldr	r1, .L56+32
 1426 0098 6B48     		ldr	r0, .L56
 1427 009a FFF7FEFF 		bl	uart_write
 471:src/main.c    ****     //(void)uart_write(&DRV_UART3, Error_Status ,1U);
 472:src/main.c    ****     (void)uart_write(&DRV_UART3, (uint8_t *)"\n\r", 2U);
 1428              		.loc 2 472 11
 1429 009e 0222     		movs	r2, #2
 1430 00a0 7249     		ldr	r1, .L56+36
 1431 00a2 6948     		ldr	r0, .L56
 1432 00a4 FFF7FEFF 		bl	uart_write
 473:src/main.c    **** 
 474:src/main.c    ****     EnDat_Mode_Command (mode_test, MRS_OP_Conditions, &Data, &Error_Status);
 1433              		.loc 2 474 5
 1434 00a8 2320     		movs	r0, #35
 1435 00aa B921     		movs	r1, #185
 1436 00ac 6C4B     		ldr	r3, .L56+24
 1437 00ae 6D4A     		ldr	r2, .L56+28
 1438 00b0 FFF7FEFF 		bl	EnDat_Mode_Command
 475:src/main.c    **** 
 476:src/main.c    **** 
 477:src/main.c    ****     // set MRS Code to operating conditions --> to read error register
 478:src/main.c    **** 	EnDat_Mode_Command (mode_MRS, MRS_OP_Conditions, &Data, &Error_Status);
 1439              		.loc 2 478 2
 1440 00b4 1C20     		movs	r0, #28
 1441 00b6 B921     		movs	r1, #185
 1442 00b8 694B     		ldr	r3, .L56+24
 1443 00ba 6A4A     		ldr	r2, .L56+28
 1444 00bc FFF7FEFF 		bl	EnDat_Mode_Command
 479:src/main.c    **** 
 480:src/main.c    **** 	//read error register
 481:src/main.c    **** 	EnDat_Mode_Command (mode_send, 0, &Data, &Error_Status);
 1445              		.loc 2 481 2
 1446 00c0 3120     		movs	r0, #49
 1447 00c2 674B     		ldr	r3, .L56+24
 1448 00c4 674A     		ldr	r2, .L56+28
 1449 00c6 0021     		movs	r1, #0
 1450 00c8 FFF7FEFF 		bl	EnDat_Mode_Command
 482:src/main.c    **** 	//(void)uart_write(&DRV_UART3, Data, sizeof(Data));
 483:src/main.c    **** 
 484:src/main.c    **** 	if (Data != 0) {
 1451              		.loc 2 484 11
 1452 00cc 654B     		ldr	r3, .L56+28
 1453 00ce 1B68     		ldr	r3, [r3]
 1454              		.loc 2 484 5
 1455 00d0 002B     		cmp	r3, #0
 1456 00d2 17D0     		beq	.L51
 485:src/main.c    **** 	     EnDat_Mode_Command (mode_receive, 0, &Data, &Error_Status);
 1457              		.loc 2 485 7
 1458 00d4 0E20     		movs	r0, #14
 1459 00d6 624B     		ldr	r3, .L56+24
 1460 00d8 624A     		ldr	r2, .L56+28
 1461 00da 0021     		movs	r1, #0
 1462 00dc FFF7FEFF 		bl	EnDat_Mode_Command
 486:src/main.c    **** 	     EnDat_Mode_Command (mode_reset, 0, &Data, &Error_Status);
 1463              		.loc 2 486 7
 1464 00e0 1520     		movs	r0, #21
 1465 00e2 5F4B     		ldr	r3, .L56+24
 1466 00e4 5F4A     		ldr	r2, .L56+28
 1467 00e6 0021     		movs	r1, #0
 1468 00e8 FFF7FEFF 		bl	EnDat_Mode_Command
 487:src/main.c    **** 	     EnDat_Mode_Command (mode_MRS, MRS_OP_Conditions, &Data, &Error_Status);
 1469              		.loc 2 487 7
 1470 00ec 1C20     		movs	r0, #28
 1471 00ee B921     		movs	r1, #185
 1472 00f0 5B4B     		ldr	r3, .L56+24
 1473 00f2 5C4A     		ldr	r2, .L56+28
 1474 00f4 FFF7FEFF 		bl	EnDat_Mode_Command
 488:src/main.c    **** 	     EnDat_Mode_Command (mode_send, 0, &Data, &Error_Status);
 1475              		.loc 2 488 7
 1476 00f8 3120     		movs	r0, #49
 1477 00fa 594B     		ldr	r3, .L56+24
 1478 00fc 594A     		ldr	r2, .L56+28
 1479 00fe 0021     		movs	r1, #0
 1480 0100 FFF7FEFF 		bl	EnDat_Mode_Command
 1481              	.L51:
 489:src/main.c    **** 
 490:src/main.c    **** 	}
 491:src/main.c    **** 
 492:src/main.c    **** 	// set MRS Code to EnDat 2.1 parameter area, first 16 addresses
 493:src/main.c    **** 	EnDat_Mode_Command (mode_MRS, MRS_E21_1, &Data, &Error_Status);
 1482              		.loc 2 493 2
 1483 0104 1C20     		movs	r0, #28
 1484 0106 A121     		movs	r1, #161
 1485 0108 554B     		ldr	r3, .L56+24
 1486 010a 564A     		ldr	r2, .L56+28
 1487 010c FFF7FEFF 		bl	EnDat_Mode_Command
 494:src/main.c    **** 
 495:src/main.c    **** 	// read number of bits to send for position, EnDat 2.1 parameter word 13
 496:src/main.c    **** 	EnDat_Mode_Command (mode_send, 13, &Data, &Error_Status);
 1488              		.loc 2 496 2
 1489 0110 3120     		movs	r0, #49
 1490 0112 534B     		ldr	r3, .L56+24
 1491 0114 534A     		ldr	r2, .L56+28
 1492 0116 0D21     		movs	r1, #13
 1493 0118 FFF7FEFF 		bl	EnDat_Mode_Command
 497:src/main.c    **** 	Pos_Bit = Data & 0x3F;
 1494              		.loc 2 497 17
 1495 011c 514B     		ldr	r3, .L56+28
 1496 011e 1B68     		ldr	r3, [r3]
 1497 0120 03F03F03 		and	r3, r3, #63
 1498              		.loc 2 497 10
 1499 0124 524A     		ldr	r2, .L56+40
 1500 0126 1360     		str	r3, [r2]
 498:src/main.c    **** 
 499:src/main.c    **** 	// read encoder type, EnDat 2.1 parameter word 14
 500:src/main.c    **** 	EnDat_Mode_Command (mode_send, 14, &Data, &Error_Status);
 1501              		.loc 2 500 2
 1502 0128 3120     		movs	r0, #49
 1503 012a 4D4B     		ldr	r3, .L56+24
 1504 012c 4D4A     		ldr	r2, .L56+28
 1505 012e 0E21     		movs	r1, #14
 1506 0130 FFF7FEFF 		bl	EnDat_Mode_Command
 501:src/main.c    **** 	Enc_Model = ((Data >> 12) & 0x000F);
 1507              		.loc 2 501 21
 1508 0134 4B4B     		ldr	r3, .L56+28
 1509 0136 1B68     		ldr	r3, [r3]
 1510 0138 1B0B     		lsrs	r3, r3, #12
 1511              		.loc 2 501 28
 1512 013a 03F00F03 		and	r3, r3, #15
 1513              		.loc 2 501 12
 1514 013e 4D4A     		ldr	r2, .L56+44
 1515 0140 1360     		str	r3, [r2]
 502:src/main.c    **** 
 503:src/main.c    **** 	// set MRS Code to EnDat 2.1 parameter area, middle 16 addresses //
 504:src/main.c    **** 	EnDat_Mode_Command (mode_MRS, MRS_E21_2, &Data, &Error_Status);
 1516              		.loc 2 504 2
 1517 0142 1C20     		movs	r0, #28
 1518 0144 A321     		movs	r1, #163
 1519 0146 464B     		ldr	r3, .L56+24
 1520 0148 464A     		ldr	r2, .L56+28
 1521 014a FFF7FEFF 		bl	EnDat_Mode_Command
 505:src/main.c    **** 
 506:src/main.c    **** 	// read value for measuring step or steps per revolution, EnDat 2.1 parameter word 20 + 21
 507:src/main.c    **** 	// word 20 --> lower 16 bit
 508:src/main.c    **** 	EnDat_Mode_Command (mode_send, 4, &Data, &Error_Status);
 1522              		.loc 2 508 2
 1523 014e 3120     		movs	r0, #49
 1524 0150 434B     		ldr	r3, .L56+24
 1525 0152 444A     		ldr	r2, .L56+28
 1526 0154 0421     		movs	r1, #4
 1527 0156 FFF7FEFF 		bl	EnDat_Mode_Command
 509:src/main.c    **** 	Meas_Step = Data;
 1528              		.loc 2 509 12
 1529 015a 424B     		ldr	r3, .L56+28
 1530 015c 1B68     		ldr	r3, [r3]
 1531 015e 464A     		ldr	r2, .L56+48
 1532 0160 1360     		str	r3, [r2]
 510:src/main.c    **** 
 511:src/main.c    **** 	// word 21 --> upper 16 bit
 512:src/main.c    **** 	EnDat_Mode_Command (mode_send, 5, &Data, &Error_Status);
 1533              		.loc 2 512 2
 1534 0162 3120     		movs	r0, #49
 1535 0164 3E4B     		ldr	r3, .L56+24
 1536 0166 3F4A     		ldr	r2, .L56+28
 1537 0168 0521     		movs	r1, #5
 1538 016a FFF7FEFF 		bl	EnDat_Mode_Command
 513:src/main.c    **** 
 514:src/main.c    **** 	// connect word 20 + 21 to the overall 32-bit value //
 515:src/main.c    **** 	Meas_Step += ((long)Data << 16);
 1539              		.loc 2 515 16
 1540 016e 3D4B     		ldr	r3, .L56+28
 1541 0170 1B68     		ldr	r3, [r3]
 1542              		.loc 2 515 27
 1543 0172 1B04     		lsls	r3, r3, #16
 1544 0174 1A46     		mov	r2, r3
 1545              		.loc 2 515 12
 1546 0176 404B     		ldr	r3, .L56+48
 1547 0178 1B68     		ldr	r3, [r3]
 1548 017a 1344     		add	r3, r3, r2
 1549 017c 3E4A     		ldr	r2, .L56+48
 1550 017e 1360     		str	r3, [r2]
 516:src/main.c    **** 
 517:src/main.c    **** 	// calculate nr. of bits for measuring steps; only relevant for rotary encoders
 518:src/main.c    **** 	Meas_Step_Copy = (Meas_Step -1);
 1551              		.loc 2 518 30
 1552 0180 3D4B     		ldr	r3, .L56+48
 1553 0182 1B68     		ldr	r3, [r3]
 1554 0184 013B     		subs	r3, r3, #1
 1555              		.loc 2 518 17
 1556 0186 3D4A     		ldr	r2, .L56+52
 1557 0188 1360     		str	r3, [r2]
 519:src/main.c    **** 	Meas_Step_Bit = 0;
 1558              		.loc 2 519 16
 1559 018a 3D4B     		ldr	r3, .L56+56
 1560 018c 0022     		movs	r2, #0
 1561 018e 1A60     		str	r2, [r3]
 520:src/main.c    **** 	while (Meas_Step_Copy > 0){
 1562              		.loc 2 520 8
 1563 0190 09E0     		b	.L52
 1564              	.L53:
 521:src/main.c    **** 		Meas_Step_Copy >>= 1;
 1565              		.loc 2 521 18
 1566 0192 3A4B     		ldr	r3, .L56+52
 1567 0194 1B68     		ldr	r3, [r3]
 1568 0196 5B08     		lsrs	r3, r3, #1
 1569 0198 384A     		ldr	r2, .L56+52
 1570 019a 1360     		str	r3, [r2]
 522:src/main.c    **** 		Meas_Step_Bit++;
 1571              		.loc 2 522 16
 1572 019c 384B     		ldr	r3, .L56+56
 1573 019e 1B68     		ldr	r3, [r3]
 1574 01a0 0133     		adds	r3, r3, #1
 1575 01a2 374A     		ldr	r2, .L56+56
 1576 01a4 1360     		str	r3, [r2]
 1577              	.L52:
 520:src/main.c    **** 	while (Meas_Step_Copy > 0){
 1578              		.loc 2 520 24
 1579 01a6 354B     		ldr	r3, .L56+52
 1580 01a8 1B68     		ldr	r3, [r3]
 520:src/main.c    **** 	while (Meas_Step_Copy > 0){
 1581              		.loc 2 520 8
 1582 01aa 002B     		cmp	r3, #0
 1583 01ac F1D1     		bne	.L53
 523:src/main.c    **** 	};
 524:src/main.c    **** 
 525:src/main.c    **** 	// read number of revolutions, EnDat 2.1 parameters, word 17
 526:src/main.c    **** 	  EnDat_Mode_Command (mode_send, 1, &Data, &Error_Status);
 1584              		.loc 2 526 4
 1585 01ae 3120     		movs	r0, #49
 1586 01b0 2B4B     		ldr	r3, .L56+24
 1587 01b2 2C4A     		ldr	r2, .L56+28
 1588 01b4 0121     		movs	r1, #1
 1589 01b6 FFF7FEFF 		bl	EnDat_Mode_Command
 527:src/main.c    **** 	  Revolutions = Data;
 1590              		.loc 2 527 16
 1591 01ba 2A4B     		ldr	r3, .L56+28
 1592 01bc 1B68     		ldr	r3, [r3]
 1593 01be 314A     		ldr	r2, .L56+60
 1594 01c0 1360     		str	r3, [r2]
 528:src/main.c    **** 	/*
 529:src/main.c    **** 	// set MRS Code to EnDat 2.1 parameter area, first 16 addresses
 530:src/main.c    **** 	EnDat_Mode_Command (mode_MRS, MRS_E21_1, &Data, &Error_Status);
 531:src/main.c    **** 
 532:src/main.c    **** 	EnDat_Mode_Command (mode_send, 13, &Data, &Error_Status);
 533:src/main.c    **** 	Pos_Bit = Data & 0x3F;
 534:src/main.c    **** 
 535:src/main.c    **** 	// read encoder type, EnDat 2.1 parameter word 14
 536:src/main.c    **** 	EnDat_Mode_Command (mode_send, 14, &Data, &Error_Status);
 537:src/main.c    **** 	Enc_Model = ((Data >> 12) & 0x000F);			// only upper 4 bit are of interest
 538:src/main.c    **** 
 539:src/main.c    **** 
 540:src/main.c    **** 	// set MRS Code to EnDat 2.1 parameter area, middle 16 addresses //
 541:src/main.c    **** 	EnDat_Mode_Command (mode_MRS, MRS_E21_2, &Data, &Error_Status);
 542:src/main.c    **** 	//Serial.print("MRS 0xA3 command sent, Status: ");
 543:src/main.c    **** 	//Serial.println(Error_Status);
 544:src/main.c    **** 
 545:src/main.c    **** 	// read value for measuring step or steps per revolution, EnDat 2.1 parameter word 20 + 21
 546:src/main.c    **** 	// word 20 --> lower 16 bit
 547:src/main.c    **** 	EnDat_Mode_Command (mode_send, 4, &Data, &Error_Status);
 548:src/main.c    **** 	Meas_Step = Data;
 549:src/main.c    **** 
 550:src/main.c    **** 	// word 21 --> upper 16 bit
 551:src/main.c    **** 	EnDat_Mode_Command (mode_send, 5, &Data, &Error_Status);
 552:src/main.c    **** */
 553:src/main.c    **** 	// connect word 20 + 21 to the overall 32-bit value //
 554:src/main.c    **** 	//Meas_Step += ((long)Data << 16);
 555:src/main.c    **** 	/*Serial.print("Measuring Step or Measuring steps per revolution: ");
 556:src/main.c    **** 	Serial.println(Meas_Step);
 557:src/main.c    **** 	Serial.print("and status: ");
 558:src/main.c    **** 	Serial.println(Error_Status);
 559:src/main.c    **** */
 560:src/main.c    **** 	// calculate nr. of bits for measuring steps; only relevant for rotary encoders
 561:src/main.c    **** 	//Meas_Step_Copy = (Meas_Step -1);
 562:src/main.c    **** 	//Meas_Step_Bit = 0;
 563:src/main.c    **** 	/*while (Meas_Step_Copy > 0)
 564:src/main.c    **** 	{
 565:src/main.c    **** 	 Meas_Step_Copy >>= 1;
 566:src/main.c    **** 		 Meas_Step_Bit++;
 567:src/main.c    **** 	};*/
 568:src/main.c    **** 	/*Serial.print("Measuring Step or Measuring steps per revolution in bit: ");
 569:src/main.c    **** 	Serial.println(Meas_Step_Bit);
 570:src/main.c    **** */
 571:src/main.c    **** 	// read number of revolutions, EnDat 2.1 parameters, word 17
 572:src/main.c    **** 	//EnDat_Mode_Command (mode_send, 1, &Data, &Error_Status);
 573:src/main.c    **** 
 574:src/main.c    **** 	  /*reading temperature sensor type*/
 575:src/main.c    **** 	    EnDat_Mode_Command (mode_MRS, MRS_OP_Parameters, &Data, &Error_Status);
 1595              		.loc 2 575 6
 1596 01c2 1C20     		movs	r0, #28
 1597 01c4 A721     		movs	r1, #167
 1598 01c6 264B     		ldr	r3, .L56+24
 1599 01c8 264A     		ldr	r2, .L56+28
 1600 01ca FFF7FEFF 		bl	EnDat_Mode_Command
 576:src/main.c    **** 		EnDat_Mode_Command (mode_send, 9, &Data, &Error_Status);
 1601              		.loc 2 576 3
 1602 01ce 3120     		movs	r0, #49
 1603 01d0 234B     		ldr	r3, .L56+24
 1604 01d2 244A     		ldr	r2, .L56+28
 1605 01d4 0921     		movs	r1, #9
 1606 01d6 FFF7FEFF 		bl	EnDat_Mode_Command
 577:src/main.c    **** 		EnDat_Mode_Command (mode_send, 10, &Data, &Error_Status);
 1607              		.loc 2 577 3
 1608 01da 3120     		movs	r0, #49
 1609 01dc 204B     		ldr	r3, .L56+24
 1610 01de 214A     		ldr	r2, .L56+28
 1611 01e0 0A21     		movs	r1, #10
 1612 01e2 FFF7FEFF 		bl	EnDat_Mode_Command
 578:src/main.c    **** 		EnDat_Mode_Command (mode_send, 11, &Data, &Error_Status);
 1613              		.loc 2 578 3
 1614 01e6 3120     		movs	r0, #49
 1615 01e8 1D4B     		ldr	r3, .L56+24
 1616 01ea 1E4A     		ldr	r2, .L56+28
 1617 01ec 0B21     		movs	r1, #11
 1618 01ee FFF7FEFF 		bl	EnDat_Mode_Command
 1619              	.L55:
 579:src/main.c    **** 
 580:src/main.c    **** 
 581:src/main.c    **** 
 582:src/main.c    **** 	for ( ; ; ) {
 583:src/main.c    **** 		//EnDat_Mode_Command(mode_pos, Pos_Bit, &Data, &Error_Status);
 584:src/main.c    **** 	    //Pos_Final = 360*( (float) Data / Meas_Step);
 585:src/main.c    **** 		Data_Out = mode_pos;
 1620              		.loc 2 585 12
 1621 01f2 3822     		movs	r2, #56
 1622 01f4 244B     		ldr	r3, .L56+64
 1623 01f6 1A60     		str	r2, [r3]
 586:src/main.c    **** 		EnDat_Command (Data_Out, Pos_Bit, &Enc_Position, &Error_Status, 0);
 1624              		.loc 2 586 3
 1625 01f8 234B     		ldr	r3, .L56+64
 1626 01fa 1868     		ldr	r0, [r3]
 1627 01fc 1C4B     		ldr	r3, .L56+40
 1628 01fe 1B68     		ldr	r3, [r3]
 1629 0200 D9B2     		uxtb	r1, r3
 1630 0202 0023     		movs	r3, #0
 1631 0204 0093     		str	r3, [sp]
 1632 0206 164B     		ldr	r3, .L56+24
 1633 0208 204A     		ldr	r2, .L56+68
 1634 020a FFF7FEFF 		bl	EnDat_Command
 587:src/main.c    **** 
 588:src/main.c    **** 		if(Enc_Model == 12) {
 1635              		.loc 2 588 16
 1636 020e 194B     		ldr	r3, .L56+44
 1637 0210 1B68     		ldr	r3, [r3]
 1638              		.loc 2 588 5
 1639 0212 0C2B     		cmp	r3, #12
 1640 0214 EDD1     		bne	.L55
 589:src/main.c    **** 			Pos_Final = 360*(((float)Enc_Position) / Meas_Step);
 1641              		.loc 2 589 22
 1642 0216 1D4B     		ldr	r3, .L56+68
 1643 0218 D3E90023 		ldrd	r2, [r3]
 1644 021c 1046     		mov	r0, r2
 1645 021e 1946     		mov	r1, r3
 1646 0220 FFF7FEFF 		bl	__aeabi_ul2f
 1647 0224 06EE900A 		vmov	s13, r0
 1648              		.loc 2 589 43
 1649 0228 134B     		ldr	r3, .L56+48
 1650 022a 1B68     		ldr	r3, [r3]
 1651 022c 07EE903A 		vmov	s15, r3	@ int
 1652 0230 B8EE677A 		vcvt.f32.u32	s14, s15
 1653 0234 C6EE877A 		vdiv.f32	s15, s13, s14
 1654              		.loc 2 589 19
 1655 0238 9FED157A 		vldr.32	s14, .L56+72
 1656 023c 67EE877A 		vmul.f32	s15, s15, s14
 1657              		.loc 2 589 14
 1658 0240 144B     		ldr	r3, .L56+76
 1659 0242 C3ED007A 		vstr.32	s15, [r3]
 585:src/main.c    **** 		EnDat_Command (Data_Out, Pos_Bit, &Enc_Position, &Error_Status, 0);
 1660              		.loc 2 585 12
 1661 0246 D4E7     		b	.L55
 1662              	.L57:
 1663              		.align	2
 1664              	.L56:
 1665 0248 00000000 		.word	DRV_UART3
 1666 024c 18000000 		.word	.LC2
 1667 0250 00000000 		.word	p_pin_in
 1668 0254 00000000 		.word	pin_mask
 1669 0258 00000000 		.word	p_pin_clk
 1670 025c 00000000 		.word	pin_mask_clk
 1671 0260 00000000 		.word	Error_Status
 1672 0264 00000000 		.word	Data
 1673 0268 2C000000 		.word	.LC3
 1674 026c 3C000000 		.word	.LC4
 1675 0270 00000000 		.word	Pos_Bit
 1676 0274 00000000 		.word	Enc_Model
 1677 0278 00000000 		.word	Meas_Step
 1678 027c 00000000 		.word	Meas_Step_Copy
 1679 0280 00000000 		.word	Meas_Step_Bit
 1680 0284 00000000 		.word	Revolutions
 1681 0288 00000000 		.word	Data_Out
 1682 028c 00000000 		.word	Enc_Position
 1683 0290 0000B443 		.word	1135869952
 1684 0294 00000000 		.word	Pos_Final
 1685              		.cfi_endproc
 1686              	.LFE474:
 1688              		.text
 1689              	.Letext0:
 1690              		.file 3 "c:\\stellarstudio-7.1\\sdks\\tools-1.4.0\\toolchain\\arm\\mingw64_nt\\10.3-2021.10\\arm-n
 1691              		.file 4 "c:\\stellarstudio-7.1\\sdks\\tools-1.4.0\\toolchain\\arm\\mingw64_nt\\10.3-2021.10\\arm-n
 1692              		.file 5 "C:/StellarStudio-7.1/SDKS/StellarESDK-1.8.0/Modules/Platform/MCU/include/sr5e1/SR5E1_GPIO
 1693              		.file 6 "../../SDKS/StellarESDK-1.8.0/Projects/SDKTests/CommonBuild/include/test_env.h"
 1694              		.file 7 "C:/StellarStudio-7.1/SDKS/StellarESDK-1.8.0/Modules/Drivers/Comms/UART/include/uart.h"
 1695              		.file 8 "C:/StellarStudio-7.1/SDKS/StellarESDK-1.8.0/Modules/Drivers/Comms/UART/include/sr5e1/uart
DEFINED SYMBOLS
                            *ABS*:00000000 main.c
C:\Users\peppe\AppData\Local\Temp\ccFu79cp.s:19     .text.gpio_read_pin:00000000 $t
C:\Users\peppe\AppData\Local\Temp\ccFu79cp.s:25     .text.gpio_read_pin:00000000 gpio_read_pin
C:\Users\peppe\AppData\Local\Temp\ccFu79cp.s:90     .text.gpio_set_pin:00000000 $t
C:\Users\peppe\AppData\Local\Temp\ccFu79cp.s:96     .text.gpio_set_pin:00000000 gpio_set_pin
C:\Users\peppe\AppData\Local\Temp\ccFu79cp.s:149    .text.gpio_clear_pin:00000000 $t
C:\Users\peppe\AppData\Local\Temp\ccFu79cp.s:155    .text.gpio_clear_pin:00000000 gpio_clear_pin
C:\Users\peppe\AppData\Local\Temp\ccFu79cp.s:212    .bss.p_pin_in:00000000 p_pin_in
C:\Users\peppe\AppData\Local\Temp\ccFu79cp.s:209    .bss.p_pin_in:00000000 $d
C:\Users\peppe\AppData\Local\Temp\ccFu79cp.s:219    .bss.pin_mask:00000000 pin_mask
C:\Users\peppe\AppData\Local\Temp\ccFu79cp.s:216    .bss.pin_mask:00000000 $d
C:\Users\peppe\AppData\Local\Temp\ccFu79cp.s:226    .bss.p_pin_clk:00000000 p_pin_clk
C:\Users\peppe\AppData\Local\Temp\ccFu79cp.s:223    .bss.p_pin_clk:00000000 $d
C:\Users\peppe\AppData\Local\Temp\ccFu79cp.s:233    .bss.pin_mask_clk:00000000 pin_mask_clk
C:\Users\peppe\AppData\Local\Temp\ccFu79cp.s:230    .bss.pin_mask_clk:00000000 $d
C:\Users\peppe\AppData\Local\Temp\ccFu79cp.s:236    .text.Clock_Test:00000000 $t
C:\Users\peppe\AppData\Local\Temp\ccFu79cp.s:243    .text.Clock_Test:00000000 Clock_Test
C:\Users\peppe\AppData\Local\Temp\ccFu79cp.s:279    .text.EnDat_Mode_Command:00000000 $t
C:\Users\peppe\AppData\Local\Temp\ccFu79cp.s:286    .text.EnDat_Mode_Command:00000000 EnDat_Mode_Command
C:\Users\peppe\AppData\Local\Temp\ccFu79cp.s:451    .text.EnDat_Command:00000000 EnDat_Command
C:\Users\peppe\AppData\Local\Temp\ccFu79cp.s:433    .rodata:00000000 $d
C:\Users\peppe\AppData\Local\Temp\ccFu79cp.s:444    .text.EnDat_Command:00000000 $t
C:\Users\peppe\AppData\Local\Temp\ccFu79cp.s:863    .text.EnDat_Command:00000274 $d
C:\Users\peppe\AppData\Local\Temp\ccFu79cp.s:871    .text.EnDat_Command:0000028c $t
C:\Users\peppe\AppData\Local\Temp\ccFu79cp.s:1114   .text.Endat_startup:00000000 $t
C:\Users\peppe\AppData\Local\Temp\ccFu79cp.s:1121   .text.Endat_startup:00000000 Endat_startup
C:\Users\peppe\AppData\Local\Temp\ccFu79cp.s:1166   .rodata.mode_pos:00000000 mode_pos
C:\Users\peppe\AppData\Local\Temp\ccFu79cp.s:1163   .rodata.mode_pos:00000000 $d
C:\Users\peppe\AppData\Local\Temp\ccFu79cp.s:1173   .rodata.mode_MRS:00000000 mode_MRS
C:\Users\peppe\AppData\Local\Temp\ccFu79cp.s:1170   .rodata.mode_MRS:00000000 $d
C:\Users\peppe\AppData\Local\Temp\ccFu79cp.s:1180   .rodata.mode_send:00000000 mode_send
C:\Users\peppe\AppData\Local\Temp\ccFu79cp.s:1177   .rodata.mode_send:00000000 $d
C:\Users\peppe\AppData\Local\Temp\ccFu79cp.s:1187   .rodata.mode_receive:00000000 mode_receive
C:\Users\peppe\AppData\Local\Temp\ccFu79cp.s:1184   .rodata.mode_receive:00000000 $d
C:\Users\peppe\AppData\Local\Temp\ccFu79cp.s:1194   .rodata.mode_reset:00000000 mode_reset
C:\Users\peppe\AppData\Local\Temp\ccFu79cp.s:1191   .rodata.mode_reset:00000000 $d
C:\Users\peppe\AppData\Local\Temp\ccFu79cp.s:1201   .rodata.mode_test:00000000 mode_test
C:\Users\peppe\AppData\Local\Temp\ccFu79cp.s:1198   .rodata.mode_test:00000000 $d
C:\Users\peppe\AppData\Local\Temp\ccFu79cp.s:1208   .rodata.MRS_E21_1:00000000 MRS_E21_1
C:\Users\peppe\AppData\Local\Temp\ccFu79cp.s:1205   .rodata.MRS_E21_1:00000000 $d
C:\Users\peppe\AppData\Local\Temp\ccFu79cp.s:1215   .rodata.MRS_E21_2:00000000 MRS_E21_2
C:\Users\peppe\AppData\Local\Temp\ccFu79cp.s:1212   .rodata.MRS_E21_2:00000000 $d
C:\Users\peppe\AppData\Local\Temp\ccFu79cp.s:1222   .rodata.MRS_E21_3:00000000 MRS_E21_3
C:\Users\peppe\AppData\Local\Temp\ccFu79cp.s:1219   .rodata.MRS_E21_3:00000000 $d
C:\Users\peppe\AppData\Local\Temp\ccFu79cp.s:1229   .rodata.MRS_OP_Conditions:00000000 MRS_OP_Conditions
C:\Users\peppe\AppData\Local\Temp\ccFu79cp.s:1226   .rodata.MRS_OP_Conditions:00000000 $d
C:\Users\peppe\AppData\Local\Temp\ccFu79cp.s:1236   .rodata.MRS_OP_Parameters:00000000 MRS_OP_Parameters
C:\Users\peppe\AppData\Local\Temp\ccFu79cp.s:1233   .rodata.MRS_OP_Parameters:00000000 $d
C:\Users\peppe\AppData\Local\Temp\ccFu79cp.s:1243   .bss.Data:00000000 Data
C:\Users\peppe\AppData\Local\Temp\ccFu79cp.s:1240   .bss.Data:00000000 $d
C:\Users\peppe\AppData\Local\Temp\ccFu79cp.s:1250   .bss.Pos_Bit:00000000 Pos_Bit
C:\Users\peppe\AppData\Local\Temp\ccFu79cp.s:1247   .bss.Pos_Bit:00000000 $d
C:\Users\peppe\AppData\Local\Temp\ccFu79cp.s:1257   .bss.Data_Out:00000000 Data_Out
C:\Users\peppe\AppData\Local\Temp\ccFu79cp.s:1254   .bss.Data_Out:00000000 $d
C:\Users\peppe\AppData\Local\Temp\ccFu79cp.s:1263   .bss.Error_Status:00000000 Error_Status
C:\Users\peppe\AppData\Local\Temp\ccFu79cp.s:1264   .bss.Error_Status:00000000 $d
C:\Users\peppe\AppData\Local\Temp\ccFu79cp.s:1270   .bss.Meas_Step:00000000 Meas_Step
C:\Users\peppe\AppData\Local\Temp\ccFu79cp.s:1267   .bss.Meas_Step:00000000 $d
C:\Users\peppe\AppData\Local\Temp\ccFu79cp.s:1277   .bss.Meas_Step_Copy:00000000 Meas_Step_Copy
C:\Users\peppe\AppData\Local\Temp\ccFu79cp.s:1274   .bss.Meas_Step_Copy:00000000 $d
C:\Users\peppe\AppData\Local\Temp\ccFu79cp.s:1284   .bss.Meas_Step_Bit:00000000 Meas_Step_Bit
C:\Users\peppe\AppData\Local\Temp\ccFu79cp.s:1281   .bss.Meas_Step_Bit:00000000 $d
C:\Users\peppe\AppData\Local\Temp\ccFu79cp.s:1291   .bss.Revolutions:00000000 Revolutions
C:\Users\peppe\AppData\Local\Temp\ccFu79cp.s:1288   .bss.Revolutions:00000000 $d
C:\Users\peppe\AppData\Local\Temp\ccFu79cp.s:1298   .bss.Enc_Model:00000000 Enc_Model
C:\Users\peppe\AppData\Local\Temp\ccFu79cp.s:1295   .bss.Enc_Model:00000000 $d
C:\Users\peppe\AppData\Local\Temp\ccFu79cp.s:1305   .bss.Enc_Position:00000000 Enc_Position
C:\Users\peppe\AppData\Local\Temp\ccFu79cp.s:1302   .bss.Enc_Position:00000000 $d
C:\Users\peppe\AppData\Local\Temp\ccFu79cp.s:1312   .bss.MT_Value:00000000 MT_Value
C:\Users\peppe\AppData\Local\Temp\ccFu79cp.s:1309   .bss.MT_Value:00000000 $d
C:\Users\peppe\AppData\Local\Temp\ccFu79cp.s:1319   .bss.Pos_Final:00000000 Pos_Final
C:\Users\peppe\AppData\Local\Temp\ccFu79cp.s:1316   .bss.Pos_Final:00000000 $d
C:\Users\peppe\AppData\Local\Temp\ccFu79cp.s:1333   .text.main:00000000 $t
C:\Users\peppe\AppData\Local\Temp\ccFu79cp.s:1340   .text.main:00000000 main
C:\Users\peppe\AppData\Local\Temp\ccFu79cp.s:1665   .text.main:00000248 $d
                           .group:00000000 wm4.0.fff7f7f4be43da8f1f6dc1349afc63cb
                           .group:00000000 wm4.stdbool.h.29.07dce69c3b78884144b7f7bd19483461
                           .group:00000000 wm4.stddef.h.39.27677723d43e5b5a7afdf8d798429f1d
                           .group:00000000 wm4._newlib_version.h.4.bfdf54b0af045d4a71376ae00f63a22c
                           .group:00000000 wm4.features.h.33.5bd1eea2d80518b50f7af0b5ce6750e0
                           .group:00000000 wm4._default_types.h.15.247e5cd201eca3442cbf5404108c4935
                           .group:00000000 wm4._intsup.h.10.48bafbb683905c4daa4565a85aeeb264
                           .group:00000000 wm4._stdint.h.10.c24fa3af3bc1706662bb5593a907e841
                           .group:00000000 wm4.stdint.h.23.d53047a68f4a85177f80b422d52785ed
                           .group:00000000 wm4.typedefs.h.36.07fe3956b4e751037cfee70edcd0b397
                           .group:00000000 wm4.clock_cfg.h.23.3c8ba5c0347398a4587362787f86fe62
                           .group:00000000 wm4.sr5e1xx.h.22.e5c808533cc52ed19fb0830cd7d98924
                           .group:00000000 wm4.cmsis_version.h.32.0f826810625204eca22a19868bdc7586
                           .group:00000000 wm4.core_cm7.h.66.8ab2de36917d6fcae18019067fda13e0
                           .group:00000000 wm4.cmsis_gcc.h.26.498d0ad17a45fc9ef20fdc01caf02259
                           .group:00000000 wm4.core_cm7.h.174.43edb295ecdaadad738f48ba6011ffad
                           .group:00000000 wm4.mpu_armv7.h.32.83326921a797fa9d6f70449916b4b839
                           .group:00000000 wm4.cachel1_armv7.h.32.abd77761a989e008b0c60891114a33c7
                           .group:00000000 wm4.SR5E1_ADC.h.14.ae169e40e9f684c773c07c5a3820e545
                           .group:00000000 wm4.SR5E1_CEM.h.14.01fe5742c8f1ae35b1f3af05932f702e
                           .group:00000000 wm4.SR5E1_CMU.h.14.2617b38b159abe38028862394531e06d
                           .group:00000000 wm4.SR5E1_COMP.h.14.4b6fdfe4f5f7fd9bedf3a99b98bdf4cd
                           .group:00000000 wm4.SR5E1_CORDIC.h.14.354fbf7c9eaf6963d38eaa25cf28ffe8
                           .group:00000000 wm4.SR5E1_CRC.h.14.c64d0f7767671ddb92e9ead0a1162100
                           .group:00000000 wm4.SR5E1_DAC.h.14.8c26a0ff04b0cfeb55306cc3f22187b8
                           .group:00000000 wm4.SR5E1_DBGMCU.h.14.427df893d53a8044654f017ba01c25ed
                           .group:00000000 wm4.SR5E1_DMA.h.14.a7f9a92f844b40a86965798c2e64240b
                           .group:00000000 wm4.SR5E1_DMAMUX.h.14.471b3b4dfd4d41515f1df49493698866
                           .group:00000000 wm4.SR5E1_EXTI.h.14.a325ea3fe89cd84894660551c33241ea
                           .group:00000000 wm4.SR5E1_FCCU.h.14.0ebf0f0f36e079d28613ad2c80e17e23
                           .group:00000000 wm4.SR5E1_FDCAN.h.14.92cca1acd00b06d527134cd2ce2de963
                           .group:00000000 wm4.SR5E1_FLASH_REG_ITF.h.14.d23d1d44923f9b20b8c8fdb51d66aefd
                           .group:00000000 wm4.SR5E1_GPIO.h.14.1c84071e130d7c64b62470ab0e18a1f1
                           .group:00000000 wm4.SR5E1_HRTIM.h.24.03932387d2522e6bd5c772a4edaf2f5d
                           .group:00000000 wm4.SR5E1_HSEM.h.14.cbe70eee519f01b16452c3f8c99d8df1
                           .group:00000000 wm4.SR5E1_I2C.h.14.350ba3e0f4fd57828457efa80135c36c
                           .group:00000000 wm4.SR5E1_IMA.h.14.62b7088985ab2b7ce9b030a02daa1f7d
                           .group:00000000 wm4.SR5E1_IWDG.h.14.20b7c5f05cf7ae94464c360d7af3660d
                           .group:00000000 wm4.SR5E1_MEMU.h.14.04bad7ae4c52ce334a4fc900aad2ae5b
                           .group:00000000 wm4.SR5E1_NVM_CTRL.h.14.5f442617f0628d4f16258f211c614ef9
                           .group:00000000 wm4.SR5E1_PLLDIG.h.14.bd87a8e6917eee17dae2f312c8e5fa53
                           .group:00000000 wm4.SR5E1_PMC_DIG.h.14.54173b566c6656344766ec4ef46c9281
                           .group:00000000 wm4.SR5E1_PRAMC.h.14.9f005ad8b558acec113580fef392ff65
                           .group:00000000 wm4.SR5E1_RCC.h.14.ce6255b0d8fa7f0750ba62440b83caec
                           .group:00000000 wm4.SR5E1_RTC.h.14.c054aa0839c8cf8ac24f324aa927c4ec
                           .group:00000000 wm4.SR5E1_SD_ADC.h.14.552b97d0b8f3c1fd4df6d8964b2f1a80
                           .group:00000000 wm4.SR5E1_SMPU.h.14.8ce5bb6d5d7c579cd725f492f46e9085
                           .group:00000000 wm4.SR5E1_SPI.h.14.42d52112e540f85ade4d9135f8b87d72
                           .group:00000000 wm4.SR5E1_SSCM.h.14.8e6a2ad0ce5fca422fc3d69939b6125b
                           .group:00000000 wm4.SR5E1_SYSCFG.h.14.02b969490118ce4069914b5e94f7ca65
                           .group:00000000 wm4.SR5E1_TDM.h.14.a40ed7928cad243a57fd233fccf01ad2
                           .group:00000000 wm4.SR5E1_TIM.h.14.05b8efc5395873619642d61a4b0b5a54
                           .group:00000000 wm4.SR5E1_UART.h.14.eec3ab82b02b3bdb3de500483675b83f
                           .group:00000000 wm4.SR5E1_WWDG.h.14.59b45efc70e442cc6ef03702aad4ad88
                           .group:00000000 wm4.irq_numbers.h.38.6294b95aed1bf7b3a2cda0eed8ce8f57
                           .group:00000000 wm4.regs.h.23.2ac145b4f57126d16daed5fbd86d99c6
                           .group:00000000 wm4.clock.h.37.58835f83108bcb182d0fd3c9e58df3b9
                           .group:00000000 wm4.gpio.h.25.d41a0c19fda8c2de42e666afb48ec15a
                           .group:00000000 wm4.irq.h.37.78714f25754c8b09d1428599101f6cc7
                           .group:00000000 wm4.osal.h.23.3c8c063d5d712ffba7d9086068a59ae1
                           .group:00000000 wm4.test_env.h.63.5ce79fdb157148ce8dc9b8bf548624cc
                           .group:00000000 wm4.steval_ttm007a.h.29.2f54165a99707015e14574f039c05b39

UNDEFINED SYMBOLS
gpio_dev_get_port_reg_ptr
osal_delay_microsec
__aeabi_ul2f
osal_sys_unlock
test_env_init
uart_init
uart_cfg1
uart_start
uart_write
DRV_UART3
